
chal:     file format elf64-x86-64


Disassembly of section .interp:

0000000000400318 <.interp>:
  400318:	2f                   	(bad)  
  400319:	6c                   	insb   (%dx),%es:(%rdi)
  40031a:	69 62 36 34 2f 6c 64 	imul   $0x646c2f34,0x36(%rdx),%esp
  400321:	2d 6c 69 6e 75       	sub    $0x756e696c,%eax
  400326:	78 2d                	js     400355 <__abi_tag-0x47>
  400328:	78 38                	js     400362 <__abi_tag-0x3a>
  40032a:	36 2d 36 34 2e 73    	ss sub $0x732e3436,%eax
  400330:	6f                   	outsl  %ds:(%rsi),(%dx)
  400331:	2e 32 00             	cs xor (%rax),%al

Disassembly of section .note.gnu.property:

0000000000400338 <.note.gnu.property>:
  400338:	04 00                	add    $0x0,%al
  40033a:	00 00                	add    %al,(%rax)
  40033c:	30 00                	xor    %al,(%rax)
  40033e:	00 00                	add    %al,(%rax)
  400340:	05 00 00 00 47       	add    $0x47000000,%eax
  400345:	4e 55                	rex.WRX push %rbp
  400347:	00 02                	add    %al,(%rdx)
  400349:	80 00 c0             	addb   $0xc0,(%rax)
  40034c:	04 00                	add    $0x0,%al
  40034e:	00 00                	add    %al,(%rax)
  400350:	03 00                	add    (%rax),%eax
  400352:	00 00                	add    %al,(%rax)
  400354:	00 00                	add    %al,(%rax)
  400356:	00 00                	add    %al,(%rax)
  400358:	01 00                	add    %eax,(%rax)
  40035a:	01 c0                	add    %eax,%eax
  40035c:	04 00                	add    $0x0,%al
  40035e:	00 00                	add    %al,(%rax)
  400360:	01 00                	add    %eax,(%rax)
  400362:	00 00                	add    %al,(%rax)
  400364:	00 00                	add    %al,(%rax)
  400366:	00 00                	add    %al,(%rax)
  400368:	02 00                	add    (%rax),%al
  40036a:	01 c0                	add    %eax,%eax
  40036c:	04 00                	add    $0x0,%al
	...

Disassembly of section .note.gnu.build-id:

0000000000400378 <.note.gnu.build-id>:
  400378:	04 00                	add    $0x0,%al
  40037a:	00 00                	add    %al,(%rax)
  40037c:	14 00                	adc    $0x0,%al
  40037e:	00 00                	add    %al,(%rax)
  400380:	03 00                	add    (%rax),%eax
  400382:	00 00                	add    %al,(%rax)
  400384:	47                   	rex.RXB
  400385:	4e 55                	rex.WRX push %rbp
  400387:	00 29                	add    %ch,(%rcx)
  400389:	fd                   	std    
  40038a:	44 1d 74 b2 0d 13    	rex.R sbb $0x130db274,%eax
  400390:	ef                   	out    %eax,(%dx)
  400391:	c3                   	ret    
  400392:	ba 2d 93 19 15       	mov    $0x1519932d,%edx
  400397:	1a                   	.byte 0x1a
  400398:	15                   	.byte 0x15
  400399:	be                   	.byte 0xbe
  40039a:	8e fd                	mov    %ebp,%?

Disassembly of section .note.ABI-tag:

000000000040039c <__abi_tag>:
  40039c:	04 00                	add    $0x0,%al
  40039e:	00 00                	add    %al,(%rax)
  4003a0:	10 00                	adc    %al,(%rax)
  4003a2:	00 00                	add    %al,(%rax)
  4003a4:	01 00                	add    %eax,(%rax)
  4003a6:	00 00                	add    %al,(%rax)
  4003a8:	47                   	rex.RXB
  4003a9:	4e 55                	rex.WRX push %rbp
  4003ab:	00 00                	add    %al,(%rax)
  4003ad:	00 00                	add    %al,(%rax)
  4003af:	00 03                	add    %al,(%rbx)
  4003b1:	00 00                	add    %al,(%rax)
  4003b3:	00 02                	add    %al,(%rdx)
  4003b5:	00 00                	add    %al,(%rax)
  4003b7:	00 00                	add    %al,(%rax)
  4003b9:	00 00                	add    %al,(%rax)
	...

Disassembly of section .gnu.hash:

00000000004003c0 <.gnu.hash>:
  4003c0:	03 00                	add    (%rax),%eax
  4003c2:	00 00                	add    %al,(%rax)
  4003c4:	19 00                	sbb    %eax,(%rax)
  4003c6:	00 00                	add    %al,(%rax)
  4003c8:	01 00                	add    %eax,(%rax)
  4003ca:	00 00                	add    %al,(%rax)
  4003cc:	06                   	(bad)  
  4003cd:	00 00                	add    %al,(%rax)
  4003cf:	00 00                	add    %al,(%rax)
  4003d1:	00 30                	add    %dh,(%rax)
  4003d3:	00 a0 01 10 01 19    	add    %ah,0x19011001(%rax)
  4003d9:	00 00                	add    %al,(%rax)
  4003db:	00 1a                	add    %bl,(%rdx)
  4003dd:	00 00                	add    %al,(%rax)
  4003df:	00 1b                	add    %bl,(%rbx)
  4003e1:	00 00                	add    %al,(%rax)
  4003e3:	00 29                	add    %ch,(%rcx)
  4003e5:	1d 8c 1c 67 55       	sbb    $0x55671c8c,%eax
  4003ea:	61                   	(bad)  
  4003eb:	10 78 49             	adc    %bh,0x49(%rax)
  4003ee:	6b                   	.byte 0x6b
  4003ef:	b6 29                	mov    $0x29,%dh
  4003f1:	45 d5                	rex.RB (bad) 
  4003f3:	4c                   	rex.WR

Disassembly of section .dynsym:

00000000004003f8 <.dynsym>:
	...
  400410:	2f                   	(bad)  
  400411:	01 00                	add    %eax,(%rax)
  400413:	00 12                	add    %dl,(%rdx)
	...
  400425:	00 00                	add    %al,(%rax)
  400427:	00 5d 01             	add    %bl,0x1(%rbp)
  40042a:	00 00                	add    %al,(%rax)
  40042c:	12 00                	adc    (%rax),%al
	...
  40043e:	00 00                	add    %al,(%rax)
  400440:	1d 01 00 00 12       	sbb    $0x12000001,%eax
	...
  400455:	00 00                	add    %al,(%rax)
  400457:	00 46 00             	add    %al,0x0(%rsi)
  40045a:	00 00                	add    %al,(%rax)
  40045c:	12 00                	adc    (%rax),%al
	...
  40046e:	00 00                	add    %al,(%rax)
  400470:	5f                   	pop    %rdi
  400471:	00 00                	add    %al,(%rax)
  400473:	00 12                	add    %dl,(%rdx)
	...
  400485:	00 00                	add    %al,(%rax)
  400487:	00 48 01             	add    %cl,0x1(%rax)
  40048a:	00 00                	add    %al,(%rax)
  40048c:	12 00                	adc    (%rax),%al
	...
  40049e:	00 00                	add    %al,(%rax)
  4004a0:	10 00                	adc    %al,(%rax)
  4004a2:	00 00                	add    %al,(%rax)
  4004a4:	12 00                	adc    (%rax),%al
	...
  4004b6:	00 00                	add    %al,(%rax)
  4004b8:	0a 01                	or     (%rcx),%al
  4004ba:	00 00                	add    %al,(%rax)
  4004bc:	12 00                	adc    (%rax),%al
	...
  4004ce:	00 00                	add    %al,(%rax)
  4004d0:	8d 00                	lea    (%rax),%eax
  4004d2:	00 00                	add    %al,(%rax)
  4004d4:	12 00                	adc    (%rax),%al
	...
  4004e6:	00 00                	add    %al,(%rax)
  4004e8:	22 01                	and    (%rcx),%al
  4004ea:	00 00                	add    %al,(%rax)
  4004ec:	12 00                	adc    (%rax),%al
	...
  4004fe:	00 00                	add    %al,(%rax)
  400500:	64 01 00             	add    %eax,%fs:(%rax)
  400503:	00 12                	add    %dl,(%rdx)
	...
  400515:	00 00                	add    %al,(%rax)
  400517:	00 71 00             	add    %dh,0x0(%rcx)
  40051a:	00 00                	add    %al,(%rax)
  40051c:	12 00                	adc    (%rax),%al
	...
  40052e:	00 00                	add    %al,(%rax)
  400530:	1c 01                	sbb    $0x1,%al
  400532:	00 00                	add    %al,(%rax)
  400534:	12 00                	adc    (%rax),%al
	...
  400546:	00 00                	add    %al,(%rax)
  400548:	b1 00                	mov    $0x0,%cl
  40054a:	00 00                	add    %al,(%rax)
  40054c:	12 00                	adc    (%rax),%al
	...
  40055e:	00 00                	add    %al,(%rax)
  400560:	43 01 00             	rex.XB add %eax,(%r8)
  400563:	00 12                	add    %dl,(%rdx)
	...
  400575:	00 00                	add    %al,(%rax)
  400577:	00 fc                	add    %bh,%ah
  400579:	00 00                	add    %al,(%rax)
  40057b:	00 12                	add    %dl,(%rdx)
	...
  40058d:	00 00                	add    %al,(%rax)
  40058f:	00 55 01             	add    %dl,0x1(%rbp)
  400592:	00 00                	add    %al,(%rax)
  400594:	12 00                	adc    (%rax),%al
	...
  4005a6:	00 00                	add    %al,(%rax)
  4005a8:	cf                   	iret   
  4005a9:	00 00                	add    %al,(%rax)
  4005ab:	00 12                	add    %dl,(%rdx)
	...
  4005bd:	00 00                	add    %al,(%rax)
  4005bf:	00 b7 00 00 00 12    	add    %dh,0x12000000(%rdi)
	...
  4005d5:	00 00                	add    %al,(%rax)
  4005d7:	00 3e                	add    %bh,(%rsi)
  4005d9:	01 00                	add    %eax,(%rax)
  4005db:	00 12                	add    %dl,(%rdx)
	...
  4005ed:	00 00                	add    %al,(%rax)
  4005ef:	00 dd                	add    %bl,%ch
  4005f1:	00 00                	add    %al,(%rax)
  4005f3:	00 12                	add    %dl,(%rdx)
	...
  400605:	00 00                	add    %al,(%rax)
  400607:	00 ed                	add    %ch,%ch
  400609:	00 00                	add    %al,(%rax)
  40060b:	00 12                	add    %dl,(%rdx)
	...
  40061d:	00 00                	add    %al,(%rax)
  40061f:	00 01                	add    %al,(%rcx)
  400621:	00 00                	add    %al,(%rax)
  400623:	00 20                	add    %ah,(%rax)
	...
  400635:	00 00                	add    %al,(%rax)
  400637:	00 04 01             	add    %al,(%rcx,%rax,1)
  40063a:	00 00                	add    %al,(%rax)
  40063c:	12 00                	adc    (%rax),%al
	...
  40064e:	00 00                	add    %al,(%rax)
  400650:	37                   	(bad)  
  400651:	01 00                	add    %eax,(%rax)
  400653:	00 11                	add    %dl,(%rcx)
  400655:	00 1a                	add    %bl,(%rdx)
  400657:	00 d0                	add    %dl,%al
  400659:	70 40                	jo     40069b <__abi_tag+0x2ff>
  40065b:	00 00                	add    %al,(%rax)
  40065d:	00 00                	add    %al,(%rax)
  40065f:	00 08                	add    %cl,(%rax)
  400661:	00 00                	add    %al,(%rax)
  400663:	00 00                	add    %al,(%rax)
  400665:	00 00                	add    %al,(%rax)
  400667:	00 4f 01             	add    %cl,0x1(%rdi)
  40066a:	00 00                	add    %al,(%rax)
  40066c:	11 00                	adc    %eax,(%rax)
  40066e:	1a 00                	sbb    (%rax),%al
  400670:	e0 70                	loopne 4006e2 <__abi_tag+0x346>
  400672:	40 00 00             	rex add %al,(%rax)
  400675:	00 00                	add    %al,(%rax)
  400677:	00 08                	add    %cl,(%rax)
  400679:	00 00                	add    %al,(%rax)
  40067b:	00 00                	add    %al,(%rax)
  40067d:	00 00                	add    %al,(%rax)
  40067f:	00 78 00             	add    %bh,0x0(%rax)
  400682:	00 00                	add    %al,(%rax)
  400684:	12 00                	adc    (%rax),%al
  400686:	00 00                	add    %al,(%rax)
  400688:	70 11                	jo     40069b <__abi_tag+0x2ff>
  40068a:	40 00 00             	rex add %al,(%rax)
	...
  400695:	00 00                	add    %al,(%rax)
  400697:	00 2e                	add    %ch,(%rsi)
  400699:	00 00                	add    %al,(%rax)
  40069b:	00 12                	add    %dl,(%rdx)
  40069d:	00 00                	add    %al,(%rax)
  40069f:	00 a0 11 40 00 00    	add    %ah,0x4011(%rax)
	...

Disassembly of section .dynstr:

00000000004006b0 <.dynstr>:
  4006b0:	00 5f 5f             	add    %bl,0x5f(%rdi)
  4006b3:	67 6d                	insl   (%dx),%es:(%edi)
  4006b5:	6f                   	outsl  %ds:(%rsi),(%dx)
  4006b6:	6e                   	outsb  %ds:(%rsi),(%dx)
  4006b7:	5f                   	pop    %rdi
  4006b8:	73 74                	jae    40072e <__abi_tag+0x392>
  4006ba:	61                   	(bad)  
  4006bb:	72 74                	jb     400731 <__abi_tag+0x395>
  4006bd:	5f                   	pop    %rdi
  4006be:	5f                   	pop    %rdi
  4006bf:	00 5f 5a             	add    %bl,0x5a(%rdi)
  4006c2:	53                   	push   %rbx
  4006c3:	74 32                	je     4006f7 <__abi_tag+0x35b>
  4006c5:	30 5f 5f             	xor    %bl,0x5f(%rdi)
  4006c8:	74 68                	je     400732 <__abi_tag+0x396>
  4006ca:	72 6f                	jb     40073b <__abi_tag+0x39f>
  4006cc:	77 5f                	ja     40072d <__abi_tag+0x391>
  4006ce:	6c                   	insb   (%dx),%es:(%rdi)
  4006cf:	65 6e                	outsb  %gs:(%rsi),(%dx)
  4006d1:	67 74 68             	addr32 je 40073c <__abi_tag+0x3a0>
  4006d4:	5f                   	pop    %rdi
  4006d5:	65 72 72             	gs jb  40074a <__abi_tag+0x3ae>
  4006d8:	6f                   	outsl  %ds:(%rsi),(%dx)
  4006d9:	72 50                	jb     40072b <__abi_tag+0x38f>
  4006db:	4b 63 00             	rex.WXB movslq (%r8),%rax
  4006de:	5f                   	pop    %rdi
  4006df:	5a                   	pop    %rdx
  4006e0:	4e 53                	rex.WRX push %rbx
  4006e2:	74 38                	je     40071c <__abi_tag+0x380>
  4006e4:	69 6f 73 5f 62 61 73 	imul   $0x7361625f,0x73(%rdi),%ebp
  4006eb:	65 34 49             	gs xor $0x49,%al
  4006ee:	6e                   	outsb  %ds:(%rsi),(%dx)
  4006ef:	69 74 44 31 45 76 00 	imul   $0x5f007645,0x31(%rsp,%rax,2),%esi
  4006f6:	5f 
  4006f7:	5a                   	pop    %rdx
  4006f8:	53                   	push   %rbx
  4006f9:	74 31                	je     40072c <__abi_tag+0x390>
  4006fb:	37                   	(bad)  
  4006fc:	5f                   	pop    %rdi
  4006fd:	5f                   	pop    %rdi
  4006fe:	74 68                	je     400768 <__abi_tag+0x3cc>
  400700:	72 6f                	jb     400771 <__abi_tag+0x3d5>
  400702:	77 5f                	ja     400763 <__abi_tag+0x3c7>
  400704:	62 61 64 5f 61       	(bad)
  400709:	6c                   	insb   (%dx),%es:(%rdi)
  40070a:	6c                   	insb   (%dx),%es:(%rdi)
  40070b:	6f                   	outsl  %ds:(%rsi),(%dx)
  40070c:	63 76 00             	movsxd 0x0(%rsi),%esi
  40070f:	5f                   	pop    %rdi
  400710:	5f                   	pop    %rdi
  400711:	63 78 61             	movsxd 0x61(%rax),%edi
  400714:	5f                   	pop    %rdi
  400715:	62 65 67 69 6e       	(bad)
  40071a:	5f                   	pop    %rdi
  40071b:	63 61 74             	movsxd 0x74(%rcx),%esp
  40071e:	63 68 00             	movsxd 0x0(%rax),%ebp
  400721:	5f                   	pop    %rdi
  400722:	5a                   	pop    %rdx
  400723:	64 6c                	fs insb (%dx),%es:(%rdi)
  400725:	50                   	push   %rax
  400726:	76 00                	jbe    400728 <__abi_tag+0x38c>
  400728:	5f                   	pop    %rdi
  400729:	5f                   	pop    %rdi
  40072a:	67 78 78             	addr32 js 4007a5 <__abi_tag+0x409>
  40072d:	5f                   	pop    %rdi
  40072e:	70 65                	jo     400795 <__abi_tag+0x3f9>
  400730:	72 73                	jb     4007a5 <__abi_tag+0x409>
  400732:	6f                   	outsl  %ds:(%rsi),(%dx)
  400733:	6e                   	outsb  %ds:(%rsi),(%dx)
  400734:	61                   	(bad)  
  400735:	6c                   	insb   (%dx),%es:(%rdi)
  400736:	69 74 79 5f 76 30 00 	imul   $0x5f003076,0x5f(%rcx,%rdi,2),%esi
  40073d:	5f 
  40073e:	5a                   	pop    %rdx
  40073f:	53                   	push   %rbx
  400740:	74 32                	je     400774 <__abi_tag+0x3d8>
  400742:	38 5f 5f             	cmp    %bl,0x5f(%rdi)
  400745:	74 68                	je     4007af <__abi_tag+0x413>
  400747:	72 6f                	jb     4007b8 <__abi_tag+0x41c>
  400749:	77 5f                	ja     4007aa <__abi_tag+0x40e>
  40074b:	62 61 64 5f 61       	(bad)
  400750:	72 72                	jb     4007c4 <__abi_tag+0x428>
  400752:	61                   	(bad)  
  400753:	79 5f                	jns    4007b4 <__abi_tag+0x418>
  400755:	6e                   	outsb  %ds:(%rsi),(%dx)
  400756:	65 77 5f             	gs ja  4007b8 <__abi_tag+0x41c>
  400759:	6c                   	insb   (%dx),%es:(%rdi)
  40075a:	65 6e                	outsb  %gs:(%rsi),(%dx)
  40075c:	67 74 68             	addr32 je 4007c7 <__abi_tag+0x42b>
  40075f:	76 00                	jbe    400761 <__abi_tag+0x3c5>
  400761:	5f                   	pop    %rdi
  400762:	5a                   	pop    %rdx
  400763:	6e                   	outsb  %ds:(%rsi),(%dx)
  400764:	77 6d                	ja     4007d3 <__abi_tag+0x437>
  400766:	00 5f 5a             	add    %bl,0x5a(%rdi)
  400769:	4e 53                	rex.WRX push %rbx
  40076b:	74 38                	je     4007a5 <__abi_tag+0x409>
  40076d:	69 6f 73 5f 62 61 73 	imul   $0x7361625f,0x73(%rdi),%ebp
  400774:	65 34 49             	gs xor $0x49,%al
  400777:	6e                   	outsb  %ds:(%rsi),(%dx)
  400778:	69 74 43 31 45 76 00 	imul   $0x5f007645,0x31(%rbx,%rax,2),%esi
  40077f:	5f 
  400780:	5f                   	pop    %rdi
  400781:	63 78 61             	movsxd 0x61(%rax),%edi
  400784:	5f                   	pop    %rdi
  400785:	72 65                	jb     4007ec <__abi_tag+0x450>
  400787:	74 68                	je     4007f1 <__abi_tag+0x455>
  400789:	72 6f                	jb     4007fa <__abi_tag+0x45e>
  40078b:	77 00                	ja     40078d <__abi_tag+0x3f1>
  40078d:	5f                   	pop    %rdi
  40078e:	5f                   	pop    %rdi
  40078f:	63 78 61             	movsxd 0x61(%rax),%edi
  400792:	5f                   	pop    %rdi
  400793:	65 6e                	outsb  %gs:(%rsi),(%dx)
  400795:	64 5f                	fs pop %rdi
  400797:	63 61 74             	movsxd 0x74(%rcx),%esp
  40079a:	63 68 00             	movsxd 0x0(%rax),%ebp
  40079d:	5f                   	pop    %rdi
  40079e:	55                   	push   %rbp
  40079f:	6e                   	outsb  %ds:(%rsi),(%dx)
  4007a0:	77 69                	ja     40080b <__abi_tag+0x46f>
  4007a2:	6e                   	outsb  %ds:(%rsi),(%dx)
  4007a3:	64 5f                	fs pop %rdi
  4007a5:	52                   	push   %rdx
  4007a6:	65 73 75             	gs jae 40081e <__abi_tag+0x482>
  4007a9:	6d                   	insl   (%dx),%es:(%rdi)
  4007aa:	65 00 67 65          	add    %ah,%gs:0x65(%rdi)
  4007ae:	74 6c                	je     40081c <__abi_tag+0x480>
  4007b0:	69 6e 65 00 61 6c 61 	imul   $0x616c6100,0x65(%rsi),%ebp
  4007b7:	72 6d                	jb     400826 <__abi_tag+0x48a>
  4007b9:	00 5f 5f             	add    %bl,0x5f(%rdi)
  4007bc:	6c                   	insb   (%dx),%es:(%rdi)
  4007bd:	69 62 63 5f 73 74 61 	imul   $0x6174735f,0x63(%rdx),%esp
  4007c4:	72 74                	jb     40083a <__abi_tag+0x49e>
  4007c6:	5f                   	pop    %rdi
  4007c7:	6d                   	insl   (%dx),%es:(%rdi)
  4007c8:	61                   	(bad)  
  4007c9:	69 6e 00 73 72 61 6e 	imul   $0x6e617273,0x0(%rsi),%ebp
  4007d0:	64 00 5f 5f          	add    %bl,%fs:0x5f(%rdi)
  4007d4:	63 78 61             	movsxd 0x61(%rax),%edi
  4007d7:	5f                   	pop    %rdi
  4007d8:	61                   	(bad)  
  4007d9:	74 65                	je     400840 <__abi_tag+0x4a4>
  4007db:	78 69                	js     400846 <__abi_tag+0x4aa>
  4007dd:	74 00                	je     4007df <__abi_tag+0x443>
  4007df:	73 65                	jae    400846 <__abi_tag+0x4aa>
  4007e1:	74 76                	je     400859 <__abi_tag+0x4bd>
  4007e3:	62 75 66 00 73       	(bad)
  4007e8:	74 64                	je     40084e <__abi_tag+0x4b2>
  4007ea:	6f                   	outsl  %ds:(%rsi),(%dx)
  4007eb:	75 74                	jne    400861 <__abi_tag+0x4c5>
  4007ed:	00 70 75             	add    %dh,0x75(%rax)
  4007f0:	74 73                	je     400865 <__abi_tag+0x4c9>
  4007f2:	00 66 72             	add    %ah,0x72(%rsi)
  4007f5:	65 65 00 73 74       	gs add %dh,%gs:0x74(%rbx)
  4007fa:	72 6c                	jb     400868 <__abi_tag+0x4cc>
  4007fc:	65 6e                	outsb  %gs:(%rsi),(%dx)
  4007fe:	00 73 74             	add    %dh,0x74(%rbx)
  400801:	64 69 6e 00 70 75 74 	imul   $0x63747570,%fs:0x0(%rsi),%ebp
  400808:	63 
  400809:	68 61 72 00 70       	push   $0x70007261
  40080e:	72 69                	jb     400879 <__abi_tag+0x4dd>
  400810:	6e                   	outsb  %ds:(%rsi),(%dx)
  400811:	74 66                	je     400879 <__abi_tag+0x4dd>
  400813:	00 74 69 6d          	add    %dh,0x6d(%rcx,%rbp,2)
  400817:	65 00 6c 69 62       	add    %ch,%gs:0x62(%rcx,%rbp,2)
  40081c:	73 74                	jae    400892 <__abi_tag+0x4f6>
  40081e:	64 63 2b             	movsxd %fs:(%rbx),%ebp
  400821:	2b 2e                	sub    (%rsi),%ebp
  400823:	73 6f                	jae    400894 <__abi_tag+0x4f8>
  400825:	2e 36 00 6c 69 62    	cs ss add %ch,0x62(%rcx,%rbp,2)
  40082b:	6d                   	insl   (%dx),%es:(%rdi)
  40082c:	2e 73 6f             	jae,pn 40089e <__abi_tag+0x502>
  40082f:	2e 36 00 6c 69 62    	cs ss add %ch,0x62(%rcx,%rbp,2)
  400835:	67 63 63 5f          	movsxd 0x5f(%ebx),%esp
  400839:	73 2e                	jae    400869 <__abi_tag+0x4cd>
  40083b:	73 6f                	jae    4008ac <__abi_tag+0x510>
  40083d:	2e 31 00             	cs xor %eax,(%rax)
  400840:	6c                   	insb   (%dx),%es:(%rdi)
  400841:	69 62 63 2e 73 6f 2e 	imul   $0x2e6f732e,0x63(%rdx),%esp
  400848:	36 00 47 43          	ss add %al,0x43(%rdi)
  40084c:	43 5f                	rex.XB pop %r15
  40084e:	33 2e                	xor    (%rsi),%ebp
  400850:	30 00                	xor    %al,(%rax)
  400852:	47                   	rex.RXB
  400853:	4c                   	rex.WR
  400854:	49                   	rex.WB
  400855:	42                   	rex.X
  400856:	43 58                	rex.XB pop %r8
  400858:	58                   	pop    %rax
  400859:	5f                   	pop    %rdi
  40085a:	33 2e                	xor    (%rsi),%ebp
  40085c:	34 2e                	xor    $0x2e,%al
  40085e:	32 39                	xor    (%rcx),%bh
  400860:	00 43 58             	add    %al,0x58(%rbx)
  400863:	58                   	pop    %rax
  400864:	41                   	rex.B
  400865:	42                   	rex.X
  400866:	49 5f                	rex.WB pop %r15
  400868:	31 2e                	xor    %ebp,(%rsi)
  40086a:	33 00                	xor    (%rax),%eax
  40086c:	47                   	rex.RXB
  40086d:	4c                   	rex.WR
  40086e:	49                   	rex.WB
  40086f:	42                   	rex.X
  400870:	43 58                	rex.XB pop %r8
  400872:	58                   	pop    %rax
  400873:	5f                   	pop    %rdi
  400874:	33 2e                	xor    (%rsi),%ebp
  400876:	34 00                	xor    $0x0,%al
  400878:	47                   	rex.RXB
  400879:	4c                   	rex.WR
  40087a:	49                   	rex.WB
  40087b:	42                   	rex.X
  40087c:	43 5f                	rex.XB pop %r15
  40087e:	32 2e                	xor    (%rsi),%ch
  400880:	33 34 00             	xor    (%rax,%rax,1),%esi
  400883:	47                   	rex.RXB
  400884:	4c                   	rex.WR
  400885:	49                   	rex.WB
  400886:	42                   	rex.X
  400887:	43 5f                	rex.XB pop %r15
  400889:	32 2e                	xor    (%rsi),%ch
  40088b:	32 2e                	xor    (%rsi),%ch
  40088d:	35                   	.byte 0x35
	...

Disassembly of section .gnu.version:

0000000000400890 <.gnu.version>:
  400890:	00 00                	add    %al,(%rax)
  400892:	02 00                	add    (%rax),%al
  400894:	02 00                	add    (%rax),%al
  400896:	02 00                	add    (%rax),%al
  400898:	03 00                	add    (%rax),%eax
  40089a:	04 00                	add    $0x0,%al
  40089c:	02 00                	add    (%rax),%al
  40089e:	03 00                	add    (%rax),%eax
  4008a0:	05 00 06 00 02       	add    $0x2000600,%eax
  4008a5:	00 02                	add    %al,(%rdx)
  4008a7:	00 03                	add    %al,(%rbx)
  4008a9:	00 02                	add    %al,(%rdx)
  4008ab:	00 03                	add    %al,(%rbx)
  4008ad:	00 02                	add    %al,(%rdx)
  4008af:	00 02                	add    %al,(%rdx)
  4008b1:	00 02                	add    %al,(%rdx)
  4008b3:	00 04 00             	add    %al,(%rax,%rax,1)
  4008b6:	03 00                	add    (%rax),%eax
  4008b8:	02 00                	add    (%rax),%al
  4008ba:	04 00                	add    $0x0,%al
  4008bc:	07                   	(bad)  
  4008bd:	00 01                	add    %al,(%rcx)
  4008bf:	00 02                	add    %al,(%rdx)
  4008c1:	00 02                	add    %al,(%rdx)
  4008c3:	00 02                	add    %al,(%rdx)
  4008c5:	00 04 00             	add    %al,(%rax,%rax,1)
  4008c8:	03 00                	add    (%rax),%eax

Disassembly of section .gnu.version_r:

00000000004008d0 <.gnu.version_r>:
  4008d0:	01 00                	add    %eax,(%rax)
  4008d2:	01 00                	add    %eax,(%rax)
  4008d4:	82                   	(bad)  
  4008d5:	01 00                	add    %eax,(%rax)
  4008d7:	00 10                	add    %dl,(%rax)
  4008d9:	00 00                	add    %al,(%rax)
  4008db:	00 20                	add    %ah,(%rax)
  4008dd:	00 00                	add    %al,(%rax)
  4008df:	00 50 26             	add    %dl,0x26(%rax)
  4008e2:	79 0b                	jns    4008ef <__abi_tag+0x553>
  4008e4:	00 00                	add    %al,(%rax)
  4008e6:	07                   	(bad)  
  4008e7:	00 9a 01 00 00 00    	add    %bl,0x1(%rdx)
  4008ed:	00 00                	add    %al,(%rax)
  4008ef:	00 01                	add    %al,(%rcx)
  4008f1:	00 03                	add    %al,(%rbx)
  4008f3:	00 69 01             	add    %ch,0x1(%rcx)
  4008f6:	00 00                	add    %al,(%rax)
  4008f8:	10 00                	adc    %al,(%rax)
  4008fa:	00 00                	add    %al,(%rax)
  4008fc:	40 00 00             	rex add %al,(%rax)
  4008ff:	00 79 f8             	add    %bh,-0x8(%rcx)
  400902:	97                   	xchg   %eax,%edi
  400903:	02 00                	add    (%rax),%al
  400905:	00 06                	add    %al,(%rsi)
  400907:	00 a2 01 00 00 10    	add    %ah,0x10000001(%rdx)
  40090d:	00 00                	add    %al,(%rax)
  40090f:	00 d3                	add    %dl,%bl
  400911:	af                   	scas   %es:(%rdi),%eax
  400912:	6b 05 00 00 04 00 b1 	imul   $0xffffffb1,0x40000(%rip),%eax        # 440919 <_end+0x39829>
  400919:	01 00                	add    %eax,(%rax)
  40091b:	00 10                	add    %dl,(%rax)
  40091d:	00 00                	add    %al,(%rax)
  40091f:	00 74 29 92          	add    %dh,-0x6e(%rcx,%rbp,1)
  400923:	08 00                	or     %al,(%rax)
  400925:	00 03                	add    %al,(%rbx)
  400927:	00 bc 01 00 00 00 00 	add    %bh,0x0(%rcx,%rax,1)
  40092e:	00 00                	add    %al,(%rax)
  400930:	01 00                	add    %eax,(%rax)
  400932:	02 00                	add    (%rax),%al
  400934:	90                   	nop
  400935:	01 00                	add    %eax,(%rax)
  400937:	00 10                	add    %dl,(%rax)
  400939:	00 00                	add    %al,(%rax)
  40093b:	00 00                	add    %al,(%rax)
  40093d:	00 00                	add    %al,(%rax)
  40093f:	00 b4 91 96 06 00 00 	add    %dh,0x696(%rcx,%rdx,4)
  400946:	05 00 c8 01 00       	add    $0x1c800,%eax
  40094b:	00 10                	add    %dl,(%rax)
  40094d:	00 00                	add    %al,(%rax)
  40094f:	00 75 1a             	add    %dh,0x1a(%rbp)
  400952:	69 09 00 00 02 00    	imul   $0x20000,(%rcx),%ecx
  400958:	d3 01                	roll   %cl,(%rcx)
  40095a:	00 00                	add    %al,(%rax)
  40095c:	00 00                	add    %al,(%rax)
	...

Disassembly of section .rela.dyn:

0000000000400960 <.rela.dyn>:
  400960:	d8 6f 40             	fsubrs 0x40(%rdi)
  400963:	00 00                	add    %al,(%rax)
  400965:	00 00                	add    %al,(%rax)
  400967:	00 06                	add    %al,(%rsi)
  400969:	00 00                	add    %al,(%rax)
  40096b:	00 08                	add    %cl,(%rax)
	...
  400975:	00 00                	add    %al,(%rax)
  400977:	00 e0                	add    %ah,%al
  400979:	6f                   	outsl  %ds:(%rsi),(%dx)
  40097a:	40 00 00             	rex add %al,(%rax)
  40097d:	00 00                	add    %al,(%rax)
  40097f:	00 06                	add    %al,(%rsi)
  400981:	00 00                	add    %al,(%rax)
  400983:	00 17                	add    %dl,(%rdi)
	...
  40098d:	00 00                	add    %al,(%rax)
  40098f:	00 d0                	add    %dl,%al
  400991:	70 40                	jo     4009d3 <__abi_tag+0x637>
  400993:	00 00                	add    %al,(%rax)
  400995:	00 00                	add    %al,(%rax)
  400997:	00 05 00 00 00 19    	add    %al,0x19000000(%rip)        # 1940099d <_end+0x18ff98ad>
	...
  4009a5:	00 00                	add    %al,(%rax)
  4009a7:	00 e0                	add    %ah,%al
  4009a9:	70 40                	jo     4009eb <__abi_tag+0x64f>
  4009ab:	00 00                	add    %al,(%rax)
  4009ad:	00 00                	add    %al,(%rax)
  4009af:	00 05 00 00 00 1a    	add    %al,0x1a000000(%rip)        # 1a4009b5 <_end+0x19ff98c5>
	...

Disassembly of section .rela.plt:

00000000004009c0 <.rela.plt>:
  4009c0:	00 70 40             	add    %dh,0x40(%rax)
  4009c3:	00 00                	add    %al,(%rax)
  4009c5:	00 00                	add    %al,(%rax)
  4009c7:	00 07                	add    %al,(%rdi)
  4009c9:	00 00                	add    %al,(%rax)
  4009cb:	00 01                	add    %al,(%rcx)
	...
  4009d5:	00 00                	add    %al,(%rax)
  4009d7:	00 08                	add    %cl,(%rax)
  4009d9:	70 40                	jo     400a1b <__abi_tag+0x67f>
  4009db:	00 00                	add    %al,(%rax)
  4009dd:	00 00                	add    %al,(%rax)
  4009df:	00 07                	add    %al,(%rdi)
  4009e1:	00 00                	add    %al,(%rax)
  4009e3:	00 02                	add    %al,(%rdx)
	...
  4009ed:	00 00                	add    %al,(%rax)
  4009ef:	00 10                	add    %dl,(%rax)
  4009f1:	70 40                	jo     400a33 <__abi_tag+0x697>
  4009f3:	00 00                	add    %al,(%rax)
  4009f5:	00 00                	add    %al,(%rax)
  4009f7:	00 07                	add    %al,(%rdi)
  4009f9:	00 00                	add    %al,(%rax)
  4009fb:	00 03                	add    %al,(%rbx)
	...
  400a05:	00 00                	add    %al,(%rax)
  400a07:	00 18                	add    %bl,(%rax)
  400a09:	70 40                	jo     400a4b <__abi_tag+0x6af>
  400a0b:	00 00                	add    %al,(%rax)
  400a0d:	00 00                	add    %al,(%rax)
  400a0f:	00 07                	add    %al,(%rdi)
  400a11:	00 00                	add    %al,(%rax)
  400a13:	00 04 00             	add    %al,(%rax,%rax,1)
	...
  400a1e:	00 00                	add    %al,(%rax)
  400a20:	20 70 40             	and    %dh,0x40(%rax)
  400a23:	00 00                	add    %al,(%rax)
  400a25:	00 00                	add    %al,(%rax)
  400a27:	00 07                	add    %al,(%rdi)
  400a29:	00 00                	add    %al,(%rax)
  400a2b:	00 05 00 00 00 00    	add    %al,0x0(%rip)        # 400a31 <__abi_tag+0x695>
  400a31:	00 00                	add    %al,(%rax)
  400a33:	00 00                	add    %al,(%rax)
  400a35:	00 00                	add    %al,(%rax)
  400a37:	00 28                	add    %ch,(%rax)
  400a39:	70 40                	jo     400a7b <__abi_tag+0x6df>
  400a3b:	00 00                	add    %al,(%rax)
  400a3d:	00 00                	add    %al,(%rax)
  400a3f:	00 07                	add    %al,(%rdi)
  400a41:	00 00                	add    %al,(%rax)
  400a43:	00 06                	add    %al,(%rsi)
	...
  400a4d:	00 00                	add    %al,(%rax)
  400a4f:	00 30                	add    %dh,(%rax)
  400a51:	70 40                	jo     400a93 <__abi_tag+0x6f7>
  400a53:	00 00                	add    %al,(%rax)
  400a55:	00 00                	add    %al,(%rax)
  400a57:	00 07                	add    %al,(%rdi)
  400a59:	00 00                	add    %al,(%rax)
  400a5b:	00 07                	add    %al,(%rdi)
	...
  400a65:	00 00                	add    %al,(%rax)
  400a67:	00 38                	add    %bh,(%rax)
  400a69:	70 40                	jo     400aab <__abi_tag+0x70f>
  400a6b:	00 00                	add    %al,(%rax)
  400a6d:	00 00                	add    %al,(%rax)
  400a6f:	00 07                	add    %al,(%rdi)
  400a71:	00 00                	add    %al,(%rax)
  400a73:	00 09                	add    %cl,(%rcx)
	...
  400a7d:	00 00                	add    %al,(%rax)
  400a7f:	00 40 70             	add    %al,0x70(%rax)
  400a82:	40 00 00             	rex add %al,(%rax)
  400a85:	00 00                	add    %al,(%rax)
  400a87:	00 07                	add    %al,(%rdi)
  400a89:	00 00                	add    %al,(%rax)
  400a8b:	00 0a                	add    %cl,(%rdx)
	...
  400a95:	00 00                	add    %al,(%rax)
  400a97:	00 48 70             	add    %cl,0x70(%rax)
  400a9a:	40 00 00             	rex add %al,(%rax)
  400a9d:	00 00                	add    %al,(%rax)
  400a9f:	00 07                	add    %al,(%rdi)
  400aa1:	00 00                	add    %al,(%rax)
  400aa3:	00 0b                	add    %cl,(%rbx)
	...
  400aad:	00 00                	add    %al,(%rax)
  400aaf:	00 50 70             	add    %dl,0x70(%rax)
  400ab2:	40 00 00             	rex add %al,(%rax)
  400ab5:	00 00                	add    %al,(%rax)
  400ab7:	00 07                	add    %al,(%rdi)
  400ab9:	00 00                	add    %al,(%rax)
  400abb:	00 0c 00             	add    %cl,(%rax,%rax,1)
	...
  400ac6:	00 00                	add    %al,(%rax)
  400ac8:	58                   	pop    %rax
  400ac9:	70 40                	jo     400b0b <__abi_tag+0x76f>
  400acb:	00 00                	add    %al,(%rax)
  400acd:	00 00                	add    %al,(%rax)
  400acf:	00 07                	add    %al,(%rdi)
  400ad1:	00 00                	add    %al,(%rax)
  400ad3:	00 0d 00 00 00 00    	add    %cl,0x0(%rip)        # 400ad9 <__abi_tag+0x73d>
  400ad9:	00 00                	add    %al,(%rax)
  400adb:	00 00                	add    %al,(%rax)
  400add:	00 00                	add    %al,(%rax)
  400adf:	00 60 70             	add    %ah,0x70(%rax)
  400ae2:	40 00 00             	rex add %al,(%rax)
  400ae5:	00 00                	add    %al,(%rax)
  400ae7:	00 07                	add    %al,(%rdi)
  400ae9:	00 00                	add    %al,(%rax)
  400aeb:	00 0e                	add    %cl,(%rsi)
	...
  400af5:	00 00                	add    %al,(%rax)
  400af7:	00 68 70             	add    %ch,0x70(%rax)
  400afa:	40 00 00             	rex add %al,(%rax)
  400afd:	00 00                	add    %al,(%rax)
  400aff:	00 07                	add    %al,(%rdi)
  400b01:	00 00                	add    %al,(%rax)
  400b03:	00 0f                	add    %cl,(%rdi)
	...
  400b0d:	00 00                	add    %al,(%rax)
  400b0f:	00 70 70             	add    %dh,0x70(%rax)
  400b12:	40 00 00             	rex add %al,(%rax)
  400b15:	00 00                	add    %al,(%rax)
  400b17:	00 07                	add    %al,(%rdi)
  400b19:	00 00                	add    %al,(%rax)
  400b1b:	00 10                	add    %dl,(%rax)
	...
  400b25:	00 00                	add    %al,(%rax)
  400b27:	00 78 70             	add    %bh,0x70(%rax)
  400b2a:	40 00 00             	rex add %al,(%rax)
  400b2d:	00 00                	add    %al,(%rax)
  400b2f:	00 07                	add    %al,(%rdi)
  400b31:	00 00                	add    %al,(%rax)
  400b33:	00 11                	add    %dl,(%rcx)
	...
  400b3d:	00 00                	add    %al,(%rax)
  400b3f:	00 80 70 40 00 00    	add    %al,0x4070(%rax)
  400b45:	00 00                	add    %al,(%rax)
  400b47:	00 07                	add    %al,(%rdi)
  400b49:	00 00                	add    %al,(%rax)
  400b4b:	00 12                	add    %dl,(%rdx)
	...
  400b55:	00 00                	add    %al,(%rax)
  400b57:	00 88 70 40 00 00    	add    %cl,0x4070(%rax)
  400b5d:	00 00                	add    %al,(%rax)
  400b5f:	00 07                	add    %al,(%rdi)
  400b61:	00 00                	add    %al,(%rax)
  400b63:	00 13                	add    %dl,(%rbx)
	...
  400b6d:	00 00                	add    %al,(%rax)
  400b6f:	00 90 70 40 00 00    	add    %dl,0x4070(%rax)
  400b75:	00 00                	add    %al,(%rax)
  400b77:	00 07                	add    %al,(%rdi)
  400b79:	00 00                	add    %al,(%rax)
  400b7b:	00 14 00             	add    %dl,(%rax,%rax,1)
	...
  400b86:	00 00                	add    %al,(%rax)
  400b88:	98                   	cwtl   
  400b89:	70 40                	jo     400bcb <__abi_tag+0x82f>
  400b8b:	00 00                	add    %al,(%rax)
  400b8d:	00 00                	add    %al,(%rax)
  400b8f:	00 07                	add    %al,(%rdi)
  400b91:	00 00                	add    %al,(%rax)
  400b93:	00 15 00 00 00 00    	add    %dl,0x0(%rip)        # 400b99 <__abi_tag+0x7fd>
  400b99:	00 00                	add    %al,(%rax)
  400b9b:	00 00                	add    %al,(%rax)
  400b9d:	00 00                	add    %al,(%rax)
  400b9f:	00 a0 70 40 00 00    	add    %ah,0x4070(%rax)
  400ba5:	00 00                	add    %al,(%rax)
  400ba7:	00 07                	add    %al,(%rdi)
  400ba9:	00 00                	add    %al,(%rax)
  400bab:	00 1b                	add    %bl,(%rbx)
	...
  400bb5:	00 00                	add    %al,(%rax)
  400bb7:	00 a8 70 40 00 00    	add    %ch,0x4070(%rax)
  400bbd:	00 00                	add    %al,(%rax)
  400bbf:	00 07                	add    %al,(%rdi)
  400bc1:	00 00                	add    %al,(%rax)
  400bc3:	00 16                	add    %dl,(%rsi)
	...
  400bcd:	00 00                	add    %al,(%rax)
  400bcf:	00 b0 70 40 00 00    	add    %dh,0x4070(%rax)
  400bd5:	00 00                	add    %al,(%rax)
  400bd7:	00 07                	add    %al,(%rdi)
  400bd9:	00 00                	add    %al,(%rax)
  400bdb:	00 18                	add    %bl,(%rax)
	...
  400be5:	00 00                	add    %al,(%rax)
  400be7:	00 b8 70 40 00 00    	add    %bh,0x4070(%rax)
  400bed:	00 00                	add    %al,(%rax)
  400bef:	00 07                	add    %al,(%rdi)
  400bf1:	00 00                	add    %al,(%rax)
  400bf3:	00 1c 00             	add    %bl,(%rax,%rax,1)
	...

Disassembly of section .init:

0000000000401000 <_init>:
  401000:	f3 0f 1e fa          	endbr64 
  401004:	48 83 ec 08          	sub    $0x8,%rsp
  401008:	48 8b 05 d1 5f 00 00 	mov    0x5fd1(%rip),%rax        # 406fe0 <__gmon_start__@Base>
  40100f:	48 85 c0             	test   %rax,%rax
  401012:	74 02                	je     401016 <_init+0x16>
  401014:	ff d0                	call   *%rax
  401016:	48 83 c4 08          	add    $0x8,%rsp
  40101a:	c3                   	ret    

Disassembly of section .plt:

0000000000401020 <setvbuf@plt-0x10>:
  401020:	ff 35 ca 5f 00 00    	push   0x5fca(%rip)        # 406ff0 <_GLOBAL_OFFSET_TABLE_+0x8>
  401026:	ff 25 cc 5f 00 00    	jmp    *0x5fcc(%rip)        # 406ff8 <_GLOBAL_OFFSET_TABLE_+0x10>
  40102c:	0f 1f 40 00          	nopl   0x0(%rax)

0000000000401030 <setvbuf@plt>:
  401030:	ff 25 ca 5f 00 00    	jmp    *0x5fca(%rip)        # 407000 <setvbuf@GLIBC_2.2.5>
  401036:	68 00 00 00 00       	push   $0x0
  40103b:	e9 e0 ff ff ff       	jmp    401020 <_init+0x20>

0000000000401040 <printf@plt>:
  401040:	ff 25 c2 5f 00 00    	jmp    *0x5fc2(%rip)        # 407008 <printf@GLIBC_2.2.5>
  401046:	68 01 00 00 00       	push   $0x1
  40104b:	e9 d0 ff ff ff       	jmp    401020 <_init+0x20>

0000000000401050 <rand@plt>:
  401050:	ff 25 ba 5f 00 00    	jmp    *0x5fba(%rip)        # 407010 <rand@GLIBC_2.2.5>
  401056:	68 02 00 00 00       	push   $0x2
  40105b:	e9 c0 ff ff ff       	jmp    401020 <_init+0x20>

0000000000401060 <_ZSt17__throw_bad_allocv@plt>:
  401060:	ff 25 b2 5f 00 00    	jmp    *0x5fb2(%rip)        # 407018 <_ZSt17__throw_bad_allocv@GLIBCXX_3.4>
  401066:	68 03 00 00 00       	push   $0x3
  40106b:	e9 b0 ff ff ff       	jmp    401020 <_init+0x20>

0000000000401070 <__cxa_begin_catch@plt>:
  401070:	ff 25 aa 5f 00 00    	jmp    *0x5faa(%rip)        # 407020 <__cxa_begin_catch@CXXABI_1.3>
  401076:	68 04 00 00 00       	push   $0x4
  40107b:	e9 a0 ff ff ff       	jmp    401020 <_init+0x20>

0000000000401080 <strlen@plt>:
  401080:	ff 25 a2 5f 00 00    	jmp    *0x5fa2(%rip)        # 407028 <strlen@GLIBC_2.2.5>
  401086:	68 05 00 00 00       	push   $0x5
  40108b:	e9 90 ff ff ff       	jmp    401020 <_init+0x20>

0000000000401090 <_ZSt20__throw_length_errorPKc@plt>:
  401090:	ff 25 9a 5f 00 00    	jmp    *0x5f9a(%rip)        # 407030 <_ZSt20__throw_length_errorPKc@GLIBCXX_3.4>
  401096:	68 06 00 00 00       	push   $0x6
  40109b:	e9 80 ff ff ff       	jmp    401020 <_init+0x20>

00000000004010a0 <_ZSt28__throw_bad_array_new_lengthv@plt>:
  4010a0:	ff 25 92 5f 00 00    	jmp    *0x5f92(%rip)        # 407038 <_ZSt28__throw_bad_array_new_lengthv@GLIBCXX_3.4.29>
  4010a6:	68 07 00 00 00       	push   $0x7
  4010ab:	e9 70 ff ff ff       	jmp    401020 <_init+0x20>

00000000004010b0 <__cxa_atexit@plt>:
  4010b0:	ff 25 8a 5f 00 00    	jmp    *0x5f8a(%rip)        # 407040 <__cxa_atexit@GLIBC_2.2.5>
  4010b6:	68 08 00 00 00       	push   $0x8
  4010bb:	e9 60 ff ff ff       	jmp    401020 <_init+0x20>

00000000004010c0 <time@plt>:
  4010c0:	ff 25 82 5f 00 00    	jmp    *0x5f82(%rip)        # 407048 <time@GLIBC_2.2.5>
  4010c6:	68 09 00 00 00       	push   $0x9
  4010cb:	e9 50 ff ff ff       	jmp    401020 <_init+0x20>

00000000004010d0 <_ZdlPv@plt>:
  4010d0:	ff 25 7a 5f 00 00    	jmp    *0x5f7a(%rip)        # 407050 <_ZdlPv@GLIBCXX_3.4>
  4010d6:	68 0a 00 00 00       	push   $0xa
  4010db:	e9 40 ff ff ff       	jmp    401020 <_init+0x20>

00000000004010e0 <srand@plt>:
  4010e0:	ff 25 72 5f 00 00    	jmp    *0x5f72(%rip)        # 407058 <srand@GLIBC_2.2.5>
  4010e6:	68 0b 00 00 00       	push   $0xb
  4010eb:	e9 30 ff ff ff       	jmp    401020 <_init+0x20>

00000000004010f0 <_Znwm@plt>:
  4010f0:	ff 25 6a 5f 00 00    	jmp    *0x5f6a(%rip)        # 407060 <_Znwm@GLIBCXX_3.4>
  4010f6:	68 0c 00 00 00       	push   $0xc
  4010fb:	e9 20 ff ff ff       	jmp    401020 <_init+0x20>

0000000000401100 <free@plt>:
  401100:	ff 25 62 5f 00 00    	jmp    *0x5f62(%rip)        # 407068 <free@GLIBC_2.2.5>
  401106:	68 0d 00 00 00       	push   $0xd
  40110b:	e9 10 ff ff ff       	jmp    401020 <_init+0x20>

0000000000401110 <getline@plt>:
  401110:	ff 25 5a 5f 00 00    	jmp    *0x5f5a(%rip)        # 407070 <getline@GLIBC_2.2.5>
  401116:	68 0e 00 00 00       	push   $0xe
  40111b:	e9 00 ff ff ff       	jmp    401020 <_init+0x20>

0000000000401120 <putchar@plt>:
  401120:	ff 25 52 5f 00 00    	jmp    *0x5f52(%rip)        # 407078 <putchar@GLIBC_2.2.5>
  401126:	68 0f 00 00 00       	push   $0xf
  40112b:	e9 f0 fe ff ff       	jmp    401020 <_init+0x20>

0000000000401130 <__cxa_rethrow@plt>:
  401130:	ff 25 4a 5f 00 00    	jmp    *0x5f4a(%rip)        # 407080 <__cxa_rethrow@CXXABI_1.3>
  401136:	68 10 00 00 00       	push   $0x10
  40113b:	e9 e0 fe ff ff       	jmp    401020 <_init+0x20>

0000000000401140 <_ZNSt8ios_base4InitC1Ev@plt>:
  401140:	ff 25 42 5f 00 00    	jmp    *0x5f42(%rip)        # 407088 <_ZNSt8ios_base4InitC1Ev@GLIBCXX_3.4>
  401146:	68 11 00 00 00       	push   $0x11
  40114b:	e9 d0 fe ff ff       	jmp    401020 <_init+0x20>

0000000000401150 <puts@plt>:
  401150:	ff 25 3a 5f 00 00    	jmp    *0x5f3a(%rip)        # 407090 <puts@GLIBC_2.2.5>
  401156:	68 12 00 00 00       	push   $0x12
  40115b:	e9 c0 fe ff ff       	jmp    401020 <_init+0x20>

0000000000401160 <__cxa_end_catch@plt>:
  401160:	ff 25 32 5f 00 00    	jmp    *0x5f32(%rip)        # 407098 <__cxa_end_catch@CXXABI_1.3>
  401166:	68 13 00 00 00       	push   $0x13
  40116b:	e9 b0 fe ff ff       	jmp    401020 <_init+0x20>

0000000000401170 <__gxx_personality_v0@plt>:
  401170:	ff 25 2a 5f 00 00    	jmp    *0x5f2a(%rip)        # 4070a0 <__gxx_personality_v0@CXXABI_1.3>
  401176:	68 14 00 00 00       	push   $0x14
  40117b:	e9 a0 fe ff ff       	jmp    401020 <_init+0x20>

0000000000401180 <_Unwind_Resume@plt>:
  401180:	ff 25 22 5f 00 00    	jmp    *0x5f22(%rip)        # 4070a8 <_Unwind_Resume@GCC_3.0>
  401186:	68 15 00 00 00       	push   $0x15
  40118b:	e9 90 fe ff ff       	jmp    401020 <_init+0x20>

0000000000401190 <alarm@plt>:
  401190:	ff 25 1a 5f 00 00    	jmp    *0x5f1a(%rip)        # 4070b0 <alarm@GLIBC_2.2.5>
  401196:	68 16 00 00 00       	push   $0x16
  40119b:	e9 80 fe ff ff       	jmp    401020 <_init+0x20>

00000000004011a0 <_ZNSt8ios_base4InitD1Ev@plt>:
  4011a0:	ff 25 12 5f 00 00    	jmp    *0x5f12(%rip)        # 4070b8 <_ZNSt8ios_base4InitD1Ev@GLIBCXX_3.4>
  4011a6:	68 17 00 00 00       	push   $0x17
  4011ab:	e9 70 fe ff ff       	jmp    401020 <_init+0x20>

Disassembly of section .text:

00000000004011b0 <_start>:
  4011b0:	f3 0f 1e fa          	endbr64 
  4011b4:	31 ed                	xor    %ebp,%ebp
  4011b6:	49 89 d1             	mov    %rdx,%r9
  4011b9:	5e                   	pop    %rsi
  4011ba:	48 89 e2             	mov    %rsp,%rdx
  4011bd:	48 83 e4 f0          	and    $0xfffffffffffffff0,%rsp
  4011c1:	50                   	push   %rax
  4011c2:	54                   	push   %rsp
  4011c3:	45 31 c0             	xor    %r8d,%r8d
  4011c6:	31 c9                	xor    %ecx,%ecx
  4011c8:	48 c7 c7 96 12 40 00 	mov    $0x401296,%rdi
  4011cf:	ff 15 03 5e 00 00    	call   *0x5e03(%rip)        # 406fd8 <__libc_start_main@GLIBC_2.34>
  4011d5:	f4                   	hlt    

00000000004011d6 <.annobin_abi_note.c>:
  4011d6:	66 2e 0f 1f 84 00 00 	cs nopw 0x0(%rax,%rax,1)
  4011dd:	00 00 00 

00000000004011e0 <_dl_relocate_static_pie>:
  4011e0:	f3 0f 1e fa          	endbr64 
  4011e4:	c3                   	ret    

00000000004011e5 <.annobin__dl_relocate_static_pie.end>:
  4011e5:	66 2e 0f 1f 84 00 00 	cs nopw 0x0(%rax,%rax,1)
  4011ec:	00 00 00 
  4011ef:	90                   	nop

00000000004011f0 <deregister_tm_clones>:
  4011f0:	b8 d0 70 40 00       	mov    $0x4070d0,%eax
  4011f5:	48 3d d0 70 40 00    	cmp    $0x4070d0,%rax
  4011fb:	74 13                	je     401210 <deregister_tm_clones+0x20>
  4011fd:	b8 00 00 00 00       	mov    $0x0,%eax
  401202:	48 85 c0             	test   %rax,%rax
  401205:	74 09                	je     401210 <deregister_tm_clones+0x20>
  401207:	bf d0 70 40 00       	mov    $0x4070d0,%edi
  40120c:	ff e0                	jmp    *%rax
  40120e:	66 90                	xchg   %ax,%ax
  401210:	c3                   	ret    
  401211:	66 66 2e 0f 1f 84 00 	data16 cs nopw 0x0(%rax,%rax,1)
  401218:	00 00 00 00 
  40121c:	0f 1f 40 00          	nopl   0x0(%rax)

0000000000401220 <register_tm_clones>:
  401220:	be d0 70 40 00       	mov    $0x4070d0,%esi
  401225:	48 81 ee d0 70 40 00 	sub    $0x4070d0,%rsi
  40122c:	48 89 f0             	mov    %rsi,%rax
  40122f:	48 c1 ee 3f          	shr    $0x3f,%rsi
  401233:	48 c1 f8 03          	sar    $0x3,%rax
  401237:	48 01 c6             	add    %rax,%rsi
  40123a:	48 d1 fe             	sar    %rsi
  40123d:	74 11                	je     401250 <register_tm_clones+0x30>
  40123f:	b8 00 00 00 00       	mov    $0x0,%eax
  401244:	48 85 c0             	test   %rax,%rax
  401247:	74 07                	je     401250 <register_tm_clones+0x30>
  401249:	bf d0 70 40 00       	mov    $0x4070d0,%edi
  40124e:	ff e0                	jmp    *%rax
  401250:	c3                   	ret    
  401251:	66 66 2e 0f 1f 84 00 	data16 cs nopw 0x0(%rax,%rax,1)
  401258:	00 00 00 00 
  40125c:	0f 1f 40 00          	nopl   0x0(%rax)

0000000000401260 <__do_global_dtors_aux>:
  401260:	f3 0f 1e fa          	endbr64 
  401264:	80 3d 7d 5e 00 00 00 	cmpb   $0x0,0x5e7d(%rip)        # 4070e8 <completed.0>
  40126b:	75 13                	jne    401280 <__do_global_dtors_aux+0x20>
  40126d:	55                   	push   %rbp
  40126e:	48 89 e5             	mov    %rsp,%rbp
  401271:	e8 7a ff ff ff       	call   4011f0 <deregister_tm_clones>
  401276:	c6 05 6b 5e 00 00 01 	movb   $0x1,0x5e6b(%rip)        # 4070e8 <completed.0>
  40127d:	5d                   	pop    %rbp
  40127e:	c3                   	ret    
  40127f:	90                   	nop
  401280:	c3                   	ret    
  401281:	66 66 2e 0f 1f 84 00 	data16 cs nopw 0x0(%rax,%rax,1)
  401288:	00 00 00 00 
  40128c:	0f 1f 40 00          	nopl   0x0(%rax)

0000000000401290 <frame_dummy>:
  401290:	f3 0f 1e fa          	endbr64 
  401294:	eb 8a                	jmp    401220 <register_tm_clones>

0000000000401296 <main>:
  401296:	55                   	push   %rbp
  401297:	48 89 e5             	mov    %rsp,%rbp
  40129a:	53                   	push   %rbx
  40129b:	48 81 ec 98 00 00 00 	sub    $0x98,%rsp
  4012a2:	48 8b 05 27 5e 00 00 	mov    0x5e27(%rip),%rax        # 4070d0 <stdout@GLIBC_2.2.5>
  4012a9:	b9 00 00 00 00       	mov    $0x0,%ecx
  4012ae:	ba 02 00 00 00       	mov    $0x2,%edx
  4012b3:	be 00 00 00 00       	mov    $0x0,%esi
  4012b8:	48 89 c7             	mov    %rax,%rdi
  4012bb:	e8 70 fd ff ff       	call   401030 <setvbuf@plt>
  4012c0:	bf b4 00 00 00       	mov    $0xb4,%edi
  4012c5:	e8 c6 fe ff ff       	call   401190 <alarm@plt>
  4012ca:	48 8d 45 a0          	lea    -0x60(%rbp),%rax
  4012ce:	48 89 c7             	mov    %rax,%rdi
  4012d1:	e8 14 04 00 00       	call   4016ea <_ZN8Game2048C1Ev>
  4012d6:	48 8b 45 a0          	mov    -0x60(%rbp),%rax
  4012da:	48 8b 55 a8          	mov    -0x58(%rbp),%rdx
  4012de:	48 89 85 70 ff ff ff 	mov    %rax,-0x90(%rbp)
  4012e5:	48 89 95 78 ff ff ff 	mov    %rdx,-0x88(%rbp)
  4012ec:	48 8b 45 b0          	mov    -0x50(%rbp),%rax
  4012f0:	48 8b 55 b8          	mov    -0x48(%rbp),%rdx
  4012f4:	48 89 45 80          	mov    %rax,-0x80(%rbp)
  4012f8:	48 89 55 88          	mov    %rdx,-0x78(%rbp)
  4012fc:	0f b7 45 c0          	movzwl -0x40(%rbp),%eax
  401300:	66 89 45 90          	mov    %ax,-0x70(%rbp)
  401304:	48 8d 45 a0          	lea    -0x60(%rbp),%rax
  401308:	48 89 45 d0          	mov    %rax,-0x30(%rbp)
  40130c:	48 c7 85 68 ff ff ff 	movq   $0x0,-0x98(%rbp)
  401313:	00 00 00 00 
  401317:	48 c7 85 60 ff ff ff 	movq   $0x0,-0xa0(%rbp)
  40131e:	00 00 00 00 
  401322:	48 8b 45 d0          	mov    -0x30(%rbp),%rax
  401326:	48 89 c7             	mov    %rax,%rdi
  401329:	e8 ae 04 00 00       	call   4017dc <_ZNK8Game204810printBoardEv>
  40132e:	48 8b 45 d0          	mov    -0x30(%rbp),%rax
  401332:	48 89 c7             	mov    %rax,%rdi
  401335:	e8 26 09 00 00       	call   401c60 <_ZNK8Game20488checkWinEv>
  40133a:	84 c0                	test   %al,%al
  40133c:	74 23                	je     401361 <main+0xcb>
  40133e:	bf 30 40 40 00       	mov    $0x404030,%edi
  401343:	e8 08 fe ff ff       	call   401150 <puts@plt>
  401348:	48 8b 05 79 5d 00 00 	mov    0x5d79(%rip),%rax        # 4070c8 <FLAG>
  40134f:	48 89 c7             	mov    %rax,%rdi
  401352:	b8 00 00 00 00       	mov    $0x0,%eax
  401357:	e8 e4 fc ff ff       	call   401040 <printf@plt>
  40135c:	e9 52 02 00 00       	jmp    4015b3 <main+0x31d>
  401361:	48 8b 45 d0          	mov    -0x30(%rbp),%rax
  401365:	48 89 c7             	mov    %rax,%rdi
  401368:	e8 8b 07 00 00       	call   401af8 <_ZNK8Game20487canMoveEv>
  40136d:	83 f0 01             	xor    $0x1,%eax
  401370:	84 c0                	test   %al,%al
  401372:	74 0f                	je     401383 <main+0xed>
  401374:	bf 68 40 40 00       	mov    $0x404068,%edi
  401379:	e8 d2 fd ff ff       	call   401150 <puts@plt>
  40137e:	e9 30 02 00 00       	jmp    4015b3 <main+0x31d>
  401383:	bf 90 40 40 00       	mov    $0x404090,%edi
  401388:	b8 00 00 00 00       	mov    $0x0,%eax
  40138d:	e8 ae fc ff ff       	call   401040 <printf@plt>
  401392:	48 8b 15 47 5d 00 00 	mov    0x5d47(%rip),%rdx        # 4070e0 <stdin@GLIBC_2.2.5>
  401399:	48 8d 8d 60 ff ff ff 	lea    -0xa0(%rbp),%rcx
  4013a0:	48 8d 85 68 ff ff ff 	lea    -0x98(%rbp),%rax
  4013a7:	48 89 ce             	mov    %rcx,%rsi
  4013aa:	48 89 c7             	mov    %rax,%rdi
  4013ad:	e8 5e fd ff ff       	call   401110 <getline@plt>
  4013b2:	48 8b 85 68 ff ff ff 	mov    -0x98(%rbp),%rax
  4013b9:	48 89 c7             	mov    %rax,%rdi
  4013bc:	e8 bf fc ff ff       	call   401080 <strlen@plt>
  4013c1:	48 89 45 c8          	mov    %rax,-0x38(%rbp)
  4013c5:	48 8b 95 68 ff ff ff 	mov    -0x98(%rbp),%rdx
  4013cc:	48 8b 45 c8          	mov    -0x38(%rbp),%rax
  4013d0:	48 83 e8 01          	sub    $0x1,%rax
  4013d4:	48 01 d0             	add    %rdx,%rax
  4013d7:	0f b6 00             	movzbl (%rax),%eax
  4013da:	3c 0a                	cmp    $0xa,%al
  4013dc:	75 15                	jne    4013f3 <main+0x15d>
  4013de:	48 8b 95 68 ff ff ff 	mov    -0x98(%rbp),%rdx
  4013e5:	48 8b 45 c8          	mov    -0x38(%rbp),%rax
  4013e9:	48 83 e8 01          	sub    $0x1,%rax
  4013ed:	48 01 d0             	add    %rdx,%rax
  4013f0:	c6 00 00             	movb   $0x0,(%rax)
  4013f3:	c6 45 ef 01          	movb   $0x1,-0x11(%rbp)
  4013f7:	48 c7 45 e0 00 00 00 	movq   $0x0,-0x20(%rbp)
  4013fe:	00 
  4013ff:	e9 d4 00 00 00       	jmp    4014d8 <main+0x242>
  401404:	48 8b 95 68 ff ff ff 	mov    -0x98(%rbp),%rdx
  40140b:	48 8b 45 e0          	mov    -0x20(%rbp),%rax
  40140f:	48 01 d0             	add    %rdx,%rax
  401412:	0f b6 00             	movzbl (%rax),%eax
  401415:	3c 71                	cmp    $0x71,%al
  401417:	75 19                	jne    401432 <main+0x19c>
  401419:	48 8b 85 68 ff ff ff 	mov    -0x98(%rbp),%rax
  401420:	48 89 c7             	mov    %rax,%rdi
  401423:	e8 d8 fc ff ff       	call   401100 <free@plt>
  401428:	b8 00 00 00 00       	mov    $0x0,%eax
  40142d:	e9 95 01 00 00       	jmp    4015c7 <main+0x331>
  401432:	48 8b 95 68 ff ff ff 	mov    -0x98(%rbp),%rdx
  401439:	48 8b 45 e0          	mov    -0x20(%rbp),%rax
  40143d:	48 01 d0             	add    %rdx,%rax
  401440:	0f b6 00             	movzbl (%rax),%eax
  401443:	3c 75                	cmp    $0x75,%al
  401445:	75 32                	jne    401479 <main+0x1e3>
  401447:	48 8b 45 d0          	mov    -0x30(%rbp),%rax
  40144b:	48 8b 8d 70 ff ff ff 	mov    -0x90(%rbp),%rcx
  401452:	48 8b 9d 78 ff ff ff 	mov    -0x88(%rbp),%rbx
  401459:	48 89 08             	mov    %rcx,(%rax)
  40145c:	48 89 58 08          	mov    %rbx,0x8(%rax)
  401460:	48 8b 4d 80          	mov    -0x80(%rbp),%rcx
  401464:	48 8b 5d 88          	mov    -0x78(%rbp),%rbx
  401468:	48 89 48 10          	mov    %rcx,0x10(%rax)
  40146c:	48 89 58 18          	mov    %rbx,0x18(%rax)
  401470:	0f b6 55 90          	movzbl -0x70(%rbp),%edx
  401474:	88 50 20             	mov    %dl,0x20(%rax)
  401477:	eb 78                	jmp    4014f1 <main+0x25b>
  401479:	48 8b 95 68 ff ff ff 	mov    -0x98(%rbp),%rdx
  401480:	48 8b 45 e0          	mov    -0x20(%rbp),%rax
  401484:	48 01 d0             	add    %rdx,%rax
  401487:	0f b6 00             	movzbl (%rax),%eax
  40148a:	3c 77                	cmp    $0x77,%al
  40148c:	74 45                	je     4014d3 <main+0x23d>
  40148e:	48 8b 95 68 ff ff ff 	mov    -0x98(%rbp),%rdx
  401495:	48 8b 45 e0          	mov    -0x20(%rbp),%rax
  401499:	48 01 d0             	add    %rdx,%rax
  40149c:	0f b6 00             	movzbl (%rax),%eax
  40149f:	3c 61                	cmp    $0x61,%al
  4014a1:	74 30                	je     4014d3 <main+0x23d>
  4014a3:	48 8b 95 68 ff ff ff 	mov    -0x98(%rbp),%rdx
  4014aa:	48 8b 45 e0          	mov    -0x20(%rbp),%rax
  4014ae:	48 01 d0             	add    %rdx,%rax
  4014b1:	0f b6 00             	movzbl (%rax),%eax
  4014b4:	3c 73                	cmp    $0x73,%al
  4014b6:	74 1b                	je     4014d3 <main+0x23d>
  4014b8:	48 8b 95 68 ff ff ff 	mov    -0x98(%rbp),%rdx
  4014bf:	48 8b 45 e0          	mov    -0x20(%rbp),%rax
  4014c3:	48 01 d0             	add    %rdx,%rax
  4014c6:	0f b6 00             	movzbl (%rax),%eax
  4014c9:	3c 64                	cmp    $0x64,%al
  4014cb:	74 06                	je     4014d3 <main+0x23d>
  4014cd:	c6 45 ef 00          	movb   $0x0,-0x11(%rbp)
  4014d1:	eb 1e                	jmp    4014f1 <main+0x25b>
  4014d3:	48 83 45 e0 01       	addq   $0x1,-0x20(%rbp)
  4014d8:	48 8b 95 68 ff ff ff 	mov    -0x98(%rbp),%rdx
  4014df:	48 8b 45 e0          	mov    -0x20(%rbp),%rax
  4014e3:	48 01 d0             	add    %rdx,%rax
  4014e6:	0f b6 00             	movzbl (%rax),%eax
  4014e9:	84 c0                	test   %al,%al
  4014eb:	0f 85 13 ff ff ff    	jne    401404 <main+0x16e>
  4014f1:	80 7d ef 00          	cmpb   $0x0,-0x11(%rbp)
  4014f5:	74 78                	je     40156f <main+0x2d9>
  4014f7:	48 8b 45 a0          	mov    -0x60(%rbp),%rax
  4014fb:	48 8b 55 a8          	mov    -0x58(%rbp),%rdx
  4014ff:	48 89 85 70 ff ff ff 	mov    %rax,-0x90(%rbp)
  401506:	48 89 95 78 ff ff ff 	mov    %rdx,-0x88(%rbp)
  40150d:	48 8b 45 b0          	mov    -0x50(%rbp),%rax
  401511:	48 8b 55 b8          	mov    -0x48(%rbp),%rdx
  401515:	48 89 45 80          	mov    %rax,-0x80(%rbp)
  401519:	48 89 55 88          	mov    %rdx,-0x78(%rbp)
  40151d:	0f b6 45 c0          	movzbl -0x40(%rbp),%eax
  401521:	88 45 90             	mov    %al,-0x70(%rbp)
  401524:	48 c7 45 d8 00 00 00 	movq   $0x0,-0x28(%rbp)
  40152b:	00 
  40152c:	eb 27                	jmp    401555 <main+0x2bf>
  40152e:	48 8b 95 68 ff ff ff 	mov    -0x98(%rbp),%rdx
  401535:	48 8b 45 d8          	mov    -0x28(%rbp),%rax
  401539:	48 01 d0             	add    %rdx,%rax
  40153c:	0f b6 00             	movzbl (%rax),%eax
  40153f:	0f be d0             	movsbl %al,%edx
  401542:	48 8b 45 d0          	mov    -0x30(%rbp),%rax
  401546:	89 d6                	mov    %edx,%esi
  401548:	48 89 c7             	mov    %rax,%rdi
  40154b:	e8 18 05 00 00       	call   401a68 <_ZN8Game20484moveEc>
  401550:	48 83 45 d8 01       	addq   $0x1,-0x28(%rbp)
  401555:	48 8b 95 68 ff ff ff 	mov    -0x98(%rbp),%rdx
  40155c:	48 8b 45 d8          	mov    -0x28(%rbp),%rax
  401560:	48 01 d0             	add    %rdx,%rax
  401563:	0f b6 00             	movzbl (%rax),%eax
  401566:	84 c0                	test   %al,%al
  401568:	75 c4                	jne    40152e <main+0x298>
  40156a:	e9 b3 fd ff ff       	jmp    401322 <main+0x8c>
  40156f:	48 8b 85 68 ff ff ff 	mov    -0x98(%rbp),%rax
  401576:	0f b6 00             	movzbl (%rax),%eax
  401579:	3c 75                	cmp    $0x75,%al
  40157b:	0f 84 a1 fd ff ff    	je     401322 <main+0x8c>
  401581:	48 8b 85 68 ff ff ff 	mov    -0x98(%rbp),%rax
  401588:	48 89 c6             	mov    %rax,%rsi
  40158b:	bf d0 40 40 00       	mov    $0x4040d0,%edi
  401590:	b8 00 00 00 00       	mov    $0x0,%eax
  401595:	e8 a6 fa ff ff       	call   401040 <printf@plt>
  40159a:	48 8b 85 68 ff ff ff 	mov    -0x98(%rbp),%rax
  4015a1:	48 89 c7             	mov    %rax,%rdi
  4015a4:	b8 00 00 00 00       	mov    $0x0,%eax
  4015a9:	e8 92 fa ff ff       	call   401040 <printf@plt>
  4015ae:	e9 6f fd ff ff       	jmp    401322 <main+0x8c>
  4015b3:	48 8b 85 68 ff ff ff 	mov    -0x98(%rbp),%rax
  4015ba:	48 89 c7             	mov    %rax,%rdi
  4015bd:	e8 3e fb ff ff       	call   401100 <free@plt>
  4015c2:	b8 00 00 00 00       	mov    $0x0,%eax
  4015c7:	48 8b 5d f8          	mov    -0x8(%rbp),%rbx
  4015cb:	c9                   	leave  
  4015cc:	c3                   	ret    

00000000004015cd <_Z41__static_initialization_and_destruction_0ii>:
  4015cd:	55                   	push   %rbp
  4015ce:	48 89 e5             	mov    %rsp,%rbp
  4015d1:	48 83 ec 10          	sub    $0x10,%rsp
  4015d5:	89 7d fc             	mov    %edi,-0x4(%rbp)
  4015d8:	89 75 f8             	mov    %esi,-0x8(%rbp)
  4015db:	83 7d fc 01          	cmpl   $0x1,-0x4(%rbp)
  4015df:	75 27                	jne    401608 <_Z41__static_initialization_and_destruction_0ii+0x3b>
  4015e1:	81 7d f8 ff ff 00 00 	cmpl   $0xffff,-0x8(%rbp)
  4015e8:	75 1e                	jne    401608 <_Z41__static_initialization_and_destruction_0ii+0x3b>
  4015ea:	bf e9 70 40 00       	mov    $0x4070e9,%edi
  4015ef:	e8 4c fb ff ff       	call   401140 <_ZNSt8ios_base4InitC1Ev@plt>
  4015f4:	ba 08 40 40 00       	mov    $0x404008,%edx
  4015f9:	be e9 70 40 00       	mov    $0x4070e9,%esi
  4015fe:	bf a0 11 40 00       	mov    $0x4011a0,%edi
  401603:	e8 a8 fa ff ff       	call   4010b0 <__cxa_atexit@plt>
  401608:	90                   	nop
  401609:	c9                   	leave  
  40160a:	c3                   	ret    

000000000040160b <_GLOBAL__sub_I_FLAG>:
  40160b:	55                   	push   %rbp
  40160c:	48 89 e5             	mov    %rsp,%rbp
  40160f:	be ff ff 00 00       	mov    $0xffff,%esi
  401614:	bf 01 00 00 00       	mov    $0x1,%edi
  401619:	e8 af ff ff ff       	call   4015cd <_Z41__static_initialization_and_destruction_0ii>
  40161e:	5d                   	pop    %rbp
  40161f:	c3                   	ret    

0000000000401620 <_ZnwmPv>:
  401620:	55                   	push   %rbp
  401621:	48 89 e5             	mov    %rsp,%rbp
  401624:	48 89 7d f8          	mov    %rdi,-0x8(%rbp)
  401628:	48 89 75 f0          	mov    %rsi,-0x10(%rbp)
  40162c:	48 8b 45 f0          	mov    -0x10(%rbp),%rax
  401630:	5d                   	pop    %rbp
  401631:	c3                   	ret    

0000000000401632 <_ZN11Signed12BitC1Ev>:
  401632:	55                   	push   %rbp
  401633:	48 89 e5             	mov    %rsp,%rbp
  401636:	48 89 7d f8          	mov    %rdi,-0x8(%rbp)
  40163a:	48 8b 45 f8          	mov    -0x8(%rbp),%rax
  40163e:	66 c7 00 00 00       	movw   $0x0,(%rax)
  401643:	90                   	nop
  401644:	5d                   	pop    %rbp
  401645:	c3                   	ret    

0000000000401646 <_ZN11Signed12Bit8setValueEi>:
  401646:	55                   	push   %rbp
  401647:	48 89 e5             	mov    %rsp,%rbp
  40164a:	48 89 7d f8          	mov    %rdi,-0x8(%rbp)
  40164e:	89 75 f4             	mov    %esi,-0xc(%rbp)
  401651:	81 65 f4 ff 0f 00 00 	andl   $0xfff,-0xc(%rbp)
  401658:	8b 45 f4             	mov    -0xc(%rbp),%eax
  40165b:	25 00 08 00 00       	and    $0x800,%eax
  401660:	85 c0                	test   %eax,%eax
  401662:	74 07                	je     40166b <_ZN11Signed12Bit8setValueEi+0x25>
  401664:	81 4d f4 00 f0 ff ff 	orl    $0xfffff000,-0xc(%rbp)
  40166b:	8b 45 f4             	mov    -0xc(%rbp),%eax
  40166e:	89 c2                	mov    %eax,%edx
  401670:	48 8b 45 f8          	mov    -0x8(%rbp),%rax
  401674:	66 89 10             	mov    %dx,(%rax)
  401677:	90                   	nop
  401678:	5d                   	pop    %rbp
  401679:	c3                   	ret    

000000000040167a <_ZNK11Signed12Bit8getValueEv>:
  40167a:	55                   	push   %rbp
  40167b:	48 89 e5             	mov    %rsp,%rbp
  40167e:	48 89 7d f8          	mov    %rdi,-0x8(%rbp)
  401682:	48 8b 45 f8          	mov    -0x8(%rbp),%rax
  401686:	0f b7 00             	movzwl (%rax),%eax
  401689:	98                   	cwtl   
  40168a:	5d                   	pop    %rbp
  40168b:	c3                   	ret    

000000000040168c <_ZN11Signed12BitaSEi>:
  40168c:	55                   	push   %rbp
  40168d:	48 89 e5             	mov    %rsp,%rbp
  401690:	48 83 ec 10          	sub    $0x10,%rsp
  401694:	48 89 7d f8          	mov    %rdi,-0x8(%rbp)
  401698:	89 75 f4             	mov    %esi,-0xc(%rbp)
  40169b:	8b 55 f4             	mov    -0xc(%rbp),%edx
  40169e:	48 8b 45 f8          	mov    -0x8(%rbp),%rax
  4016a2:	89 d6                	mov    %edx,%esi
  4016a4:	48 89 c7             	mov    %rax,%rdi
  4016a7:	e8 9a ff ff ff       	call   401646 <_ZN11Signed12Bit8setValueEi>
  4016ac:	48 8b 45 f8          	mov    -0x8(%rbp),%rax
  4016b0:	c9                   	leave  
  4016b1:	c3                   	ret    

00000000004016b2 <_ZN11Signed12BitpLERKS_>:
  4016b2:	55                   	push   %rbp
  4016b3:	48 89 e5             	mov    %rsp,%rbp
  4016b6:	48 83 ec 10          	sub    $0x10,%rsp
  4016ba:	48 89 7d f8          	mov    %rdi,-0x8(%rbp)
  4016be:	48 89 75 f0          	mov    %rsi,-0x10(%rbp)
  4016c2:	48 8b 45 f8          	mov    -0x8(%rbp),%rax
  4016c6:	0f b7 00             	movzwl (%rax),%eax
  4016c9:	0f bf d0             	movswl %ax,%edx
  4016cc:	48 8b 45 f0          	mov    -0x10(%rbp),%rax
  4016d0:	0f b7 00             	movzwl (%rax),%eax
  4016d3:	98                   	cwtl   
  4016d4:	01 c2                	add    %eax,%edx
  4016d6:	48 8b 45 f8          	mov    -0x8(%rbp),%rax
  4016da:	89 d6                	mov    %edx,%esi
  4016dc:	48 89 c7             	mov    %rax,%rdi
  4016df:	e8 62 ff ff ff       	call   401646 <_ZN11Signed12Bit8setValueEi>
  4016e4:	48 8b 45 f8          	mov    -0x8(%rbp),%rax
  4016e8:	c9                   	leave  
  4016e9:	c3                   	ret    

00000000004016ea <_ZN8Game2048C1Ev>:
  4016ea:	55                   	push   %rbp
  4016eb:	48 89 e5             	mov    %rsp,%rbp
  4016ee:	41 56                	push   %r14
  4016f0:	41 55                	push   %r13
  4016f2:	41 54                	push   %r12
  4016f4:	53                   	push   %rbx
  4016f5:	48 83 ec 10          	sub    $0x10,%rsp
  4016f9:	48 89 7d d8          	mov    %rdi,-0x28(%rbp)
  4016fd:	48 8b 45 d8          	mov    -0x28(%rbp),%rax
  401701:	bb 03 00 00 00       	mov    $0x3,%ebx
  401706:	49 89 c5             	mov    %rax,%r13
  401709:	eb 28                	jmp    401733 <_ZN8Game2048C1Ev+0x49>
  40170b:	4d 89 ee             	mov    %r13,%r14
  40170e:	41 bc 03 00 00 00    	mov    $0x3,%r12d
  401714:	eb 10                	jmp    401726 <_ZN8Game2048C1Ev+0x3c>
  401716:	4c 89 f7             	mov    %r14,%rdi
  401719:	e8 14 ff ff ff       	call   401632 <_ZN11Signed12BitC1Ev>
  40171e:	49 83 c6 02          	add    $0x2,%r14
  401722:	49 83 ec 01          	sub    $0x1,%r12
  401726:	4d 85 e4             	test   %r12,%r12
  401729:	79 eb                	jns    401716 <_ZN8Game2048C1Ev+0x2c>
  40172b:	49 83 c5 08          	add    $0x8,%r13
  40172f:	48 83 eb 01          	sub    $0x1,%rbx
  401733:	48 85 db             	test   %rbx,%rbx
  401736:	79 d3                	jns    40170b <_ZN8Game2048C1Ev+0x21>
  401738:	bf 00 00 00 00       	mov    $0x0,%edi
  40173d:	e8 7e f9 ff ff       	call   4010c0 <time@plt>
  401742:	89 c7                	mov    %eax,%edi
  401744:	e8 97 f9 ff ff       	call   4010e0 <srand@plt>
  401749:	48 8b 45 d8          	mov    -0x28(%rbp),%rax
  40174d:	48 89 c7             	mov    %rax,%rdi
  401750:	e8 0f 00 00 00       	call   401764 <_ZN8Game204810resetBoardEv>
  401755:	90                   	nop
  401756:	48 83 c4 10          	add    $0x10,%rsp
  40175a:	5b                   	pop    %rbx
  40175b:	41 5c                	pop    %r12
  40175d:	41 5d                	pop    %r13
  40175f:	41 5e                	pop    %r14
  401761:	5d                   	pop    %rbp
  401762:	c3                   	ret    
  401763:	90                   	nop

0000000000401764 <_ZN8Game204810resetBoardEv>:
  401764:	55                   	push   %rbp
  401765:	48 89 e5             	mov    %rsp,%rbp
  401768:	48 83 ec 20          	sub    $0x20,%rsp
  40176c:	48 89 7d e8          	mov    %rdi,-0x18(%rbp)
  401770:	c7 45 fc 00 00 00 00 	movl   $0x0,-0x4(%rbp)
  401777:	eb 41                	jmp    4017ba <_ZN8Game204810resetBoardEv+0x56>
  401779:	c7 45 f8 00 00 00 00 	movl   $0x0,-0x8(%rbp)
  401780:	eb 2e                	jmp    4017b0 <_ZN8Game204810resetBoardEv+0x4c>
  401782:	8b 45 f8             	mov    -0x8(%rbp),%eax
  401785:	48 63 d0             	movslq %eax,%rdx
  401788:	8b 45 fc             	mov    -0x4(%rbp),%eax
  40178b:	48 98                	cltq   
  40178d:	48 c1 e0 02          	shl    $0x2,%rax
  401791:	48 01 d0             	add    %rdx,%rax
  401794:	48 8d 14 00          	lea    (%rax,%rax,1),%rdx
  401798:	48 8b 45 e8          	mov    -0x18(%rbp),%rax
  40179c:	48 01 d0             	add    %rdx,%rax
  40179f:	be 00 00 00 00       	mov    $0x0,%esi
  4017a4:	48 89 c7             	mov    %rax,%rdi
  4017a7:	e8 e0 fe ff ff       	call   40168c <_ZN11Signed12BitaSEi>
  4017ac:	83 45 f8 01          	addl   $0x1,-0x8(%rbp)
  4017b0:	83 7d f8 03          	cmpl   $0x3,-0x8(%rbp)
  4017b4:	7e cc                	jle    401782 <_ZN8Game204810resetBoardEv+0x1e>
  4017b6:	83 45 fc 01          	addl   $0x1,-0x4(%rbp)
  4017ba:	83 7d fc 03          	cmpl   $0x3,-0x4(%rbp)
  4017be:	7e b9                	jle    401779 <_ZN8Game204810resetBoardEv+0x15>
  4017c0:	48 8b 45 e8          	mov    -0x18(%rbp),%rax
  4017c4:	48 89 c7             	mov    %rax,%rdi
  4017c7:	e8 ee 00 00 00       	call   4018ba <_ZN8Game204813addRandomTileEv>
  4017cc:	48 8b 45 e8          	mov    -0x18(%rbp),%rax
  4017d0:	48 89 c7             	mov    %rax,%rdi
  4017d3:	e8 e2 00 00 00       	call   4018ba <_ZN8Game204813addRandomTileEv>
  4017d8:	90                   	nop
  4017d9:	c9                   	leave  
  4017da:	c3                   	ret    
  4017db:	90                   	nop

00000000004017dc <_ZNK8Game204810printBoardEv>:
  4017dc:	55                   	push   %rbp
  4017dd:	48 89 e5             	mov    %rsp,%rbp
  4017e0:	48 83 ec 20          	sub    $0x20,%rsp
  4017e4:	48 89 7d e8          	mov    %rdi,-0x18(%rbp)
  4017e8:	bf 0a 00 00 00       	mov    $0xa,%edi
  4017ed:	e8 2e f9 ff ff       	call   401120 <putchar@plt>
  4017f2:	c7 45 fc 00 00 00 00 	movl   $0x0,-0x4(%rbp)
  4017f9:	eb 57                	jmp    401852 <_ZNK8Game204810printBoardEv+0x76>
  4017fb:	c7 45 f8 00 00 00 00 	movl   $0x0,-0x8(%rbp)
  401802:	eb 3a                	jmp    40183e <_ZNK8Game204810printBoardEv+0x62>
  401804:	8b 45 f8             	mov    -0x8(%rbp),%eax
  401807:	48 63 d0             	movslq %eax,%rdx
  40180a:	8b 45 fc             	mov    -0x4(%rbp),%eax
  40180d:	48 98                	cltq   
  40180f:	48 c1 e0 02          	shl    $0x2,%rax
  401813:	48 01 d0             	add    %rdx,%rax
  401816:	48 8d 14 00          	lea    (%rax,%rax,1),%rdx
  40181a:	48 8b 45 e8          	mov    -0x18(%rbp),%rax
  40181e:	48 01 d0             	add    %rdx,%rax
  401821:	48 89 c7             	mov    %rax,%rdi
  401824:	e8 51 fe ff ff       	call   40167a <_ZNK11Signed12Bit8getValueEv>
  401829:	89 c6                	mov    %eax,%esi
  40182b:	bf 25 40 40 00       	mov    $0x404025,%edi
  401830:	b8 00 00 00 00       	mov    $0x0,%eax
  401835:	e8 06 f8 ff ff       	call   401040 <printf@plt>
  40183a:	83 45 f8 01          	addl   $0x1,-0x8(%rbp)
  40183e:	83 7d f8 03          	cmpl   $0x3,-0x8(%rbp)
  401842:	7e c0                	jle    401804 <_ZNK8Game204810printBoardEv+0x28>
  401844:	bf 0a 00 00 00       	mov    $0xa,%edi
  401849:	e8 d2 f8 ff ff       	call   401120 <putchar@plt>
  40184e:	83 45 fc 01          	addl   $0x1,-0x4(%rbp)
  401852:	83 7d fc 03          	cmpl   $0x3,-0x4(%rbp)
  401856:	7e a3                	jle    4017fb <_ZNK8Game204810printBoardEv+0x1f>
  401858:	bf 0a 00 00 00       	mov    $0xa,%edi
  40185d:	e8 be f8 ff ff       	call   401120 <putchar@plt>
  401862:	90                   	nop
  401863:	c9                   	leave  
  401864:	c3                   	ret    
  401865:	90                   	nop

0000000000401866 <_ZNSt12_Vector_baseISt4pairIiiESaIS1_EE12_Vector_implD1Ev>:
  401866:	55                   	push   %rbp
  401867:	48 89 e5             	mov    %rsp,%rbp
  40186a:	48 83 ec 10          	sub    $0x10,%rsp
  40186e:	48 89 7d f8          	mov    %rdi,-0x8(%rbp)
  401872:	48 8b 45 f8          	mov    -0x8(%rbp),%rax
  401876:	48 89 c7             	mov    %rax,%rdi
  401879:	e8 f4 0c 00 00       	call   402572 <_ZNSaISt4pairIiiEED1Ev>
  40187e:	90                   	nop
  40187f:	c9                   	leave  
  401880:	c3                   	ret    
  401881:	90                   	nop

0000000000401882 <_ZNSt12_Vector_baseISt4pairIiiESaIS1_EEC1Ev>:
  401882:	55                   	push   %rbp
  401883:	48 89 e5             	mov    %rsp,%rbp
  401886:	48 83 ec 10          	sub    $0x10,%rsp
  40188a:	48 89 7d f8          	mov    %rdi,-0x8(%rbp)
  40188e:	48 8b 45 f8          	mov    -0x8(%rbp),%rax
  401892:	48 89 c7             	mov    %rax,%rdi
  401895:	e8 b0 0c 00 00       	call   40254a <_ZNSt12_Vector_baseISt4pairIiiESaIS1_EE12_Vector_implC1Ev>
  40189a:	90                   	nop
  40189b:	c9                   	leave  
  40189c:	c3                   	ret    
  40189d:	90                   	nop

000000000040189e <_ZNSt6vectorISt4pairIiiESaIS1_EEC1Ev>:
  40189e:	55                   	push   %rbp
  40189f:	48 89 e5             	mov    %rsp,%rbp
  4018a2:	48 83 ec 10          	sub    $0x10,%rsp
  4018a6:	48 89 7d f8          	mov    %rdi,-0x8(%rbp)
  4018aa:	48 8b 45 f8          	mov    -0x8(%rbp),%rax
  4018ae:	48 89 c7             	mov    %rax,%rdi
  4018b1:	e8 cc ff ff ff       	call   401882 <_ZNSt12_Vector_baseISt4pairIiiESaIS1_EEC1Ev>
  4018b6:	90                   	nop
  4018b7:	c9                   	leave  
  4018b8:	c3                   	ret    
  4018b9:	90                   	nop

00000000004018ba <_ZN8Game204813addRandomTileEv>:
  4018ba:	55                   	push   %rbp
  4018bb:	48 89 e5             	mov    %rsp,%rbp
  4018be:	53                   	push   %rbx
  4018bf:	48 83 ec 58          	sub    $0x58,%rsp
  4018c3:	48 89 7d a8          	mov    %rdi,-0x58(%rbp)
  4018c7:	48 8d 45 c0          	lea    -0x40(%rbp),%rax
  4018cb:	48 89 c7             	mov    %rax,%rdi
  4018ce:	e8 cb ff ff ff       	call   40189e <_ZNSt6vectorISt4pairIiiESaIS1_EEC1Ev>
  4018d3:	c7 45 bc 00 00 00 00 	movl   $0x0,-0x44(%rbp)
  4018da:	eb 7b                	jmp    401957 <_ZN8Game204813addRandomTileEv+0x9d>
  4018dc:	c7 45 b8 00 00 00 00 	movl   $0x0,-0x48(%rbp)
  4018e3:	eb 61                	jmp    401946 <_ZN8Game204813addRandomTileEv+0x8c>
  4018e5:	8b 45 bc             	mov    -0x44(%rbp),%eax
  4018e8:	8b 55 b8             	mov    -0x48(%rbp),%edx
  4018eb:	48 63 d2             	movslq %edx,%rdx
  4018ee:	48 98                	cltq   
  4018f0:	48 c1 e0 02          	shl    $0x2,%rax
  4018f4:	48 01 d0             	add    %rdx,%rax
  4018f7:	48 8d 14 00          	lea    (%rax,%rax,1),%rdx
  4018fb:	48 8b 45 a8          	mov    -0x58(%rbp),%rax
  4018ff:	48 01 d0             	add    %rdx,%rax
  401902:	48 89 c7             	mov    %rax,%rdi
  401905:	e8 70 fd ff ff       	call   40167a <_ZNK11Signed12Bit8getValueEv>
  40190a:	85 c0                	test   %eax,%eax
  40190c:	0f 94 c0             	sete   %al
  40190f:	84 c0                	test   %al,%al
  401911:	74 2a                	je     40193d <_ZN8Game204813addRandomTileEv+0x83>
  401913:	48 8d 55 b8          	lea    -0x48(%rbp),%rdx
  401917:	48 8d 4d bc          	lea    -0x44(%rbp),%rcx
  40191b:	48 8d 45 e0          	lea    -0x20(%rbp),%rax
  40191f:	48 89 ce             	mov    %rcx,%rsi
  401922:	48 89 c7             	mov    %rax,%rdi
  401925:	e8 f6 0c 00 00       	call   402620 <_ZNSt4pairIiiEC1IRiS2_Lb1EEEOT_OT0_>
  40192a:	48 8d 55 e0          	lea    -0x20(%rbp),%rdx
  40192e:	48 8d 45 c0          	lea    -0x40(%rbp),%rax
  401932:	48 89 d6             	mov    %rdx,%rsi
  401935:	48 89 c7             	mov    %rax,%rdi
  401938:	e8 23 0d 00 00       	call   402660 <_ZNSt6vectorISt4pairIiiESaIS1_EE9push_backEOS1_>
  40193d:	8b 45 b8             	mov    -0x48(%rbp),%eax
  401940:	83 c0 01             	add    $0x1,%eax
  401943:	89 45 b8             	mov    %eax,-0x48(%rbp)
  401946:	8b 45 b8             	mov    -0x48(%rbp),%eax
  401949:	83 f8 03             	cmp    $0x3,%eax
  40194c:	7e 97                	jle    4018e5 <_ZN8Game204813addRandomTileEv+0x2b>
  40194e:	8b 45 bc             	mov    -0x44(%rbp),%eax
  401951:	83 c0 01             	add    $0x1,%eax
  401954:	89 45 bc             	mov    %eax,-0x44(%rbp)
  401957:	8b 45 bc             	mov    -0x44(%rbp),%eax
  40195a:	83 f8 03             	cmp    $0x3,%eax
  40195d:	0f 8e 79 ff ff ff    	jle    4018dc <_ZN8Game204813addRandomTileEv+0x22>
  401963:	48 8d 45 c0          	lea    -0x40(%rbp),%rax
  401967:	48 89 c7             	mov    %rax,%rdi
  40196a:	e8 23 0d 00 00       	call   402692 <_ZNKSt6vectorISt4pairIiiESaIS1_EE5emptyEv>
  40196f:	83 f0 01             	xor    $0x1,%eax
  401972:	84 c0                	test   %al,%al
  401974:	0f 84 c0 00 00 00    	je     401a3a <_ZN8Game204813addRandomTileEv+0x180>
  40197a:	e8 d1 f6 ff ff       	call   401050 <rand@plt>
  40197f:	48 63 d8             	movslq %eax,%rbx
  401982:	48 8d 45 c0          	lea    -0x40(%rbp),%rax
  401986:	48 89 c7             	mov    %rax,%rdi
  401989:	e8 46 0d 00 00       	call   4026d4 <_ZNKSt6vectorISt4pairIiiESaIS1_EE4sizeEv>
  40198e:	48 89 c6             	mov    %rax,%rsi
  401991:	48 89 d8             	mov    %rbx,%rax
  401994:	ba 00 00 00 00       	mov    $0x0,%edx
  401999:	48 f7 f6             	div    %rsi
  40199c:	48 89 d1             	mov    %rdx,%rcx
  40199f:	48 89 c8             	mov    %rcx,%rax
  4019a2:	89 45 ec             	mov    %eax,-0x14(%rbp)
  4019a5:	e8 a6 f6 ff ff       	call   401050 <rand@plt>
  4019aa:	89 c1                	mov    %eax,%ecx
  4019ac:	48 63 c1             	movslq %ecx,%rax
  4019af:	48 69 c0 67 66 66 66 	imul   $0x66666667,%rax,%rax
  4019b6:	48 c1 e8 20          	shr    $0x20,%rax
  4019ba:	c1 f8 02             	sar    $0x2,%eax
  4019bd:	89 ce                	mov    %ecx,%esi
  4019bf:	c1 fe 1f             	sar    $0x1f,%esi
  4019c2:	29 f0                	sub    %esi,%eax
  4019c4:	89 c2                	mov    %eax,%edx
  4019c6:	89 d0                	mov    %edx,%eax
  4019c8:	c1 e0 02             	shl    $0x2,%eax
  4019cb:	01 d0                	add    %edx,%eax
  4019cd:	01 c0                	add    %eax,%eax
  4019cf:	29 c1                	sub    %eax,%ecx
  4019d1:	89 ca                	mov    %ecx,%edx
  4019d3:	85 d2                	test   %edx,%edx
  4019d5:	75 07                	jne    4019de <_ZN8Game204813addRandomTileEv+0x124>
  4019d7:	b8 04 00 00 00       	mov    $0x4,%eax
  4019dc:	eb 05                	jmp    4019e3 <_ZN8Game204813addRandomTileEv+0x129>
  4019de:	b8 02 00 00 00       	mov    $0x2,%eax
  4019e3:	89 45 e8             	mov    %eax,-0x18(%rbp)
  4019e6:	8b 45 ec             	mov    -0x14(%rbp),%eax
  4019e9:	48 63 d0             	movslq %eax,%rdx
  4019ec:	48 8d 45 c0          	lea    -0x40(%rbp),%rax
  4019f0:	48 89 d6             	mov    %rdx,%rsi
  4019f3:	48 89 c7             	mov    %rax,%rdi
  4019f6:	e8 fd 0c 00 00       	call   4026f8 <_ZNSt6vectorISt4pairIiiESaIS1_EEixEm>
  4019fb:	8b 18                	mov    (%rax),%ebx
  4019fd:	8b 45 ec             	mov    -0x14(%rbp),%eax
  401a00:	48 63 d0             	movslq %eax,%rdx
  401a03:	48 8d 45 c0          	lea    -0x40(%rbp),%rax
  401a07:	48 89 d6             	mov    %rdx,%rsi
  401a0a:	48 89 c7             	mov    %rax,%rdi
  401a0d:	e8 e6 0c 00 00       	call   4026f8 <_ZNSt6vectorISt4pairIiiESaIS1_EEixEm>
  401a12:	8b 40 04             	mov    0x4(%rax),%eax
  401a15:	48 63 d0             	movslq %eax,%rdx
  401a18:	48 63 c3             	movslq %ebx,%rax
  401a1b:	48 c1 e0 02          	shl    $0x2,%rax
  401a1f:	48 01 d0             	add    %rdx,%rax
  401a22:	48 8d 14 00          	lea    (%rax,%rax,1),%rdx
  401a26:	48 8b 45 a8          	mov    -0x58(%rbp),%rax
  401a2a:	48 01 c2             	add    %rax,%rdx
  401a2d:	8b 45 e8             	mov    -0x18(%rbp),%eax
  401a30:	89 c6                	mov    %eax,%esi
  401a32:	48 89 d7             	mov    %rdx,%rdi
  401a35:	e8 52 fc ff ff       	call   40168c <_ZN11Signed12BitaSEi>
  401a3a:	48 8d 45 c0          	lea    -0x40(%rbp),%rax
  401a3e:	48 89 c7             	mov    %rax,%rdi
  401a41:	e8 96 0b 00 00       	call   4025dc <_ZNSt6vectorISt4pairIiiESaIS1_EED1Ev>
  401a46:	eb 1a                	jmp    401a62 <_ZN8Game204813addRandomTileEv+0x1a8>
  401a48:	48 89 c3             	mov    %rax,%rbx
  401a4b:	48 8d 45 c0          	lea    -0x40(%rbp),%rax
  401a4f:	48 89 c7             	mov    %rax,%rdi
  401a52:	e8 85 0b 00 00       	call   4025dc <_ZNSt6vectorISt4pairIiiESaIS1_EED1Ev>
  401a57:	48 89 d8             	mov    %rbx,%rax
  401a5a:	48 89 c7             	mov    %rax,%rdi
  401a5d:	e8 1e f7 ff ff       	call   401180 <_Unwind_Resume@plt>
  401a62:	48 8b 5d f8          	mov    -0x8(%rbp),%rbx
  401a66:	c9                   	leave  
  401a67:	c3                   	ret    

0000000000401a68 <_ZN8Game20484moveEc>:
  401a68:	55                   	push   %rbp
  401a69:	48 89 e5             	mov    %rsp,%rbp
  401a6c:	48 83 ec 10          	sub    $0x10,%rsp
  401a70:	48 89 7d f8          	mov    %rdi,-0x8(%rbp)
  401a74:	89 f0                	mov    %esi,%eax
  401a76:	88 45 f4             	mov    %al,-0xc(%rbp)
  401a79:	48 8b 45 f8          	mov    -0x8(%rbp),%rax
  401a7d:	c6 40 20 00          	movb   $0x0,0x20(%rax)
  401a81:	0f be 45 f4          	movsbl -0xc(%rbp),%eax
  401a85:	83 f8 77             	cmp    $0x77,%eax
  401a88:	74 1b                	je     401aa5 <_ZN8Game20484moveEc+0x3d>
  401a8a:	83 f8 77             	cmp    $0x77,%eax
  401a8d:	7f 4d                	jg     401adc <_ZN8Game20484moveEc+0x74>
  401a8f:	83 f8 73             	cmp    $0x73,%eax
  401a92:	74 1f                	je     401ab3 <_ZN8Game20484moveEc+0x4b>
  401a94:	83 f8 73             	cmp    $0x73,%eax
  401a97:	7f 43                	jg     401adc <_ZN8Game20484moveEc+0x74>
  401a99:	83 f8 61             	cmp    $0x61,%eax
  401a9c:	74 23                	je     401ac1 <_ZN8Game20484moveEc+0x59>
  401a9e:	83 f8 64             	cmp    $0x64,%eax
  401aa1:	74 2c                	je     401acf <_ZN8Game20484moveEc+0x67>
  401aa3:	eb 37                	jmp    401adc <_ZN8Game20484moveEc+0x74>
  401aa5:	48 8b 45 f8          	mov    -0x8(%rbp),%rax
  401aa9:	48 89 c7             	mov    %rax,%rdi
  401aac:	e8 21 02 00 00       	call   401cd2 <_ZN8Game20486moveUpEv>
  401ab1:	eb 29                	jmp    401adc <_ZN8Game20484moveEc+0x74>
  401ab3:	48 8b 45 f8          	mov    -0x8(%rbp),%rax
  401ab7:	48 89 c7             	mov    %rax,%rdi
  401aba:	e8 33 04 00 00       	call   401ef2 <_ZN8Game20488moveDownEv>
  401abf:	eb 1b                	jmp    401adc <_ZN8Game20484moveEc+0x74>
  401ac1:	48 8b 45 f8          	mov    -0x8(%rbp),%rax
  401ac5:	48 89 c7             	mov    %rax,%rdi
  401ac8:	e8 45 06 00 00       	call   402112 <_ZN8Game20488moveLeftEv>
  401acd:	eb 0d                	jmp    401adc <_ZN8Game20484moveEc+0x74>
  401acf:	48 8b 45 f8          	mov    -0x8(%rbp),%rax
  401ad3:	48 89 c7             	mov    %rax,%rdi
  401ad6:	e8 53 08 00 00       	call   40232e <_ZN8Game20489moveRightEv>
  401adb:	90                   	nop
  401adc:	48 8b 45 f8          	mov    -0x8(%rbp),%rax
  401ae0:	0f b6 40 20          	movzbl 0x20(%rax),%eax
  401ae4:	84 c0                	test   %al,%al
  401ae6:	74 0c                	je     401af4 <_ZN8Game20484moveEc+0x8c>
  401ae8:	48 8b 45 f8          	mov    -0x8(%rbp),%rax
  401aec:	48 89 c7             	mov    %rax,%rdi
  401aef:	e8 c6 fd ff ff       	call   4018ba <_ZN8Game204813addRandomTileEv>
  401af4:	90                   	nop
  401af5:	c9                   	leave  
  401af6:	c3                   	ret    
  401af7:	90                   	nop

0000000000401af8 <_ZNK8Game20487canMoveEv>:
  401af8:	55                   	push   %rbp
  401af9:	48 89 e5             	mov    %rsp,%rbp
  401afc:	53                   	push   %rbx
  401afd:	48 83 ec 28          	sub    $0x28,%rsp
  401b01:	48 89 7d d8          	mov    %rdi,-0x28(%rbp)
  401b05:	c7 45 ec 00 00 00 00 	movl   $0x0,-0x14(%rbp)
  401b0c:	e9 3a 01 00 00       	jmp    401c4b <_ZNK8Game20487canMoveEv+0x153>
  401b11:	c7 45 e8 00 00 00 00 	movl   $0x0,-0x18(%rbp)
  401b18:	e9 20 01 00 00       	jmp    401c3d <_ZNK8Game20487canMoveEv+0x145>
  401b1d:	8b 45 e8             	mov    -0x18(%rbp),%eax
  401b20:	48 63 d0             	movslq %eax,%rdx
  401b23:	8b 45 ec             	mov    -0x14(%rbp),%eax
  401b26:	48 98                	cltq   
  401b28:	48 c1 e0 02          	shl    $0x2,%rax
  401b2c:	48 01 d0             	add    %rdx,%rax
  401b2f:	48 8d 14 00          	lea    (%rax,%rax,1),%rdx
  401b33:	48 8b 45 d8          	mov    -0x28(%rbp),%rax
  401b37:	48 01 d0             	add    %rdx,%rax
  401b3a:	48 89 c7             	mov    %rax,%rdi
  401b3d:	e8 38 fb ff ff       	call   40167a <_ZNK11Signed12Bit8getValueEv>
  401b42:	85 c0                	test   %eax,%eax
  401b44:	0f 94 c0             	sete   %al
  401b47:	84 c0                	test   %al,%al
  401b49:	74 0a                	je     401b55 <_ZNK8Game20487canMoveEv+0x5d>
  401b4b:	b8 01 00 00 00       	mov    $0x1,%eax
  401b50:	e9 05 01 00 00       	jmp    401c5a <_ZNK8Game20487canMoveEv+0x162>
  401b55:	83 7d ec 02          	cmpl   $0x2,-0x14(%rbp)
  401b59:	7f 5b                	jg     401bb6 <_ZNK8Game20487canMoveEv+0xbe>
  401b5b:	8b 45 e8             	mov    -0x18(%rbp),%eax
  401b5e:	48 63 d0             	movslq %eax,%rdx
  401b61:	8b 45 ec             	mov    -0x14(%rbp),%eax
  401b64:	48 98                	cltq   
  401b66:	48 c1 e0 02          	shl    $0x2,%rax
  401b6a:	48 01 d0             	add    %rdx,%rax
  401b6d:	48 8d 14 00          	lea    (%rax,%rax,1),%rdx
  401b71:	48 8b 45 d8          	mov    -0x28(%rbp),%rax
  401b75:	48 01 d0             	add    %rdx,%rax
  401b78:	48 89 c7             	mov    %rax,%rdi
  401b7b:	e8 fa fa ff ff       	call   40167a <_ZNK11Signed12Bit8getValueEv>
  401b80:	89 c3                	mov    %eax,%ebx
  401b82:	8b 45 ec             	mov    -0x14(%rbp),%eax
  401b85:	8d 50 01             	lea    0x1(%rax),%edx
  401b88:	8b 45 e8             	mov    -0x18(%rbp),%eax
  401b8b:	48 63 c8             	movslq %eax,%rcx
  401b8e:	48 63 c2             	movslq %edx,%rax
  401b91:	48 c1 e0 02          	shl    $0x2,%rax
  401b95:	48 01 c8             	add    %rcx,%rax
  401b98:	48 8d 14 00          	lea    (%rax,%rax,1),%rdx
  401b9c:	48 8b 45 d8          	mov    -0x28(%rbp),%rax
  401ba0:	48 01 d0             	add    %rdx,%rax
  401ba3:	48 89 c7             	mov    %rax,%rdi
  401ba6:	e8 cf fa ff ff       	call   40167a <_ZNK11Signed12Bit8getValueEv>
  401bab:	39 c3                	cmp    %eax,%ebx
  401bad:	75 07                	jne    401bb6 <_ZNK8Game20487canMoveEv+0xbe>
  401baf:	b8 01 00 00 00       	mov    $0x1,%eax
  401bb4:	eb 05                	jmp    401bbb <_ZNK8Game20487canMoveEv+0xc3>
  401bb6:	b8 00 00 00 00       	mov    $0x0,%eax
  401bbb:	84 c0                	test   %al,%al
  401bbd:	74 0a                	je     401bc9 <_ZNK8Game20487canMoveEv+0xd1>
  401bbf:	b8 01 00 00 00       	mov    $0x1,%eax
  401bc4:	e9 91 00 00 00       	jmp    401c5a <_ZNK8Game20487canMoveEv+0x162>
  401bc9:	83 7d e8 02          	cmpl   $0x2,-0x18(%rbp)
  401bcd:	7f 5a                	jg     401c29 <_ZNK8Game20487canMoveEv+0x131>
  401bcf:	8b 45 e8             	mov    -0x18(%rbp),%eax
  401bd2:	48 63 d0             	movslq %eax,%rdx
  401bd5:	8b 45 ec             	mov    -0x14(%rbp),%eax
  401bd8:	48 98                	cltq   
  401bda:	48 c1 e0 02          	shl    $0x2,%rax
  401bde:	48 01 d0             	add    %rdx,%rax
  401be1:	48 8d 14 00          	lea    (%rax,%rax,1),%rdx
  401be5:	48 8b 45 d8          	mov    -0x28(%rbp),%rax
  401be9:	48 01 d0             	add    %rdx,%rax
  401bec:	48 89 c7             	mov    %rax,%rdi
  401bef:	e8 86 fa ff ff       	call   40167a <_ZNK11Signed12Bit8getValueEv>
  401bf4:	89 c3                	mov    %eax,%ebx
  401bf6:	8b 45 e8             	mov    -0x18(%rbp),%eax
  401bf9:	83 c0 01             	add    $0x1,%eax
  401bfc:	48 63 d0             	movslq %eax,%rdx
  401bff:	8b 45 ec             	mov    -0x14(%rbp),%eax
  401c02:	48 98                	cltq   
  401c04:	48 c1 e0 02          	shl    $0x2,%rax
  401c08:	48 01 d0             	add    %rdx,%rax
  401c0b:	48 8d 14 00          	lea    (%rax,%rax,1),%rdx
  401c0f:	48 8b 45 d8          	mov    -0x28(%rbp),%rax
  401c13:	48 01 d0             	add    %rdx,%rax
  401c16:	48 89 c7             	mov    %rax,%rdi
  401c19:	e8 5c fa ff ff       	call   40167a <_ZNK11Signed12Bit8getValueEv>
  401c1e:	39 c3                	cmp    %eax,%ebx
  401c20:	75 07                	jne    401c29 <_ZNK8Game20487canMoveEv+0x131>
  401c22:	b8 01 00 00 00       	mov    $0x1,%eax
  401c27:	eb 05                	jmp    401c2e <_ZNK8Game20487canMoveEv+0x136>
  401c29:	b8 00 00 00 00       	mov    $0x0,%eax
  401c2e:	84 c0                	test   %al,%al
  401c30:	74 07                	je     401c39 <_ZNK8Game20487canMoveEv+0x141>
  401c32:	b8 01 00 00 00       	mov    $0x1,%eax
  401c37:	eb 21                	jmp    401c5a <_ZNK8Game20487canMoveEv+0x162>
  401c39:	83 45 e8 01          	addl   $0x1,-0x18(%rbp)
  401c3d:	83 7d e8 03          	cmpl   $0x3,-0x18(%rbp)
  401c41:	0f 8e d6 fe ff ff    	jle    401b1d <_ZNK8Game20487canMoveEv+0x25>
  401c47:	83 45 ec 01          	addl   $0x1,-0x14(%rbp)
  401c4b:	83 7d ec 03          	cmpl   $0x3,-0x14(%rbp)
  401c4f:	0f 8e bc fe ff ff    	jle    401b11 <_ZNK8Game20487canMoveEv+0x19>
  401c55:	b8 00 00 00 00       	mov    $0x0,%eax
  401c5a:	48 8b 5d f8          	mov    -0x8(%rbp),%rbx
  401c5e:	c9                   	leave  
  401c5f:	c3                   	ret    

0000000000401c60 <_ZNK8Game20488checkWinEv>:
  401c60:	55                   	push   %rbp
  401c61:	48 89 e5             	mov    %rsp,%rbp
  401c64:	48 83 ec 20          	sub    $0x20,%rsp
  401c68:	48 89 7d e8          	mov    %rdi,-0x18(%rbp)
  401c6c:	c7 45 fc 00 00 00 00 	movl   $0x0,-0x4(%rbp)
  401c73:	eb 4f                	jmp    401cc4 <_ZNK8Game20488checkWinEv+0x64>
  401c75:	c7 45 f8 00 00 00 00 	movl   $0x0,-0x8(%rbp)
  401c7c:	eb 3c                	jmp    401cba <_ZNK8Game20488checkWinEv+0x5a>
  401c7e:	8b 45 f8             	mov    -0x8(%rbp),%eax
  401c81:	48 63 d0             	movslq %eax,%rdx
  401c84:	8b 45 fc             	mov    -0x4(%rbp),%eax
  401c87:	48 98                	cltq   
  401c89:	48 c1 e0 02          	shl    $0x2,%rax
  401c8d:	48 01 d0             	add    %rdx,%rax
  401c90:	48 8d 14 00          	lea    (%rax,%rax,1),%rdx
  401c94:	48 8b 45 e8          	mov    -0x18(%rbp),%rax
  401c98:	48 01 d0             	add    %rdx,%rax
  401c9b:	48 89 c7             	mov    %rax,%rdi
  401c9e:	e8 d7 f9 ff ff       	call   40167a <_ZNK11Signed12Bit8getValueEv>
  401ca3:	3d 00 08 00 00       	cmp    $0x800,%eax
  401ca8:	0f 94 c0             	sete   %al
  401cab:	84 c0                	test   %al,%al
  401cad:	74 07                	je     401cb6 <_ZNK8Game20488checkWinEv+0x56>
  401caf:	b8 01 00 00 00       	mov    $0x1,%eax
  401cb4:	eb 19                	jmp    401ccf <_ZNK8Game20488checkWinEv+0x6f>
  401cb6:	83 45 f8 01          	addl   $0x1,-0x8(%rbp)
  401cba:	83 7d f8 03          	cmpl   $0x3,-0x8(%rbp)
  401cbe:	7e be                	jle    401c7e <_ZNK8Game20488checkWinEv+0x1e>
  401cc0:	83 45 fc 01          	addl   $0x1,-0x4(%rbp)
  401cc4:	83 7d fc 03          	cmpl   $0x3,-0x4(%rbp)
  401cc8:	7e ab                	jle    401c75 <_ZNK8Game20488checkWinEv+0x15>
  401cca:	b8 00 00 00 00       	mov    $0x0,%eax
  401ccf:	c9                   	leave  
  401cd0:	c3                   	ret    
  401cd1:	90                   	nop

0000000000401cd2 <_ZN8Game20486moveUpEv>:
  401cd2:	55                   	push   %rbp
  401cd3:	48 89 e5             	mov    %rsp,%rbp
  401cd6:	53                   	push   %rbx
  401cd7:	48 83 ec 28          	sub    $0x28,%rsp
  401cdb:	48 89 7d d8          	mov    %rdi,-0x28(%rbp)
  401cdf:	c7 45 ec 00 00 00 00 	movl   $0x0,-0x14(%rbp)
  401ce6:	e9 f4 01 00 00       	jmp    401edf <_ZN8Game20486moveUpEv+0x20d>
  401ceb:	c7 45 e8 01 00 00 00 	movl   $0x1,-0x18(%rbp)
  401cf2:	e9 da 01 00 00       	jmp    401ed1 <_ZN8Game20486moveUpEv+0x1ff>
  401cf7:	8b 45 ec             	mov    -0x14(%rbp),%eax
  401cfa:	48 63 d0             	movslq %eax,%rdx
  401cfd:	8b 45 e8             	mov    -0x18(%rbp),%eax
  401d00:	48 98                	cltq   
  401d02:	48 c1 e0 02          	shl    $0x2,%rax
  401d06:	48 01 d0             	add    %rdx,%rax
  401d09:	48 8d 14 00          	lea    (%rax,%rax,1),%rdx
  401d0d:	48 8b 45 d8          	mov    -0x28(%rbp),%rax
  401d11:	48 01 d0             	add    %rdx,%rax
  401d14:	48 89 c7             	mov    %rax,%rdi
  401d17:	e8 5e f9 ff ff       	call   40167a <_ZNK11Signed12Bit8getValueEv>
  401d1c:	85 c0                	test   %eax,%eax
  401d1e:	0f 95 c0             	setne  %al
  401d21:	84 c0                	test   %al,%al
  401d23:	0f 84 a4 01 00 00    	je     401ecd <_ZN8Game20486moveUpEv+0x1fb>
  401d29:	8b 45 e8             	mov    -0x18(%rbp),%eax
  401d2c:	89 45 e4             	mov    %eax,-0x1c(%rbp)
  401d2f:	eb 70                	jmp    401da1 <_ZN8Game20486moveUpEv+0xcf>
  401d31:	8b 45 e4             	mov    -0x1c(%rbp),%eax
  401d34:	8d 48 ff             	lea    -0x1(%rax),%ecx
  401d37:	48 8b 45 d8          	mov    -0x28(%rbp),%rax
  401d3b:	8b 55 ec             	mov    -0x14(%rbp),%edx
  401d3e:	48 63 f2             	movslq %edx,%rsi
  401d41:	48 63 d1             	movslq %ecx,%rdx
  401d44:	48 c1 e2 02          	shl    $0x2,%rdx
  401d48:	48 8d 0c 32          	lea    (%rdx,%rsi,1),%rcx
  401d4c:	48 8b 55 d8          	mov    -0x28(%rbp),%rdx
  401d50:	8b 75 ec             	mov    -0x14(%rbp),%esi
  401d53:	48 63 fe             	movslq %esi,%rdi
  401d56:	8b 75 e4             	mov    -0x1c(%rbp),%esi
  401d59:	48 63 f6             	movslq %esi,%rsi
  401d5c:	48 c1 e6 02          	shl    $0x2,%rsi
  401d60:	48 01 fe             	add    %rdi,%rsi
  401d63:	0f b7 14 72          	movzwl (%rdx,%rsi,2),%edx
  401d67:	66 89 14 48          	mov    %dx,(%rax,%rcx,2)
  401d6b:	8b 45 ec             	mov    -0x14(%rbp),%eax
  401d6e:	48 63 d0             	movslq %eax,%rdx
  401d71:	8b 45 e4             	mov    -0x1c(%rbp),%eax
  401d74:	48 98                	cltq   
  401d76:	48 c1 e0 02          	shl    $0x2,%rax
  401d7a:	48 01 d0             	add    %rdx,%rax
  401d7d:	48 8d 14 00          	lea    (%rax,%rax,1),%rdx
  401d81:	48 8b 45 d8          	mov    -0x28(%rbp),%rax
  401d85:	48 01 d0             	add    %rdx,%rax
  401d88:	be 00 00 00 00       	mov    $0x0,%esi
  401d8d:	48 89 c7             	mov    %rax,%rdi
  401d90:	e8 f7 f8 ff ff       	call   40168c <_ZN11Signed12BitaSEi>
  401d95:	83 6d e4 01          	subl   $0x1,-0x1c(%rbp)
  401d99:	48 8b 45 d8          	mov    -0x28(%rbp),%rax
  401d9d:	c6 40 20 01          	movb   $0x1,0x20(%rax)
  401da1:	83 7d e4 00          	cmpl   $0x0,-0x1c(%rbp)
  401da5:	7e 34                	jle    401ddb <_ZN8Game20486moveUpEv+0x109>
  401da7:	8b 45 e4             	mov    -0x1c(%rbp),%eax
  401daa:	8d 50 ff             	lea    -0x1(%rax),%edx
  401dad:	8b 45 ec             	mov    -0x14(%rbp),%eax
  401db0:	48 63 c8             	movslq %eax,%rcx
  401db3:	48 63 c2             	movslq %edx,%rax
  401db6:	48 c1 e0 02          	shl    $0x2,%rax
  401dba:	48 01 c8             	add    %rcx,%rax
  401dbd:	48 8d 14 00          	lea    (%rax,%rax,1),%rdx
  401dc1:	48 8b 45 d8          	mov    -0x28(%rbp),%rax
  401dc5:	48 01 d0             	add    %rdx,%rax
  401dc8:	48 89 c7             	mov    %rax,%rdi
  401dcb:	e8 aa f8 ff ff       	call   40167a <_ZNK11Signed12Bit8getValueEv>
  401dd0:	85 c0                	test   %eax,%eax
  401dd2:	75 07                	jne    401ddb <_ZN8Game20486moveUpEv+0x109>
  401dd4:	b8 01 00 00 00       	mov    $0x1,%eax
  401dd9:	eb 05                	jmp    401de0 <_ZN8Game20486moveUpEv+0x10e>
  401ddb:	b8 00 00 00 00       	mov    $0x0,%eax
  401de0:	84 c0                	test   %al,%al
  401de2:	0f 85 49 ff ff ff    	jne    401d31 <_ZN8Game20486moveUpEv+0x5f>
  401de8:	83 7d e4 00          	cmpl   $0x0,-0x1c(%rbp)
  401dec:	7e 5b                	jle    401e49 <_ZN8Game20486moveUpEv+0x177>
  401dee:	8b 45 e4             	mov    -0x1c(%rbp),%eax
  401df1:	8d 50 ff             	lea    -0x1(%rax),%edx
  401df4:	8b 45 ec             	mov    -0x14(%rbp),%eax
  401df7:	48 63 c8             	movslq %eax,%rcx
  401dfa:	48 63 c2             	movslq %edx,%rax
  401dfd:	48 c1 e0 02          	shl    $0x2,%rax
  401e01:	48 01 c8             	add    %rcx,%rax
  401e04:	48 8d 14 00          	lea    (%rax,%rax,1),%rdx
  401e08:	48 8b 45 d8          	mov    -0x28(%rbp),%rax
  401e0c:	48 01 d0             	add    %rdx,%rax
  401e0f:	48 89 c7             	mov    %rax,%rdi
  401e12:	e8 63 f8 ff ff       	call   40167a <_ZNK11Signed12Bit8getValueEv>
  401e17:	89 c3                	mov    %eax,%ebx
  401e19:	8b 45 ec             	mov    -0x14(%rbp),%eax
  401e1c:	48 63 d0             	movslq %eax,%rdx
  401e1f:	8b 45 e4             	mov    -0x1c(%rbp),%eax
  401e22:	48 98                	cltq   
  401e24:	48 c1 e0 02          	shl    $0x2,%rax
  401e28:	48 01 d0             	add    %rdx,%rax
  401e2b:	48 8d 14 00          	lea    (%rax,%rax,1),%rdx
  401e2f:	48 8b 45 d8          	mov    -0x28(%rbp),%rax
  401e33:	48 01 d0             	add    %rdx,%rax
  401e36:	48 89 c7             	mov    %rax,%rdi
  401e39:	e8 3c f8 ff ff       	call   40167a <_ZNK11Signed12Bit8getValueEv>
  401e3e:	39 c3                	cmp    %eax,%ebx
  401e40:	75 07                	jne    401e49 <_ZN8Game20486moveUpEv+0x177>
  401e42:	b8 01 00 00 00       	mov    $0x1,%eax
  401e47:	eb 05                	jmp    401e4e <_ZN8Game20486moveUpEv+0x17c>
  401e49:	b8 00 00 00 00       	mov    $0x0,%eax
  401e4e:	84 c0                	test   %al,%al
  401e50:	74 7b                	je     401ecd <_ZN8Game20486moveUpEv+0x1fb>
  401e52:	8b 45 ec             	mov    -0x14(%rbp),%eax
  401e55:	48 63 d0             	movslq %eax,%rdx
  401e58:	8b 45 e4             	mov    -0x1c(%rbp),%eax
  401e5b:	48 98                	cltq   
  401e5d:	48 c1 e0 02          	shl    $0x2,%rax
  401e61:	48 01 d0             	add    %rdx,%rax
  401e64:	48 8d 14 00          	lea    (%rax,%rax,1),%rdx
  401e68:	48 8b 45 d8          	mov    -0x28(%rbp),%rax
  401e6c:	48 01 c2             	add    %rax,%rdx
  401e6f:	8b 45 e4             	mov    -0x1c(%rbp),%eax
  401e72:	8d 48 ff             	lea    -0x1(%rax),%ecx
  401e75:	8b 45 ec             	mov    -0x14(%rbp),%eax
  401e78:	48 63 f0             	movslq %eax,%rsi
  401e7b:	48 63 c1             	movslq %ecx,%rax
  401e7e:	48 c1 e0 02          	shl    $0x2,%rax
  401e82:	48 01 f0             	add    %rsi,%rax
  401e85:	48 8d 0c 00          	lea    (%rax,%rax,1),%rcx
  401e89:	48 8b 45 d8          	mov    -0x28(%rbp),%rax
  401e8d:	48 01 c8             	add    %rcx,%rax
  401e90:	48 89 d6             	mov    %rdx,%rsi
  401e93:	48 89 c7             	mov    %rax,%rdi
  401e96:	e8 17 f8 ff ff       	call   4016b2 <_ZN11Signed12BitpLERKS_>
  401e9b:	8b 45 ec             	mov    -0x14(%rbp),%eax
  401e9e:	48 63 d0             	movslq %eax,%rdx
  401ea1:	8b 45 e4             	mov    -0x1c(%rbp),%eax
  401ea4:	48 98                	cltq   
  401ea6:	48 c1 e0 02          	shl    $0x2,%rax
  401eaa:	48 01 d0             	add    %rdx,%rax
  401ead:	48 8d 14 00          	lea    (%rax,%rax,1),%rdx
  401eb1:	48 8b 45 d8          	mov    -0x28(%rbp),%rax
  401eb5:	48 01 d0             	add    %rdx,%rax
  401eb8:	be 00 00 00 00       	mov    $0x0,%esi
  401ebd:	48 89 c7             	mov    %rax,%rdi
  401ec0:	e8 c7 f7 ff ff       	call   40168c <_ZN11Signed12BitaSEi>
  401ec5:	48 8b 45 d8          	mov    -0x28(%rbp),%rax
  401ec9:	c6 40 20 01          	movb   $0x1,0x20(%rax)
  401ecd:	83 45 e8 01          	addl   $0x1,-0x18(%rbp)
  401ed1:	83 7d e8 03          	cmpl   $0x3,-0x18(%rbp)
  401ed5:	0f 8e 1c fe ff ff    	jle    401cf7 <_ZN8Game20486moveUpEv+0x25>
  401edb:	83 45 ec 01          	addl   $0x1,-0x14(%rbp)
  401edf:	83 7d ec 03          	cmpl   $0x3,-0x14(%rbp)
  401ee3:	0f 8e 02 fe ff ff    	jle    401ceb <_ZN8Game20486moveUpEv+0x19>
  401ee9:	90                   	nop
  401eea:	90                   	nop
  401eeb:	48 8b 5d f8          	mov    -0x8(%rbp),%rbx
  401eef:	c9                   	leave  
  401ef0:	c3                   	ret    
  401ef1:	90                   	nop

0000000000401ef2 <_ZN8Game20488moveDownEv>:
  401ef2:	55                   	push   %rbp
  401ef3:	48 89 e5             	mov    %rsp,%rbp
  401ef6:	53                   	push   %rbx
  401ef7:	48 83 ec 28          	sub    $0x28,%rsp
  401efb:	48 89 7d d8          	mov    %rdi,-0x28(%rbp)
  401eff:	c7 45 ec 00 00 00 00 	movl   $0x0,-0x14(%rbp)
  401f06:	e9 f4 01 00 00       	jmp    4020ff <_ZN8Game20488moveDownEv+0x20d>
  401f0b:	c7 45 e8 02 00 00 00 	movl   $0x2,-0x18(%rbp)
  401f12:	e9 da 01 00 00       	jmp    4020f1 <_ZN8Game20488moveDownEv+0x1ff>
  401f17:	8b 45 ec             	mov    -0x14(%rbp),%eax
  401f1a:	48 63 d0             	movslq %eax,%rdx
  401f1d:	8b 45 e8             	mov    -0x18(%rbp),%eax
  401f20:	48 98                	cltq   
  401f22:	48 c1 e0 02          	shl    $0x2,%rax
  401f26:	48 01 d0             	add    %rdx,%rax
  401f29:	48 8d 14 00          	lea    (%rax,%rax,1),%rdx
  401f2d:	48 8b 45 d8          	mov    -0x28(%rbp),%rax
  401f31:	48 01 d0             	add    %rdx,%rax
  401f34:	48 89 c7             	mov    %rax,%rdi
  401f37:	e8 3e f7 ff ff       	call   40167a <_ZNK11Signed12Bit8getValueEv>
  401f3c:	85 c0                	test   %eax,%eax
  401f3e:	0f 95 c0             	setne  %al
  401f41:	84 c0                	test   %al,%al
  401f43:	0f 84 a4 01 00 00    	je     4020ed <_ZN8Game20488moveDownEv+0x1fb>
  401f49:	8b 45 e8             	mov    -0x18(%rbp),%eax
  401f4c:	89 45 e4             	mov    %eax,-0x1c(%rbp)
  401f4f:	eb 70                	jmp    401fc1 <_ZN8Game20488moveDownEv+0xcf>
  401f51:	8b 45 e4             	mov    -0x1c(%rbp),%eax
  401f54:	8d 48 01             	lea    0x1(%rax),%ecx
  401f57:	48 8b 45 d8          	mov    -0x28(%rbp),%rax
  401f5b:	8b 55 ec             	mov    -0x14(%rbp),%edx
  401f5e:	48 63 f2             	movslq %edx,%rsi
  401f61:	48 63 d1             	movslq %ecx,%rdx
  401f64:	48 c1 e2 02          	shl    $0x2,%rdx
  401f68:	48 8d 0c 32          	lea    (%rdx,%rsi,1),%rcx
  401f6c:	48 8b 55 d8          	mov    -0x28(%rbp),%rdx
  401f70:	8b 75 ec             	mov    -0x14(%rbp),%esi
  401f73:	48 63 fe             	movslq %esi,%rdi
  401f76:	8b 75 e4             	mov    -0x1c(%rbp),%esi
  401f79:	48 63 f6             	movslq %esi,%rsi
  401f7c:	48 c1 e6 02          	shl    $0x2,%rsi
  401f80:	48 01 fe             	add    %rdi,%rsi
  401f83:	0f b7 14 72          	movzwl (%rdx,%rsi,2),%edx
  401f87:	66 89 14 48          	mov    %dx,(%rax,%rcx,2)
  401f8b:	8b 45 ec             	mov    -0x14(%rbp),%eax
  401f8e:	48 63 d0             	movslq %eax,%rdx
  401f91:	8b 45 e4             	mov    -0x1c(%rbp),%eax
  401f94:	48 98                	cltq   
  401f96:	48 c1 e0 02          	shl    $0x2,%rax
  401f9a:	48 01 d0             	add    %rdx,%rax
  401f9d:	48 8d 14 00          	lea    (%rax,%rax,1),%rdx
  401fa1:	48 8b 45 d8          	mov    -0x28(%rbp),%rax
  401fa5:	48 01 d0             	add    %rdx,%rax
  401fa8:	be 00 00 00 00       	mov    $0x0,%esi
  401fad:	48 89 c7             	mov    %rax,%rdi
  401fb0:	e8 d7 f6 ff ff       	call   40168c <_ZN11Signed12BitaSEi>
  401fb5:	83 45 e4 01          	addl   $0x1,-0x1c(%rbp)
  401fb9:	48 8b 45 d8          	mov    -0x28(%rbp),%rax
  401fbd:	c6 40 20 01          	movb   $0x1,0x20(%rax)
  401fc1:	83 7d e4 02          	cmpl   $0x2,-0x1c(%rbp)
  401fc5:	7f 34                	jg     401ffb <_ZN8Game20488moveDownEv+0x109>
  401fc7:	8b 45 e4             	mov    -0x1c(%rbp),%eax
  401fca:	8d 50 01             	lea    0x1(%rax),%edx
  401fcd:	8b 45 ec             	mov    -0x14(%rbp),%eax
  401fd0:	48 63 c8             	movslq %eax,%rcx
  401fd3:	48 63 c2             	movslq %edx,%rax
  401fd6:	48 c1 e0 02          	shl    $0x2,%rax
  401fda:	48 01 c8             	add    %rcx,%rax
  401fdd:	48 8d 14 00          	lea    (%rax,%rax,1),%rdx
  401fe1:	48 8b 45 d8          	mov    -0x28(%rbp),%rax
  401fe5:	48 01 d0             	add    %rdx,%rax
  401fe8:	48 89 c7             	mov    %rax,%rdi
  401feb:	e8 8a f6 ff ff       	call   40167a <_ZNK11Signed12Bit8getValueEv>
  401ff0:	85 c0                	test   %eax,%eax
  401ff2:	75 07                	jne    401ffb <_ZN8Game20488moveDownEv+0x109>
  401ff4:	b8 01 00 00 00       	mov    $0x1,%eax
  401ff9:	eb 05                	jmp    402000 <_ZN8Game20488moveDownEv+0x10e>
  401ffb:	b8 00 00 00 00       	mov    $0x0,%eax
  402000:	84 c0                	test   %al,%al
  402002:	0f 85 49 ff ff ff    	jne    401f51 <_ZN8Game20488moveDownEv+0x5f>
  402008:	83 7d e4 02          	cmpl   $0x2,-0x1c(%rbp)
  40200c:	7f 5b                	jg     402069 <_ZN8Game20488moveDownEv+0x177>
  40200e:	8b 45 e4             	mov    -0x1c(%rbp),%eax
  402011:	8d 50 01             	lea    0x1(%rax),%edx
  402014:	8b 45 ec             	mov    -0x14(%rbp),%eax
  402017:	48 63 c8             	movslq %eax,%rcx
  40201a:	48 63 c2             	movslq %edx,%rax
  40201d:	48 c1 e0 02          	shl    $0x2,%rax
  402021:	48 01 c8             	add    %rcx,%rax
  402024:	48 8d 14 00          	lea    (%rax,%rax,1),%rdx
  402028:	48 8b 45 d8          	mov    -0x28(%rbp),%rax
  40202c:	48 01 d0             	add    %rdx,%rax
  40202f:	48 89 c7             	mov    %rax,%rdi
  402032:	e8 43 f6 ff ff       	call   40167a <_ZNK11Signed12Bit8getValueEv>
  402037:	89 c3                	mov    %eax,%ebx
  402039:	8b 45 ec             	mov    -0x14(%rbp),%eax
  40203c:	48 63 d0             	movslq %eax,%rdx
  40203f:	8b 45 e4             	mov    -0x1c(%rbp),%eax
  402042:	48 98                	cltq   
  402044:	48 c1 e0 02          	shl    $0x2,%rax
  402048:	48 01 d0             	add    %rdx,%rax
  40204b:	48 8d 14 00          	lea    (%rax,%rax,1),%rdx
  40204f:	48 8b 45 d8          	mov    -0x28(%rbp),%rax
  402053:	48 01 d0             	add    %rdx,%rax
  402056:	48 89 c7             	mov    %rax,%rdi
  402059:	e8 1c f6 ff ff       	call   40167a <_ZNK11Signed12Bit8getValueEv>
  40205e:	39 c3                	cmp    %eax,%ebx
  402060:	75 07                	jne    402069 <_ZN8Game20488moveDownEv+0x177>
  402062:	b8 01 00 00 00       	mov    $0x1,%eax
  402067:	eb 05                	jmp    40206e <_ZN8Game20488moveDownEv+0x17c>
  402069:	b8 00 00 00 00       	mov    $0x0,%eax
  40206e:	84 c0                	test   %al,%al
  402070:	74 7b                	je     4020ed <_ZN8Game20488moveDownEv+0x1fb>
  402072:	8b 45 ec             	mov    -0x14(%rbp),%eax
  402075:	48 63 d0             	movslq %eax,%rdx
  402078:	8b 45 e4             	mov    -0x1c(%rbp),%eax
  40207b:	48 98                	cltq   
  40207d:	48 c1 e0 02          	shl    $0x2,%rax
  402081:	48 01 d0             	add    %rdx,%rax
  402084:	48 8d 14 00          	lea    (%rax,%rax,1),%rdx
  402088:	48 8b 45 d8          	mov    -0x28(%rbp),%rax
  40208c:	48 01 c2             	add    %rax,%rdx
  40208f:	8b 45 e4             	mov    -0x1c(%rbp),%eax
  402092:	8d 48 01             	lea    0x1(%rax),%ecx
  402095:	8b 45 ec             	mov    -0x14(%rbp),%eax
  402098:	48 63 f0             	movslq %eax,%rsi
  40209b:	48 63 c1             	movslq %ecx,%rax
  40209e:	48 c1 e0 02          	shl    $0x2,%rax
  4020a2:	48 01 f0             	add    %rsi,%rax
  4020a5:	48 8d 0c 00          	lea    (%rax,%rax,1),%rcx
  4020a9:	48 8b 45 d8          	mov    -0x28(%rbp),%rax
  4020ad:	48 01 c8             	add    %rcx,%rax
  4020b0:	48 89 d6             	mov    %rdx,%rsi
  4020b3:	48 89 c7             	mov    %rax,%rdi
  4020b6:	e8 f7 f5 ff ff       	call   4016b2 <_ZN11Signed12BitpLERKS_>
  4020bb:	8b 45 ec             	mov    -0x14(%rbp),%eax
  4020be:	48 63 d0             	movslq %eax,%rdx
  4020c1:	8b 45 e4             	mov    -0x1c(%rbp),%eax
  4020c4:	48 98                	cltq   
  4020c6:	48 c1 e0 02          	shl    $0x2,%rax
  4020ca:	48 01 d0             	add    %rdx,%rax
  4020cd:	48 8d 14 00          	lea    (%rax,%rax,1),%rdx
  4020d1:	48 8b 45 d8          	mov    -0x28(%rbp),%rax
  4020d5:	48 01 d0             	add    %rdx,%rax
  4020d8:	be 00 00 00 00       	mov    $0x0,%esi
  4020dd:	48 89 c7             	mov    %rax,%rdi
  4020e0:	e8 a7 f5 ff ff       	call   40168c <_ZN11Signed12BitaSEi>
  4020e5:	48 8b 45 d8          	mov    -0x28(%rbp),%rax
  4020e9:	c6 40 20 01          	movb   $0x1,0x20(%rax)
  4020ed:	83 6d e8 01          	subl   $0x1,-0x18(%rbp)
  4020f1:	83 7d e8 00          	cmpl   $0x0,-0x18(%rbp)
  4020f5:	0f 89 1c fe ff ff    	jns    401f17 <_ZN8Game20488moveDownEv+0x25>
  4020fb:	83 45 ec 01          	addl   $0x1,-0x14(%rbp)
  4020ff:	83 7d ec 03          	cmpl   $0x3,-0x14(%rbp)
  402103:	0f 8e 02 fe ff ff    	jle    401f0b <_ZN8Game20488moveDownEv+0x19>
  402109:	90                   	nop
  40210a:	90                   	nop
  40210b:	48 8b 5d f8          	mov    -0x8(%rbp),%rbx
  40210f:	c9                   	leave  
  402110:	c3                   	ret    
  402111:	90                   	nop

0000000000402112 <_ZN8Game20488moveLeftEv>:
  402112:	55                   	push   %rbp
  402113:	48 89 e5             	mov    %rsp,%rbp
  402116:	53                   	push   %rbx
  402117:	48 83 ec 28          	sub    $0x28,%rsp
  40211b:	48 89 7d d8          	mov    %rdi,-0x28(%rbp)
  40211f:	c7 45 ec 00 00 00 00 	movl   $0x0,-0x14(%rbp)
  402126:	e9 f0 01 00 00       	jmp    40231b <_ZN8Game20488moveLeftEv+0x209>
  40212b:	c7 45 e8 01 00 00 00 	movl   $0x1,-0x18(%rbp)
  402132:	e9 d6 01 00 00       	jmp    40230d <_ZN8Game20488moveLeftEv+0x1fb>
  402137:	8b 45 e8             	mov    -0x18(%rbp),%eax
  40213a:	48 63 d0             	movslq %eax,%rdx
  40213d:	8b 45 ec             	mov    -0x14(%rbp),%eax
  402140:	48 98                	cltq   
  402142:	48 c1 e0 02          	shl    $0x2,%rax
  402146:	48 01 d0             	add    %rdx,%rax
  402149:	48 8d 14 00          	lea    (%rax,%rax,1),%rdx
  40214d:	48 8b 45 d8          	mov    -0x28(%rbp),%rax
  402151:	48 01 d0             	add    %rdx,%rax
  402154:	48 89 c7             	mov    %rax,%rdi
  402157:	e8 1e f5 ff ff       	call   40167a <_ZNK11Signed12Bit8getValueEv>
  40215c:	85 c0                	test   %eax,%eax
  40215e:	0f 95 c0             	setne  %al
  402161:	84 c0                	test   %al,%al
  402163:	0f 84 a0 01 00 00    	je     402309 <_ZN8Game20488moveLeftEv+0x1f7>
  402169:	8b 45 e8             	mov    -0x18(%rbp),%eax
  40216c:	89 45 e4             	mov    %eax,-0x1c(%rbp)
  40216f:	eb 6f                	jmp    4021e0 <_ZN8Game20488moveLeftEv+0xce>
  402171:	8b 45 e4             	mov    -0x1c(%rbp),%eax
  402174:	8d 50 ff             	lea    -0x1(%rax),%edx
  402177:	48 8b 45 d8          	mov    -0x28(%rbp),%rax
  40217b:	48 63 ca             	movslq %edx,%rcx
  40217e:	8b 55 ec             	mov    -0x14(%rbp),%edx
  402181:	48 63 d2             	movslq %edx,%rdx
  402184:	48 c1 e2 02          	shl    $0x2,%rdx
  402188:	48 01 d1             	add    %rdx,%rcx
  40218b:	48 8b 55 d8          	mov    -0x28(%rbp),%rdx
  40218f:	8b 75 e4             	mov    -0x1c(%rbp),%esi
  402192:	48 63 fe             	movslq %esi,%rdi
  402195:	8b 75 ec             	mov    -0x14(%rbp),%esi
  402198:	48 63 f6             	movslq %esi,%rsi
  40219b:	48 c1 e6 02          	shl    $0x2,%rsi
  40219f:	48 01 fe             	add    %rdi,%rsi
  4021a2:	0f b7 14 72          	movzwl (%rdx,%rsi,2),%edx
  4021a6:	66 89 14 48          	mov    %dx,(%rax,%rcx,2)
  4021aa:	8b 45 e4             	mov    -0x1c(%rbp),%eax
  4021ad:	48 63 d0             	movslq %eax,%rdx
  4021b0:	8b 45 ec             	mov    -0x14(%rbp),%eax
  4021b3:	48 98                	cltq   
  4021b5:	48 c1 e0 02          	shl    $0x2,%rax
  4021b9:	48 01 d0             	add    %rdx,%rax
  4021bc:	48 8d 14 00          	lea    (%rax,%rax,1),%rdx
  4021c0:	48 8b 45 d8          	mov    -0x28(%rbp),%rax
  4021c4:	48 01 d0             	add    %rdx,%rax
  4021c7:	be 00 00 00 00       	mov    $0x0,%esi
  4021cc:	48 89 c7             	mov    %rax,%rdi
  4021cf:	e8 b8 f4 ff ff       	call   40168c <_ZN11Signed12BitaSEi>
  4021d4:	83 6d e4 01          	subl   $0x1,-0x1c(%rbp)
  4021d8:	48 8b 45 d8          	mov    -0x28(%rbp),%rax
  4021dc:	c6 40 20 01          	movb   $0x1,0x20(%rax)
  4021e0:	83 7d e4 00          	cmpl   $0x0,-0x1c(%rbp)
  4021e4:	7e 33                	jle    402219 <_ZN8Game20488moveLeftEv+0x107>
  4021e6:	8b 45 e4             	mov    -0x1c(%rbp),%eax
  4021e9:	83 e8 01             	sub    $0x1,%eax
  4021ec:	48 63 d0             	movslq %eax,%rdx
  4021ef:	8b 45 ec             	mov    -0x14(%rbp),%eax
  4021f2:	48 98                	cltq   
  4021f4:	48 c1 e0 02          	shl    $0x2,%rax
  4021f8:	48 01 d0             	add    %rdx,%rax
  4021fb:	48 8d 14 00          	lea    (%rax,%rax,1),%rdx
  4021ff:	48 8b 45 d8          	mov    -0x28(%rbp),%rax
  402203:	48 01 d0             	add    %rdx,%rax
  402206:	48 89 c7             	mov    %rax,%rdi
  402209:	e8 6c f4 ff ff       	call   40167a <_ZNK11Signed12Bit8getValueEv>
  40220e:	85 c0                	test   %eax,%eax
  402210:	75 07                	jne    402219 <_ZN8Game20488moveLeftEv+0x107>
  402212:	b8 01 00 00 00       	mov    $0x1,%eax
  402217:	eb 05                	jmp    40221e <_ZN8Game20488moveLeftEv+0x10c>
  402219:	b8 00 00 00 00       	mov    $0x0,%eax
  40221e:	84 c0                	test   %al,%al
  402220:	0f 85 4b ff ff ff    	jne    402171 <_ZN8Game20488moveLeftEv+0x5f>
  402226:	83 7d e4 00          	cmpl   $0x0,-0x1c(%rbp)
  40222a:	7e 5a                	jle    402286 <_ZN8Game20488moveLeftEv+0x174>
  40222c:	8b 45 e4             	mov    -0x1c(%rbp),%eax
  40222f:	83 e8 01             	sub    $0x1,%eax
  402232:	48 63 d0             	movslq %eax,%rdx
  402235:	8b 45 ec             	mov    -0x14(%rbp),%eax
  402238:	48 98                	cltq   
  40223a:	48 c1 e0 02          	shl    $0x2,%rax
  40223e:	48 01 d0             	add    %rdx,%rax
  402241:	48 8d 14 00          	lea    (%rax,%rax,1),%rdx
  402245:	48 8b 45 d8          	mov    -0x28(%rbp),%rax
  402249:	48 01 d0             	add    %rdx,%rax
  40224c:	48 89 c7             	mov    %rax,%rdi
  40224f:	e8 26 f4 ff ff       	call   40167a <_ZNK11Signed12Bit8getValueEv>
  402254:	89 c3                	mov    %eax,%ebx
  402256:	8b 45 e4             	mov    -0x1c(%rbp),%eax
  402259:	48 63 d0             	movslq %eax,%rdx
  40225c:	8b 45 ec             	mov    -0x14(%rbp),%eax
  40225f:	48 98                	cltq   
  402261:	48 c1 e0 02          	shl    $0x2,%rax
  402265:	48 01 d0             	add    %rdx,%rax
  402268:	48 8d 14 00          	lea    (%rax,%rax,1),%rdx
  40226c:	48 8b 45 d8          	mov    -0x28(%rbp),%rax
  402270:	48 01 d0             	add    %rdx,%rax
  402273:	48 89 c7             	mov    %rax,%rdi
  402276:	e8 ff f3 ff ff       	call   40167a <_ZNK11Signed12Bit8getValueEv>
  40227b:	39 c3                	cmp    %eax,%ebx
  40227d:	75 07                	jne    402286 <_ZN8Game20488moveLeftEv+0x174>
  40227f:	b8 01 00 00 00       	mov    $0x1,%eax
  402284:	eb 05                	jmp    40228b <_ZN8Game20488moveLeftEv+0x179>
  402286:	b8 00 00 00 00       	mov    $0x0,%eax
  40228b:	84 c0                	test   %al,%al
  40228d:	74 7a                	je     402309 <_ZN8Game20488moveLeftEv+0x1f7>
  40228f:	8b 45 e4             	mov    -0x1c(%rbp),%eax
  402292:	48 63 d0             	movslq %eax,%rdx
  402295:	8b 45 ec             	mov    -0x14(%rbp),%eax
  402298:	48 98                	cltq   
  40229a:	48 c1 e0 02          	shl    $0x2,%rax
  40229e:	48 01 d0             	add    %rdx,%rax
  4022a1:	48 8d 14 00          	lea    (%rax,%rax,1),%rdx
  4022a5:	48 8b 45 d8          	mov    -0x28(%rbp),%rax
  4022a9:	48 01 c2             	add    %rax,%rdx
  4022ac:	8b 45 e4             	mov    -0x1c(%rbp),%eax
  4022af:	83 e8 01             	sub    $0x1,%eax
  4022b2:	48 63 c8             	movslq %eax,%rcx
  4022b5:	8b 45 ec             	mov    -0x14(%rbp),%eax
  4022b8:	48 98                	cltq   
  4022ba:	48 c1 e0 02          	shl    $0x2,%rax
  4022be:	48 01 c8             	add    %rcx,%rax
  4022c1:	48 8d 0c 00          	lea    (%rax,%rax,1),%rcx
  4022c5:	48 8b 45 d8          	mov    -0x28(%rbp),%rax
  4022c9:	48 01 c8             	add    %rcx,%rax
  4022cc:	48 89 d6             	mov    %rdx,%rsi
  4022cf:	48 89 c7             	mov    %rax,%rdi
  4022d2:	e8 db f3 ff ff       	call   4016b2 <_ZN11Signed12BitpLERKS_>
  4022d7:	8b 45 e4             	mov    -0x1c(%rbp),%eax
  4022da:	48 63 d0             	movslq %eax,%rdx
  4022dd:	8b 45 ec             	mov    -0x14(%rbp),%eax
  4022e0:	48 98                	cltq   
  4022e2:	48 c1 e0 02          	shl    $0x2,%rax
  4022e6:	48 01 d0             	add    %rdx,%rax
  4022e9:	48 8d 14 00          	lea    (%rax,%rax,1),%rdx
  4022ed:	48 8b 45 d8          	mov    -0x28(%rbp),%rax
  4022f1:	48 01 d0             	add    %rdx,%rax
  4022f4:	be 00 00 00 00       	mov    $0x0,%esi
  4022f9:	48 89 c7             	mov    %rax,%rdi
  4022fc:	e8 8b f3 ff ff       	call   40168c <_ZN11Signed12BitaSEi>
  402301:	48 8b 45 d8          	mov    -0x28(%rbp),%rax
  402305:	c6 40 20 01          	movb   $0x1,0x20(%rax)
  402309:	83 45 e8 01          	addl   $0x1,-0x18(%rbp)
  40230d:	83 7d e8 03          	cmpl   $0x3,-0x18(%rbp)
  402311:	0f 8e 20 fe ff ff    	jle    402137 <_ZN8Game20488moveLeftEv+0x25>
  402317:	83 45 ec 01          	addl   $0x1,-0x14(%rbp)
  40231b:	83 7d ec 03          	cmpl   $0x3,-0x14(%rbp)
  40231f:	0f 8e 06 fe ff ff    	jle    40212b <_ZN8Game20488moveLeftEv+0x19>
  402325:	90                   	nop
  402326:	90                   	nop
  402327:	48 8b 5d f8          	mov    -0x8(%rbp),%rbx
  40232b:	c9                   	leave  
  40232c:	c3                   	ret    
  40232d:	90                   	nop

000000000040232e <_ZN8Game20489moveRightEv>:
  40232e:	55                   	push   %rbp
  40232f:	48 89 e5             	mov    %rsp,%rbp
  402332:	53                   	push   %rbx
  402333:	48 83 ec 28          	sub    $0x28,%rsp
  402337:	48 89 7d d8          	mov    %rdi,-0x28(%rbp)
  40233b:	c7 45 ec 00 00 00 00 	movl   $0x0,-0x14(%rbp)
  402342:	e9 f0 01 00 00       	jmp    402537 <_ZN8Game20489moveRightEv+0x209>
  402347:	c7 45 e8 02 00 00 00 	movl   $0x2,-0x18(%rbp)
  40234e:	e9 d6 01 00 00       	jmp    402529 <_ZN8Game20489moveRightEv+0x1fb>
  402353:	8b 45 e8             	mov    -0x18(%rbp),%eax
  402356:	48 63 d0             	movslq %eax,%rdx
  402359:	8b 45 ec             	mov    -0x14(%rbp),%eax
  40235c:	48 98                	cltq   
  40235e:	48 c1 e0 02          	shl    $0x2,%rax
  402362:	48 01 d0             	add    %rdx,%rax
  402365:	48 8d 14 00          	lea    (%rax,%rax,1),%rdx
  402369:	48 8b 45 d8          	mov    -0x28(%rbp),%rax
  40236d:	48 01 d0             	add    %rdx,%rax
  402370:	48 89 c7             	mov    %rax,%rdi
  402373:	e8 02 f3 ff ff       	call   40167a <_ZNK11Signed12Bit8getValueEv>
  402378:	85 c0                	test   %eax,%eax
  40237a:	0f 95 c0             	setne  %al
  40237d:	84 c0                	test   %al,%al
  40237f:	0f 84 a0 01 00 00    	je     402525 <_ZN8Game20489moveRightEv+0x1f7>
  402385:	8b 45 e8             	mov    -0x18(%rbp),%eax
  402388:	89 45 e4             	mov    %eax,-0x1c(%rbp)
  40238b:	eb 6f                	jmp    4023fc <_ZN8Game20489moveRightEv+0xce>
  40238d:	8b 45 e4             	mov    -0x1c(%rbp),%eax
  402390:	8d 50 01             	lea    0x1(%rax),%edx
  402393:	48 8b 45 d8          	mov    -0x28(%rbp),%rax
  402397:	48 63 ca             	movslq %edx,%rcx
  40239a:	8b 55 ec             	mov    -0x14(%rbp),%edx
  40239d:	48 63 d2             	movslq %edx,%rdx
  4023a0:	48 c1 e2 02          	shl    $0x2,%rdx
  4023a4:	48 01 d1             	add    %rdx,%rcx
  4023a7:	48 8b 55 d8          	mov    -0x28(%rbp),%rdx
  4023ab:	8b 75 e4             	mov    -0x1c(%rbp),%esi
  4023ae:	48 63 fe             	movslq %esi,%rdi
  4023b1:	8b 75 ec             	mov    -0x14(%rbp),%esi
  4023b4:	48 63 f6             	movslq %esi,%rsi
  4023b7:	48 c1 e6 02          	shl    $0x2,%rsi
  4023bb:	48 01 fe             	add    %rdi,%rsi
  4023be:	0f b7 14 72          	movzwl (%rdx,%rsi,2),%edx
  4023c2:	66 89 14 48          	mov    %dx,(%rax,%rcx,2)
  4023c6:	8b 45 e4             	mov    -0x1c(%rbp),%eax
  4023c9:	48 63 d0             	movslq %eax,%rdx
  4023cc:	8b 45 ec             	mov    -0x14(%rbp),%eax
  4023cf:	48 98                	cltq   
  4023d1:	48 c1 e0 02          	shl    $0x2,%rax
  4023d5:	48 01 d0             	add    %rdx,%rax
  4023d8:	48 8d 14 00          	lea    (%rax,%rax,1),%rdx
  4023dc:	48 8b 45 d8          	mov    -0x28(%rbp),%rax
  4023e0:	48 01 d0             	add    %rdx,%rax
  4023e3:	be 00 00 00 00       	mov    $0x0,%esi
  4023e8:	48 89 c7             	mov    %rax,%rdi
  4023eb:	e8 9c f2 ff ff       	call   40168c <_ZN11Signed12BitaSEi>
  4023f0:	83 45 e4 01          	addl   $0x1,-0x1c(%rbp)
  4023f4:	48 8b 45 d8          	mov    -0x28(%rbp),%rax
  4023f8:	c6 40 20 01          	movb   $0x1,0x20(%rax)
  4023fc:	83 7d e4 02          	cmpl   $0x2,-0x1c(%rbp)
  402400:	7f 33                	jg     402435 <_ZN8Game20489moveRightEv+0x107>
  402402:	8b 45 e4             	mov    -0x1c(%rbp),%eax
  402405:	83 c0 01             	add    $0x1,%eax
  402408:	48 63 d0             	movslq %eax,%rdx
  40240b:	8b 45 ec             	mov    -0x14(%rbp),%eax
  40240e:	48 98                	cltq   
  402410:	48 c1 e0 02          	shl    $0x2,%rax
  402414:	48 01 d0             	add    %rdx,%rax
  402417:	48 8d 14 00          	lea    (%rax,%rax,1),%rdx
  40241b:	48 8b 45 d8          	mov    -0x28(%rbp),%rax
  40241f:	48 01 d0             	add    %rdx,%rax
  402422:	48 89 c7             	mov    %rax,%rdi
  402425:	e8 50 f2 ff ff       	call   40167a <_ZNK11Signed12Bit8getValueEv>
  40242a:	85 c0                	test   %eax,%eax
  40242c:	75 07                	jne    402435 <_ZN8Game20489moveRightEv+0x107>
  40242e:	b8 01 00 00 00       	mov    $0x1,%eax
  402433:	eb 05                	jmp    40243a <_ZN8Game20489moveRightEv+0x10c>
  402435:	b8 00 00 00 00       	mov    $0x0,%eax
  40243a:	84 c0                	test   %al,%al
  40243c:	0f 85 4b ff ff ff    	jne    40238d <_ZN8Game20489moveRightEv+0x5f>
  402442:	83 7d e4 02          	cmpl   $0x2,-0x1c(%rbp)
  402446:	7f 5a                	jg     4024a2 <_ZN8Game20489moveRightEv+0x174>
  402448:	8b 45 e4             	mov    -0x1c(%rbp),%eax
  40244b:	83 c0 01             	add    $0x1,%eax
  40244e:	48 63 d0             	movslq %eax,%rdx
  402451:	8b 45 ec             	mov    -0x14(%rbp),%eax
  402454:	48 98                	cltq   
  402456:	48 c1 e0 02          	shl    $0x2,%rax
  40245a:	48 01 d0             	add    %rdx,%rax
  40245d:	48 8d 14 00          	lea    (%rax,%rax,1),%rdx
  402461:	48 8b 45 d8          	mov    -0x28(%rbp),%rax
  402465:	48 01 d0             	add    %rdx,%rax
  402468:	48 89 c7             	mov    %rax,%rdi
  40246b:	e8 0a f2 ff ff       	call   40167a <_ZNK11Signed12Bit8getValueEv>
  402470:	89 c3                	mov    %eax,%ebx
  402472:	8b 45 e4             	mov    -0x1c(%rbp),%eax
  402475:	48 63 d0             	movslq %eax,%rdx
  402478:	8b 45 ec             	mov    -0x14(%rbp),%eax
  40247b:	48 98                	cltq   
  40247d:	48 c1 e0 02          	shl    $0x2,%rax
  402481:	48 01 d0             	add    %rdx,%rax
  402484:	48 8d 14 00          	lea    (%rax,%rax,1),%rdx
  402488:	48 8b 45 d8          	mov    -0x28(%rbp),%rax
  40248c:	48 01 d0             	add    %rdx,%rax
  40248f:	48 89 c7             	mov    %rax,%rdi
  402492:	e8 e3 f1 ff ff       	call   40167a <_ZNK11Signed12Bit8getValueEv>
  402497:	39 c3                	cmp    %eax,%ebx
  402499:	75 07                	jne    4024a2 <_ZN8Game20489moveRightEv+0x174>
  40249b:	b8 01 00 00 00       	mov    $0x1,%eax
  4024a0:	eb 05                	jmp    4024a7 <_ZN8Game20489moveRightEv+0x179>
  4024a2:	b8 00 00 00 00       	mov    $0x0,%eax
  4024a7:	84 c0                	test   %al,%al
  4024a9:	74 7a                	je     402525 <_ZN8Game20489moveRightEv+0x1f7>
  4024ab:	8b 45 e4             	mov    -0x1c(%rbp),%eax
  4024ae:	48 63 d0             	movslq %eax,%rdx
  4024b1:	8b 45 ec             	mov    -0x14(%rbp),%eax
  4024b4:	48 98                	cltq   
  4024b6:	48 c1 e0 02          	shl    $0x2,%rax
  4024ba:	48 01 d0             	add    %rdx,%rax
  4024bd:	48 8d 14 00          	lea    (%rax,%rax,1),%rdx
  4024c1:	48 8b 45 d8          	mov    -0x28(%rbp),%rax
  4024c5:	48 01 c2             	add    %rax,%rdx
  4024c8:	8b 45 e4             	mov    -0x1c(%rbp),%eax
  4024cb:	83 c0 01             	add    $0x1,%eax
  4024ce:	48 63 c8             	movslq %eax,%rcx
  4024d1:	8b 45 ec             	mov    -0x14(%rbp),%eax
  4024d4:	48 98                	cltq   
  4024d6:	48 c1 e0 02          	shl    $0x2,%rax
  4024da:	48 01 c8             	add    %rcx,%rax
  4024dd:	48 8d 0c 00          	lea    (%rax,%rax,1),%rcx
  4024e1:	48 8b 45 d8          	mov    -0x28(%rbp),%rax
  4024e5:	48 01 c8             	add    %rcx,%rax
  4024e8:	48 89 d6             	mov    %rdx,%rsi
  4024eb:	48 89 c7             	mov    %rax,%rdi
  4024ee:	e8 bf f1 ff ff       	call   4016b2 <_ZN11Signed12BitpLERKS_>
  4024f3:	8b 45 e4             	mov    -0x1c(%rbp),%eax
  4024f6:	48 63 d0             	movslq %eax,%rdx
  4024f9:	8b 45 ec             	mov    -0x14(%rbp),%eax
  4024fc:	48 98                	cltq   
  4024fe:	48 c1 e0 02          	shl    $0x2,%rax
  402502:	48 01 d0             	add    %rdx,%rax
  402505:	48 8d 14 00          	lea    (%rax,%rax,1),%rdx
  402509:	48 8b 45 d8          	mov    -0x28(%rbp),%rax
  40250d:	48 01 d0             	add    %rdx,%rax
  402510:	be 00 00 00 00       	mov    $0x0,%esi
  402515:	48 89 c7             	mov    %rax,%rdi
  402518:	e8 6f f1 ff ff       	call   40168c <_ZN11Signed12BitaSEi>
  40251d:	48 8b 45 d8          	mov    -0x28(%rbp),%rax
  402521:	c6 40 20 01          	movb   $0x1,0x20(%rax)
  402525:	83 6d e8 01          	subl   $0x1,-0x18(%rbp)
  402529:	83 7d e8 00          	cmpl   $0x0,-0x18(%rbp)
  40252d:	0f 89 20 fe ff ff    	jns    402353 <_ZN8Game20489moveRightEv+0x25>
  402533:	83 45 ec 01          	addl   $0x1,-0x14(%rbp)
  402537:	83 7d ec 03          	cmpl   $0x3,-0x14(%rbp)
  40253b:	0f 8e 06 fe ff ff    	jle    402347 <_ZN8Game20489moveRightEv+0x19>
  402541:	90                   	nop
  402542:	90                   	nop
  402543:	48 8b 5d f8          	mov    -0x8(%rbp),%rbx
  402547:	c9                   	leave  
  402548:	c3                   	ret    
  402549:	90                   	nop

000000000040254a <_ZNSt12_Vector_baseISt4pairIiiESaIS1_EE12_Vector_implC1Ev>:
  40254a:	55                   	push   %rbp
  40254b:	48 89 e5             	mov    %rsp,%rbp
  40254e:	48 83 ec 10          	sub    $0x10,%rsp
  402552:	48 89 7d f8          	mov    %rdi,-0x8(%rbp)
  402556:	48 8b 45 f8          	mov    -0x8(%rbp),%rax
  40255a:	48 89 c7             	mov    %rax,%rdi
  40255d:	e8 b6 01 00 00       	call   402718 <_ZNSaISt4pairIiiEEC1Ev>
  402562:	48 8b 45 f8          	mov    -0x8(%rbp),%rax
  402566:	48 89 c7             	mov    %rax,%rdi
  402569:	e8 c6 01 00 00       	call   402734 <_ZNSt12_Vector_baseISt4pairIiiESaIS1_EE17_Vector_impl_dataC1Ev>
  40256e:	90                   	nop
  40256f:	c9                   	leave  
  402570:	c3                   	ret    
  402571:	90                   	nop

0000000000402572 <_ZNSaISt4pairIiiEED1Ev>:
  402572:	55                   	push   %rbp
  402573:	48 89 e5             	mov    %rsp,%rbp
  402576:	48 83 ec 10          	sub    $0x10,%rsp
  40257a:	48 89 7d f8          	mov    %rdi,-0x8(%rbp)
  40257e:	48 8b 45 f8          	mov    -0x8(%rbp),%rax
  402582:	48 89 c7             	mov    %rax,%rdi
  402585:	e8 d8 01 00 00       	call   402762 <_ZN9__gnu_cxx13new_allocatorISt4pairIiiEED1Ev>
  40258a:	90                   	nop
  40258b:	c9                   	leave  
  40258c:	c3                   	ret    
  40258d:	90                   	nop

000000000040258e <_ZNSt12_Vector_baseISt4pairIiiESaIS1_EED1Ev>:
  40258e:	55                   	push   %rbp
  40258f:	48 89 e5             	mov    %rsp,%rbp
  402592:	48 83 ec 10          	sub    $0x10,%rsp
  402596:	48 89 7d f8          	mov    %rdi,-0x8(%rbp)
  40259a:	48 8b 45 f8          	mov    -0x8(%rbp),%rax
  40259e:	48 8b 50 10          	mov    0x10(%rax),%rdx
  4025a2:	48 8b 45 f8          	mov    -0x8(%rbp),%rax
  4025a6:	48 8b 08             	mov    (%rax),%rcx
  4025a9:	48 89 d0             	mov    %rdx,%rax
  4025ac:	48 29 c8             	sub    %rcx,%rax
  4025af:	48 c1 f8 03          	sar    $0x3,%rax
  4025b3:	48 89 c2             	mov    %rax,%rdx
  4025b6:	48 8b 45 f8          	mov    -0x8(%rbp),%rax
  4025ba:	48 8b 08             	mov    (%rax),%rcx
  4025bd:	48 8b 45 f8          	mov    -0x8(%rbp),%rax
  4025c1:	48 89 ce             	mov    %rcx,%rsi
  4025c4:	48 89 c7             	mov    %rax,%rdi
  4025c7:	e8 a2 01 00 00       	call   40276e <_ZNSt12_Vector_baseISt4pairIiiESaIS1_EE13_M_deallocateEPS1_m>
  4025cc:	48 8b 45 f8          	mov    -0x8(%rbp),%rax
  4025d0:	48 89 c7             	mov    %rax,%rdi
  4025d3:	e8 8e f2 ff ff       	call   401866 <_ZNSt12_Vector_baseISt4pairIiiESaIS1_EE12_Vector_implD1Ev>
  4025d8:	90                   	nop
  4025d9:	c9                   	leave  
  4025da:	c3                   	ret    
  4025db:	90                   	nop

00000000004025dc <_ZNSt6vectorISt4pairIiiESaIS1_EED1Ev>:
  4025dc:	55                   	push   %rbp
  4025dd:	48 89 e5             	mov    %rsp,%rbp
  4025e0:	48 83 ec 10          	sub    $0x10,%rsp
  4025e4:	48 89 7d f8          	mov    %rdi,-0x8(%rbp)
  4025e8:	48 8b 45 f8          	mov    -0x8(%rbp),%rax
  4025ec:	48 89 c7             	mov    %rax,%rdi
  4025ef:	e8 b0 01 00 00       	call   4027a4 <_ZNSt12_Vector_baseISt4pairIiiESaIS1_EE19_M_get_Tp_allocatorEv>
  4025f4:	48 89 c2             	mov    %rax,%rdx
  4025f7:	48 8b 45 f8          	mov    -0x8(%rbp),%rax
  4025fb:	48 8b 48 08          	mov    0x8(%rax),%rcx
  4025ff:	48 8b 45 f8          	mov    -0x8(%rbp),%rax
  402603:	48 8b 00             	mov    (%rax),%rax
  402606:	48 89 ce             	mov    %rcx,%rsi
  402609:	48 89 c7             	mov    %rax,%rdi
  40260c:	e8 a1 01 00 00       	call   4027b2 <_ZSt8_DestroyIPSt4pairIiiES1_EvT_S3_RSaIT0_E>
  402611:	48 8b 45 f8          	mov    -0x8(%rbp),%rax
  402615:	48 89 c7             	mov    %rax,%rdi
  402618:	e8 71 ff ff ff       	call   40258e <_ZNSt12_Vector_baseISt4pairIiiESaIS1_EED1Ev>
  40261d:	90                   	nop
  40261e:	c9                   	leave  
  40261f:	c3                   	ret    

0000000000402620 <_ZNSt4pairIiiEC1IRiS2_Lb1EEEOT_OT0_>:
  402620:	55                   	push   %rbp
  402621:	48 89 e5             	mov    %rsp,%rbp
  402624:	48 83 ec 20          	sub    $0x20,%rsp
  402628:	48 89 7d f8          	mov    %rdi,-0x8(%rbp)
  40262c:	48 89 75 f0          	mov    %rsi,-0x10(%rbp)
  402630:	48 89 55 e8          	mov    %rdx,-0x18(%rbp)
  402634:	48 8b 45 f0          	mov    -0x10(%rbp),%rax
  402638:	48 89 c7             	mov    %rax,%rdi
  40263b:	e8 9c 01 00 00       	call   4027dc <_ZSt7forwardIRiEOT_RNSt16remove_referenceIS1_E4typeE>
  402640:	8b 10                	mov    (%rax),%edx
  402642:	48 8b 45 f8          	mov    -0x8(%rbp),%rax
  402646:	89 10                	mov    %edx,(%rax)
  402648:	48 8b 45 e8          	mov    -0x18(%rbp),%rax
  40264c:	48 89 c7             	mov    %rax,%rdi
  40264f:	e8 88 01 00 00       	call   4027dc <_ZSt7forwardIRiEOT_RNSt16remove_referenceIS1_E4typeE>
  402654:	8b 10                	mov    (%rax),%edx
  402656:	48 8b 45 f8          	mov    -0x8(%rbp),%rax
  40265a:	89 50 04             	mov    %edx,0x4(%rax)
  40265d:	90                   	nop
  40265e:	c9                   	leave  
  40265f:	c3                   	ret    

0000000000402660 <_ZNSt6vectorISt4pairIiiESaIS1_EE9push_backEOS1_>:
  402660:	55                   	push   %rbp
  402661:	48 89 e5             	mov    %rsp,%rbp
  402664:	48 83 ec 10          	sub    $0x10,%rsp
  402668:	48 89 7d f8          	mov    %rdi,-0x8(%rbp)
  40266c:	48 89 75 f0          	mov    %rsi,-0x10(%rbp)
  402670:	48 8b 45 f0          	mov    -0x10(%rbp),%rax
  402674:	48 89 c7             	mov    %rax,%rdi
  402677:	e8 6e 01 00 00       	call   4027ea <_ZSt4moveIRSt4pairIiiEEONSt16remove_referenceIT_E4typeEOS4_>
  40267c:	48 89 c2             	mov    %rax,%rdx
  40267f:	48 8b 45 f8          	mov    -0x8(%rbp),%rax
  402683:	48 89 d6             	mov    %rdx,%rsi
  402686:	48 89 c7             	mov    %rax,%rdi
  402689:	e8 6a 01 00 00       	call   4027f8 <_ZNSt6vectorISt4pairIiiESaIS1_EE12emplace_backIJS1_EEEvDpOT_>
  40268e:	90                   	nop
  40268f:	c9                   	leave  
  402690:	c3                   	ret    
  402691:	90                   	nop

0000000000402692 <_ZNKSt6vectorISt4pairIiiESaIS1_EE5emptyEv>:
  402692:	55                   	push   %rbp
  402693:	48 89 e5             	mov    %rsp,%rbp
  402696:	48 83 ec 20          	sub    $0x20,%rsp
  40269a:	48 89 7d e8          	mov    %rdi,-0x18(%rbp)
  40269e:	48 8b 45 e8          	mov    -0x18(%rbp),%rax
  4026a2:	48 89 c7             	mov    %rax,%rdi
  4026a5:	e8 0e 02 00 00       	call   4028b8 <_ZNKSt6vectorISt4pairIiiESaIS1_EE3endEv>
  4026aa:	48 89 45 f0          	mov    %rax,-0x10(%rbp)
  4026ae:	48 8b 45 e8          	mov    -0x18(%rbp),%rax
  4026b2:	48 89 c7             	mov    %rax,%rdi
  4026b5:	e8 d8 01 00 00       	call   402892 <_ZNKSt6vectorISt4pairIiiESaIS1_EE5beginEv>
  4026ba:	48 89 45 f8          	mov    %rax,-0x8(%rbp)
  4026be:	48 8d 55 f0          	lea    -0x10(%rbp),%rdx
  4026c2:	48 8d 45 f8          	lea    -0x8(%rbp),%rax
  4026c6:	48 89 d6             	mov    %rdx,%rsi
  4026c9:	48 89 c7             	mov    %rax,%rdi
  4026cc:	e8 10 02 00 00       	call   4028e1 <_ZN9__gnu_cxxeqIPKSt4pairIiiESt6vectorIS2_SaIS2_EEEEbRKNS_17__normal_iteratorIT_T0_EESD_>
  4026d1:	c9                   	leave  
  4026d2:	c3                   	ret    
  4026d3:	90                   	nop

00000000004026d4 <_ZNKSt6vectorISt4pairIiiESaIS1_EE4sizeEv>:
  4026d4:	55                   	push   %rbp
  4026d5:	48 89 e5             	mov    %rsp,%rbp
  4026d8:	48 89 7d f8          	mov    %rdi,-0x8(%rbp)
  4026dc:	48 8b 45 f8          	mov    -0x8(%rbp),%rax
  4026e0:	48 8b 50 08          	mov    0x8(%rax),%rdx
  4026e4:	48 8b 45 f8          	mov    -0x8(%rbp),%rax
  4026e8:	48 8b 08             	mov    (%rax),%rcx
  4026eb:	48 89 d0             	mov    %rdx,%rax
  4026ee:	48 29 c8             	sub    %rcx,%rax
  4026f1:	48 c1 f8 03          	sar    $0x3,%rax
  4026f5:	5d                   	pop    %rbp
  4026f6:	c3                   	ret    
  4026f7:	90                   	nop

00000000004026f8 <_ZNSt6vectorISt4pairIiiESaIS1_EEixEm>:
  4026f8:	55                   	push   %rbp
  4026f9:	48 89 e5             	mov    %rsp,%rbp
  4026fc:	48 89 7d f8          	mov    %rdi,-0x8(%rbp)
  402700:	48 89 75 f0          	mov    %rsi,-0x10(%rbp)
  402704:	48 8b 45 f8          	mov    -0x8(%rbp),%rax
  402708:	48 8b 10             	mov    (%rax),%rdx
  40270b:	48 8b 45 f0          	mov    -0x10(%rbp),%rax
  40270f:	48 c1 e0 03          	shl    $0x3,%rax
  402713:	48 01 d0             	add    %rdx,%rax
  402716:	5d                   	pop    %rbp
  402717:	c3                   	ret    

0000000000402718 <_ZNSaISt4pairIiiEEC1Ev>:
  402718:	55                   	push   %rbp
  402719:	48 89 e5             	mov    %rsp,%rbp
  40271c:	48 83 ec 10          	sub    $0x10,%rsp
  402720:	48 89 7d f8          	mov    %rdi,-0x8(%rbp)
  402724:	48 8b 45 f8          	mov    -0x8(%rbp),%rax
  402728:	48 89 c7             	mov    %rax,%rdi
  40272b:	e8 ec 01 00 00       	call   40291c <_ZN9__gnu_cxx13new_allocatorISt4pairIiiEEC1Ev>
  402730:	90                   	nop
  402731:	c9                   	leave  
  402732:	c3                   	ret    
  402733:	90                   	nop

0000000000402734 <_ZNSt12_Vector_baseISt4pairIiiESaIS1_EE17_Vector_impl_dataC1Ev>:
  402734:	55                   	push   %rbp
  402735:	48 89 e5             	mov    %rsp,%rbp
  402738:	48 89 7d f8          	mov    %rdi,-0x8(%rbp)
  40273c:	48 8b 45 f8          	mov    -0x8(%rbp),%rax
  402740:	48 c7 00 00 00 00 00 	movq   $0x0,(%rax)
  402747:	48 8b 45 f8          	mov    -0x8(%rbp),%rax
  40274b:	48 c7 40 08 00 00 00 	movq   $0x0,0x8(%rax)
  402752:	00 
  402753:	48 8b 45 f8          	mov    -0x8(%rbp),%rax
  402757:	48 c7 40 10 00 00 00 	movq   $0x0,0x10(%rax)
  40275e:	00 
  40275f:	90                   	nop
  402760:	5d                   	pop    %rbp
  402761:	c3                   	ret    

0000000000402762 <_ZN9__gnu_cxx13new_allocatorISt4pairIiiEED1Ev>:
  402762:	55                   	push   %rbp
  402763:	48 89 e5             	mov    %rsp,%rbp
  402766:	48 89 7d f8          	mov    %rdi,-0x8(%rbp)
  40276a:	90                   	nop
  40276b:	5d                   	pop    %rbp
  40276c:	c3                   	ret    
  40276d:	90                   	nop

000000000040276e <_ZNSt12_Vector_baseISt4pairIiiESaIS1_EE13_M_deallocateEPS1_m>:
  40276e:	55                   	push   %rbp
  40276f:	48 89 e5             	mov    %rsp,%rbp
  402772:	48 83 ec 20          	sub    $0x20,%rsp
  402776:	48 89 7d f8          	mov    %rdi,-0x8(%rbp)
  40277a:	48 89 75 f0          	mov    %rsi,-0x10(%rbp)
  40277e:	48 89 55 e8          	mov    %rdx,-0x18(%rbp)
  402782:	48 83 7d f0 00       	cmpq   $0x0,-0x10(%rbp)
  402787:	74 17                	je     4027a0 <_ZNSt12_Vector_baseISt4pairIiiESaIS1_EE13_M_deallocateEPS1_m+0x32>
  402789:	48 8b 45 f8          	mov    -0x8(%rbp),%rax
  40278d:	48 8b 55 e8          	mov    -0x18(%rbp),%rdx
  402791:	48 8b 4d f0          	mov    -0x10(%rbp),%rcx
  402795:	48 89 ce             	mov    %rcx,%rsi
  402798:	48 89 c7             	mov    %rax,%rdi
  40279b:	e8 87 01 00 00       	call   402927 <_ZNSt16allocator_traitsISaISt4pairIiiEEE10deallocateERS2_PS1_m>
  4027a0:	90                   	nop
  4027a1:	c9                   	leave  
  4027a2:	c3                   	ret    
  4027a3:	90                   	nop

00000000004027a4 <_ZNSt12_Vector_baseISt4pairIiiESaIS1_EE19_M_get_Tp_allocatorEv>:
  4027a4:	55                   	push   %rbp
  4027a5:	48 89 e5             	mov    %rsp,%rbp
  4027a8:	48 89 7d f8          	mov    %rdi,-0x8(%rbp)
  4027ac:	48 8b 45 f8          	mov    -0x8(%rbp),%rax
  4027b0:	5d                   	pop    %rbp
  4027b1:	c3                   	ret    

00000000004027b2 <_ZSt8_DestroyIPSt4pairIiiES1_EvT_S3_RSaIT0_E>:
  4027b2:	55                   	push   %rbp
  4027b3:	48 89 e5             	mov    %rsp,%rbp
  4027b6:	48 83 ec 20          	sub    $0x20,%rsp
  4027ba:	48 89 7d f8          	mov    %rdi,-0x8(%rbp)
  4027be:	48 89 75 f0          	mov    %rsi,-0x10(%rbp)
  4027c2:	48 89 55 e8          	mov    %rdx,-0x18(%rbp)
  4027c6:	48 8b 55 f0          	mov    -0x10(%rbp),%rdx
  4027ca:	48 8b 45 f8          	mov    -0x8(%rbp),%rax
  4027ce:	48 89 d6             	mov    %rdx,%rsi
  4027d1:	48 89 c7             	mov    %rax,%rdi
  4027d4:	e8 7c 01 00 00       	call   402955 <_ZSt8_DestroyIPSt4pairIiiEEvT_S3_>
  4027d9:	90                   	nop
  4027da:	c9                   	leave  
  4027db:	c3                   	ret    

00000000004027dc <_ZSt7forwardIRiEOT_RNSt16remove_referenceIS1_E4typeE>:
  4027dc:	55                   	push   %rbp
  4027dd:	48 89 e5             	mov    %rsp,%rbp
  4027e0:	48 89 7d f8          	mov    %rdi,-0x8(%rbp)
  4027e4:	48 8b 45 f8          	mov    -0x8(%rbp),%rax
  4027e8:	5d                   	pop    %rbp
  4027e9:	c3                   	ret    

00000000004027ea <_ZSt4moveIRSt4pairIiiEEONSt16remove_referenceIT_E4typeEOS4_>:
  4027ea:	55                   	push   %rbp
  4027eb:	48 89 e5             	mov    %rsp,%rbp
  4027ee:	48 89 7d f8          	mov    %rdi,-0x8(%rbp)
  4027f2:	48 8b 45 f8          	mov    -0x8(%rbp),%rax
  4027f6:	5d                   	pop    %rbp
  4027f7:	c3                   	ret    

00000000004027f8 <_ZNSt6vectorISt4pairIiiESaIS1_EE12emplace_backIJS1_EEEvDpOT_>:
  4027f8:	55                   	push   %rbp
  4027f9:	48 89 e5             	mov    %rsp,%rbp
  4027fc:	53                   	push   %rbx
  4027fd:	48 83 ec 18          	sub    $0x18,%rsp
  402801:	48 89 7d e8          	mov    %rdi,-0x18(%rbp)
  402805:	48 89 75 e0          	mov    %rsi,-0x20(%rbp)
  402809:	48 8b 45 e8          	mov    -0x18(%rbp),%rax
  40280d:	48 8b 50 08          	mov    0x8(%rax),%rdx
  402811:	48 8b 45 e8          	mov    -0x18(%rbp),%rax
  402815:	48 8b 40 10          	mov    0x10(%rax),%rax
  402819:	48 39 c2             	cmp    %rax,%rdx
  40281c:	74 3c                	je     40285a <_ZNSt6vectorISt4pairIiiESaIS1_EE12emplace_backIJS1_EEEvDpOT_+0x62>
  40281e:	48 8b 45 e0          	mov    -0x20(%rbp),%rax
  402822:	48 89 c7             	mov    %rax,%rdi
  402825:	e8 51 01 00 00       	call   40297b <_ZSt7forwardISt4pairIiiEEOT_RNSt16remove_referenceIS2_E4typeE>
  40282a:	48 89 c2             	mov    %rax,%rdx
  40282d:	48 8b 45 e8          	mov    -0x18(%rbp),%rax
  402831:	48 8b 48 08          	mov    0x8(%rax),%rcx
  402835:	48 8b 45 e8          	mov    -0x18(%rbp),%rax
  402839:	48 89 ce             	mov    %rcx,%rsi
  40283c:	48 89 c7             	mov    %rax,%rdi
  40283f:	e8 45 01 00 00       	call   402989 <_ZNSt16allocator_traitsISaISt4pairIiiEEE9constructIS1_JS1_EEEvRS2_PT_DpOT0_>
  402844:	48 8b 45 e8          	mov    -0x18(%rbp),%rax
  402848:	48 8b 40 08          	mov    0x8(%rax),%rax
  40284c:	48 8d 50 08          	lea    0x8(%rax),%rdx
  402850:	48 8b 45 e8          	mov    -0x18(%rbp),%rax
  402854:	48 89 50 08          	mov    %rdx,0x8(%rax)
  402858:	eb 30                	jmp    40288a <_ZNSt6vectorISt4pairIiiESaIS1_EE12emplace_backIJS1_EEEvDpOT_+0x92>
  40285a:	48 8b 45 e0          	mov    -0x20(%rbp),%rax
  40285e:	48 89 c7             	mov    %rax,%rdi
  402861:	e8 15 01 00 00       	call   40297b <_ZSt7forwardISt4pairIiiEEOT_RNSt16remove_referenceIS2_E4typeE>
  402866:	48 89 c3             	mov    %rax,%rbx
  402869:	48 8b 45 e8          	mov    -0x18(%rbp),%rax
  40286d:	48 89 c7             	mov    %rax,%rdi
  402870:	e8 4d 01 00 00       	call   4029c2 <_ZNSt6vectorISt4pairIiiESaIS1_EE3endEv>
  402875:	48 89 c1             	mov    %rax,%rcx
  402878:	48 8b 45 e8          	mov    -0x18(%rbp),%rax
  40287c:	48 89 da             	mov    %rbx,%rdx
  40287f:	48 89 ce             	mov    %rcx,%rsi
  402882:	48 89 c7             	mov    %rax,%rdi
  402885:	e8 7c 01 00 00       	call   402a06 <_ZNSt6vectorISt4pairIiiESaIS1_EE17_M_realloc_insertIJS1_EEEvN9__gnu_cxx17__normal_iteratorIPS1_S3_EEDpOT_>
  40288a:	90                   	nop
  40288b:	48 8b 5d f8          	mov    -0x8(%rbp),%rbx
  40288f:	c9                   	leave  
  402890:	c3                   	ret    
  402891:	90                   	nop

0000000000402892 <_ZNKSt6vectorISt4pairIiiESaIS1_EE5beginEv>:
  402892:	55                   	push   %rbp
  402893:	48 89 e5             	mov    %rsp,%rbp
  402896:	48 83 ec 20          	sub    $0x20,%rsp
  40289a:	48 89 7d e8          	mov    %rdi,-0x18(%rbp)
  40289e:	48 8b 55 e8          	mov    -0x18(%rbp),%rdx
  4028a2:	48 8d 45 f8          	lea    -0x8(%rbp),%rax
  4028a6:	48 89 d6             	mov    %rdx,%rsi
  4028a9:	48 89 c7             	mov    %rax,%rdi
  4028ac:	e8 15 04 00 00       	call   402cc6 <_ZN9__gnu_cxx17__normal_iteratorIPKSt4pairIiiESt6vectorIS2_SaIS2_EEEC1ERKS4_>
  4028b1:	48 8b 45 f8          	mov    -0x8(%rbp),%rax
  4028b5:	c9                   	leave  
  4028b6:	c3                   	ret    
  4028b7:	90                   	nop

00000000004028b8 <_ZNKSt6vectorISt4pairIiiESaIS1_EE3endEv>:
  4028b8:	55                   	push   %rbp
  4028b9:	48 89 e5             	mov    %rsp,%rbp
  4028bc:	48 83 ec 20          	sub    $0x20,%rsp
  4028c0:	48 89 7d e8          	mov    %rdi,-0x18(%rbp)
  4028c4:	48 8b 45 e8          	mov    -0x18(%rbp),%rax
  4028c8:	48 8d 50 08          	lea    0x8(%rax),%rdx
  4028cc:	48 8d 45 f8          	lea    -0x8(%rbp),%rax
  4028d0:	48 89 d6             	mov    %rdx,%rsi
  4028d3:	48 89 c7             	mov    %rax,%rdi
  4028d6:	e8 eb 03 00 00       	call   402cc6 <_ZN9__gnu_cxx17__normal_iteratorIPKSt4pairIiiESt6vectorIS2_SaIS2_EEEC1ERKS4_>
  4028db:	48 8b 45 f8          	mov    -0x8(%rbp),%rax
  4028df:	c9                   	leave  
  4028e0:	c3                   	ret    

00000000004028e1 <_ZN9__gnu_cxxeqIPKSt4pairIiiESt6vectorIS2_SaIS2_EEEEbRKNS_17__normal_iteratorIT_T0_EESD_>:
  4028e1:	55                   	push   %rbp
  4028e2:	48 89 e5             	mov    %rsp,%rbp
  4028e5:	53                   	push   %rbx
  4028e6:	48 83 ec 18          	sub    $0x18,%rsp
  4028ea:	48 89 7d e8          	mov    %rdi,-0x18(%rbp)
  4028ee:	48 89 75 e0          	mov    %rsi,-0x20(%rbp)
  4028f2:	48 8b 45 e8          	mov    -0x18(%rbp),%rax
  4028f6:	48 89 c7             	mov    %rax,%rdi
  4028f9:	e8 e6 03 00 00       	call   402ce4 <_ZNK9__gnu_cxx17__normal_iteratorIPKSt4pairIiiESt6vectorIS2_SaIS2_EEE4baseEv>
  4028fe:	48 8b 18             	mov    (%rax),%rbx
  402901:	48 8b 45 e0          	mov    -0x20(%rbp),%rax
  402905:	48 89 c7             	mov    %rax,%rdi
  402908:	e8 d7 03 00 00       	call   402ce4 <_ZNK9__gnu_cxx17__normal_iteratorIPKSt4pairIiiESt6vectorIS2_SaIS2_EEE4baseEv>
  40290d:	48 8b 00             	mov    (%rax),%rax
  402910:	48 39 c3             	cmp    %rax,%rbx
  402913:	0f 94 c0             	sete   %al
  402916:	48 8b 5d f8          	mov    -0x8(%rbp),%rbx
  40291a:	c9                   	leave  
  40291b:	c3                   	ret    

000000000040291c <_ZN9__gnu_cxx13new_allocatorISt4pairIiiEEC1Ev>:
  40291c:	55                   	push   %rbp
  40291d:	48 89 e5             	mov    %rsp,%rbp
  402920:	48 89 7d f8          	mov    %rdi,-0x8(%rbp)
  402924:	90                   	nop
  402925:	5d                   	pop    %rbp
  402926:	c3                   	ret    

0000000000402927 <_ZNSt16allocator_traitsISaISt4pairIiiEEE10deallocateERS2_PS1_m>:
  402927:	55                   	push   %rbp
  402928:	48 89 e5             	mov    %rsp,%rbp
  40292b:	48 83 ec 20          	sub    $0x20,%rsp
  40292f:	48 89 7d f8          	mov    %rdi,-0x8(%rbp)
  402933:	48 89 75 f0          	mov    %rsi,-0x10(%rbp)
  402937:	48 89 55 e8          	mov    %rdx,-0x18(%rbp)
  40293b:	48 8b 55 e8          	mov    -0x18(%rbp),%rdx
  40293f:	48 8b 4d f0          	mov    -0x10(%rbp),%rcx
  402943:	48 8b 45 f8          	mov    -0x8(%rbp),%rax
  402947:	48 89 ce             	mov    %rcx,%rsi
  40294a:	48 89 c7             	mov    %rax,%rdi
  40294d:	e8 a0 03 00 00       	call   402cf2 <_ZN9__gnu_cxx13new_allocatorISt4pairIiiEE10deallocateEPS2_m>
  402952:	90                   	nop
  402953:	c9                   	leave  
  402954:	c3                   	ret    

0000000000402955 <_ZSt8_DestroyIPSt4pairIiiEEvT_S3_>:
  402955:	55                   	push   %rbp
  402956:	48 89 e5             	mov    %rsp,%rbp
  402959:	48 83 ec 10          	sub    $0x10,%rsp
  40295d:	48 89 7d f8          	mov    %rdi,-0x8(%rbp)
  402961:	48 89 75 f0          	mov    %rsi,-0x10(%rbp)
  402965:	48 8b 55 f0          	mov    -0x10(%rbp),%rdx
  402969:	48 8b 45 f8          	mov    -0x8(%rbp),%rax
  40296d:	48 89 d6             	mov    %rdx,%rsi
  402970:	48 89 c7             	mov    %rax,%rdi
  402973:	e8 9d 03 00 00       	call   402d15 <_ZNSt12_Destroy_auxILb1EE9__destroyIPSt4pairIiiEEEvT_S5_>
  402978:	90                   	nop
  402979:	c9                   	leave  
  40297a:	c3                   	ret    

000000000040297b <_ZSt7forwardISt4pairIiiEEOT_RNSt16remove_referenceIS2_E4typeE>:
  40297b:	55                   	push   %rbp
  40297c:	48 89 e5             	mov    %rsp,%rbp
  40297f:	48 89 7d f8          	mov    %rdi,-0x8(%rbp)
  402983:	48 8b 45 f8          	mov    -0x8(%rbp),%rax
  402987:	5d                   	pop    %rbp
  402988:	c3                   	ret    

0000000000402989 <_ZNSt16allocator_traitsISaISt4pairIiiEEE9constructIS1_JS1_EEEvRS2_PT_DpOT0_>:
  402989:	55                   	push   %rbp
  40298a:	48 89 e5             	mov    %rsp,%rbp
  40298d:	48 83 ec 20          	sub    $0x20,%rsp
  402991:	48 89 7d f8          	mov    %rdi,-0x8(%rbp)
  402995:	48 89 75 f0          	mov    %rsi,-0x10(%rbp)
  402999:	48 89 55 e8          	mov    %rdx,-0x18(%rbp)
  40299d:	48 8b 45 e8          	mov    -0x18(%rbp),%rax
  4029a1:	48 89 c7             	mov    %rax,%rdi
  4029a4:	e8 d2 ff ff ff       	call   40297b <_ZSt7forwardISt4pairIiiEEOT_RNSt16remove_referenceIS2_E4typeE>
  4029a9:	48 89 c2             	mov    %rax,%rdx
  4029ac:	48 8b 4d f0          	mov    -0x10(%rbp),%rcx
  4029b0:	48 8b 45 f8          	mov    -0x8(%rbp),%rax
  4029b4:	48 89 ce             	mov    %rcx,%rsi
  4029b7:	48 89 c7             	mov    %rax,%rdi
  4029ba:	e8 65 03 00 00       	call   402d24 <_ZN9__gnu_cxx13new_allocatorISt4pairIiiEE9constructIS2_JS2_EEEvPT_DpOT0_>
  4029bf:	90                   	nop
  4029c0:	c9                   	leave  
  4029c1:	c3                   	ret    

00000000004029c2 <_ZNSt6vectorISt4pairIiiESaIS1_EE3endEv>:
  4029c2:	55                   	push   %rbp
  4029c3:	48 89 e5             	mov    %rsp,%rbp
  4029c6:	48 83 ec 20          	sub    $0x20,%rsp
  4029ca:	48 89 7d e8          	mov    %rdi,-0x18(%rbp)
  4029ce:	48 8b 45 e8          	mov    -0x18(%rbp),%rax
  4029d2:	48 8d 50 08          	lea    0x8(%rax),%rdx
  4029d6:	48 8d 45 f8          	lea    -0x8(%rbp),%rax
  4029da:	48 89 d6             	mov    %rdx,%rsi
  4029dd:	48 89 c7             	mov    %rax,%rdi
  4029e0:	e8 81 03 00 00       	call   402d66 <_ZN9__gnu_cxx17__normal_iteratorIPSt4pairIiiESt6vectorIS2_SaIS2_EEEC1ERKS3_>
  4029e5:	48 8b 45 f8          	mov    -0x8(%rbp),%rax
  4029e9:	c9                   	leave  
  4029ea:	c3                   	ret    

00000000004029eb <_ZNSt6vectorISt4pairIiiESaIS1_EE15_S_use_relocateEv>:
  4029eb:	55                   	push   %rbp
  4029ec:	48 89 e5             	mov    %rsp,%rbp
  4029ef:	48 83 ec 10          	sub    $0x10,%rsp
  4029f3:	e8 02 00 00 00       	call   4029fa <_ZNSt6vectorISt4pairIiiESaIS1_EE19_S_nothrow_relocateESt17integral_constantIbLb1EE>
  4029f8:	c9                   	leave  
  4029f9:	c3                   	ret    

00000000004029fa <_ZNSt6vectorISt4pairIiiESaIS1_EE19_S_nothrow_relocateESt17integral_constantIbLb1EE>:
  4029fa:	55                   	push   %rbp
  4029fb:	48 89 e5             	mov    %rsp,%rbp
  4029fe:	b8 01 00 00 00       	mov    $0x1,%eax
  402a03:	5d                   	pop    %rbp
  402a04:	c3                   	ret    
  402a05:	90                   	nop

0000000000402a06 <_ZNSt6vectorISt4pairIiiESaIS1_EE17_M_realloc_insertIJS1_EEEvN9__gnu_cxx17__normal_iteratorIPS1_S3_EEDpOT_>:
  402a06:	55                   	push   %rbp
  402a07:	48 89 e5             	mov    %rsp,%rbp
  402a0a:	53                   	push   %rbx
  402a0b:	48 83 ec 68          	sub    $0x68,%rsp
  402a0f:	48 89 7d a8          	mov    %rdi,-0x58(%rbp)
  402a13:	48 89 75 a0          	mov    %rsi,-0x60(%rbp)
  402a17:	48 89 55 98          	mov    %rdx,-0x68(%rbp)
  402a1b:	48 8b 45 a8          	mov    -0x58(%rbp),%rax
  402a1f:	ba f0 40 40 00       	mov    $0x4040f0,%edx
  402a24:	be 01 00 00 00       	mov    $0x1,%esi
  402a29:	48 89 c7             	mov    %rax,%rdi
  402a2c:	e8 53 03 00 00       	call   402d84 <_ZNKSt6vectorISt4pairIiiESaIS1_EE12_M_check_lenEmPKc>
  402a31:	48 89 45 e0          	mov    %rax,-0x20(%rbp)
  402a35:	48 8b 45 a8          	mov    -0x58(%rbp),%rax
  402a39:	48 8b 00             	mov    (%rax),%rax
  402a3c:	48 89 45 d8          	mov    %rax,-0x28(%rbp)
  402a40:	48 8b 45 a8          	mov    -0x58(%rbp),%rax
  402a44:	48 8b 40 08          	mov    0x8(%rax),%rax
  402a48:	48 89 45 d0          	mov    %rax,-0x30(%rbp)
  402a4c:	48 8b 45 a8          	mov    -0x58(%rbp),%rax
  402a50:	48 89 c7             	mov    %rax,%rdi
  402a53:	e8 f4 03 00 00       	call   402e4c <_ZNSt6vectorISt4pairIiiESaIS1_EE5beginEv>
  402a58:	48 89 45 b8          	mov    %rax,-0x48(%rbp)
  402a5c:	48 8d 55 b8          	lea    -0x48(%rbp),%rdx
  402a60:	48 8d 45 a0          	lea    -0x60(%rbp),%rax
  402a64:	48 89 d6             	mov    %rdx,%rsi
  402a67:	48 89 c7             	mov    %rax,%rdi
  402a6a:	e8 02 04 00 00       	call   402e71 <_ZN9__gnu_cxxmiIPSt4pairIiiESt6vectorIS2_SaIS2_EEEENS_17__normal_iteratorIT_T0_E15difference_typeERKSA_SD_>
  402a6f:	48 89 45 c8          	mov    %rax,-0x38(%rbp)
  402a73:	48 8b 45 a8          	mov    -0x58(%rbp),%rax
  402a77:	48 8b 55 e0          	mov    -0x20(%rbp),%rdx
  402a7b:	48 89 d6             	mov    %rdx,%rsi
  402a7e:	48 89 c7             	mov    %rax,%rdi
  402a81:	e8 2a 04 00 00       	call   402eb0 <_ZNSt12_Vector_baseISt4pairIiiESaIS1_EE11_M_allocateEm>
  402a86:	48 89 45 c0          	mov    %rax,-0x40(%rbp)
  402a8a:	48 8b 45 c0          	mov    -0x40(%rbp),%rax
  402a8e:	48 89 45 e8          	mov    %rax,-0x18(%rbp)
  402a92:	48 8b 45 98          	mov    -0x68(%rbp),%rax
  402a96:	48 89 c7             	mov    %rax,%rdi
  402a99:	e8 dd fe ff ff       	call   40297b <_ZSt7forwardISt4pairIiiEEOT_RNSt16remove_referenceIS2_E4typeE>
  402a9e:	48 89 c2             	mov    %rax,%rdx
  402aa1:	48 8b 45 c8          	mov    -0x38(%rbp),%rax
  402aa5:	48 8d 0c c5 00 00 00 	lea    0x0(,%rax,8),%rcx
  402aac:	00 
  402aad:	48 8b 45 c0          	mov    -0x40(%rbp),%rax
  402ab1:	48 01 c1             	add    %rax,%rcx
  402ab4:	48 8b 45 a8          	mov    -0x58(%rbp),%rax
  402ab8:	48 89 ce             	mov    %rcx,%rsi
  402abb:	48 89 c7             	mov    %rax,%rdi
  402abe:	e8 c6 fe ff ff       	call   402989 <_ZNSt16allocator_traitsISaISt4pairIiiEEE9constructIS1_JS1_EEEvRS2_PT_DpOT0_>
  402ac3:	48 c7 45 e8 00 00 00 	movq   $0x0,-0x18(%rbp)
  402aca:	00 
  402acb:	e8 1b ff ff ff       	call   4029eb <_ZNSt6vectorISt4pairIiiESaIS1_EE15_S_use_relocateEv>
  402ad0:	84 c0                	test   %al,%al
  402ad2:	74 71                	je     402b45 <_ZNSt6vectorISt4pairIiiESaIS1_EE17_M_realloc_insertIJS1_EEEvN9__gnu_cxx17__normal_iteratorIPS1_S3_EEDpOT_+0x13f>
  402ad4:	48 8b 45 a8          	mov    -0x58(%rbp),%rax
  402ad8:	48 89 c7             	mov    %rax,%rdi
  402adb:	e8 c4 fc ff ff       	call   4027a4 <_ZNSt12_Vector_baseISt4pairIiiESaIS1_EE19_M_get_Tp_allocatorEv>
  402ae0:	48 89 c3             	mov    %rax,%rbx
  402ae3:	48 8d 45 a0          	lea    -0x60(%rbp),%rax
  402ae7:	48 89 c7             	mov    %rax,%rdi
  402aea:	e8 27 04 00 00       	call   402f16 <_ZNK9__gnu_cxx17__normal_iteratorIPSt4pairIiiESt6vectorIS2_SaIS2_EEE4baseEv>
  402aef:	48 8b 30             	mov    (%rax),%rsi
  402af2:	48 8b 55 c0          	mov    -0x40(%rbp),%rdx
  402af6:	48 8b 45 d8          	mov    -0x28(%rbp),%rax
  402afa:	48 89 d9             	mov    %rbx,%rcx
  402afd:	48 89 c7             	mov    %rax,%rdi
  402b00:	e8 de 03 00 00       	call   402ee3 <_ZNSt6vectorISt4pairIiiESaIS1_EE11_S_relocateEPS1_S4_S4_RS2_>
  402b05:	48 89 45 e8          	mov    %rax,-0x18(%rbp)
  402b09:	48 83 45 e8 08       	addq   $0x8,-0x18(%rbp)
  402b0e:	48 8b 45 a8          	mov    -0x58(%rbp),%rax
  402b12:	48 89 c7             	mov    %rax,%rdi
  402b15:	e8 8a fc ff ff       	call   4027a4 <_ZNSt12_Vector_baseISt4pairIiiESaIS1_EE19_M_get_Tp_allocatorEv>
  402b1a:	48 89 c3             	mov    %rax,%rbx
  402b1d:	48 8d 45 a0          	lea    -0x60(%rbp),%rax
  402b21:	48 89 c7             	mov    %rax,%rdi
  402b24:	e8 ed 03 00 00       	call   402f16 <_ZNK9__gnu_cxx17__normal_iteratorIPSt4pairIiiESt6vectorIS2_SaIS2_EEE4baseEv>
  402b29:	48 8b 00             	mov    (%rax),%rax
  402b2c:	48 8b 55 e8          	mov    -0x18(%rbp),%rdx
  402b30:	48 8b 75 d0          	mov    -0x30(%rbp),%rsi
  402b34:	48 89 d9             	mov    %rbx,%rcx
  402b37:	48 89 c7             	mov    %rax,%rdi
  402b3a:	e8 a4 03 00 00       	call   402ee3 <_ZNSt6vectorISt4pairIiiESaIS1_EE11_S_relocateEPS1_S4_S4_RS2_>
  402b3f:	48 89 45 e8          	mov    %rax,-0x18(%rbp)
  402b43:	eb 6f                	jmp    402bb4 <_ZNSt6vectorISt4pairIiiESaIS1_EE17_M_realloc_insertIJS1_EEEvN9__gnu_cxx17__normal_iteratorIPS1_S3_EEDpOT_+0x1ae>
  402b45:	48 8b 45 a8          	mov    -0x58(%rbp),%rax
  402b49:	48 89 c7             	mov    %rax,%rdi
  402b4c:	e8 53 fc ff ff       	call   4027a4 <_ZNSt12_Vector_baseISt4pairIiiESaIS1_EE19_M_get_Tp_allocatorEv>
  402b51:	48 89 c3             	mov    %rax,%rbx
  402b54:	48 8d 45 a0          	lea    -0x60(%rbp),%rax
  402b58:	48 89 c7             	mov    %rax,%rdi
  402b5b:	e8 b6 03 00 00       	call   402f16 <_ZNK9__gnu_cxx17__normal_iteratorIPSt4pairIiiESt6vectorIS2_SaIS2_EEE4baseEv>
  402b60:	48 8b 30             	mov    (%rax),%rsi
  402b63:	48 8b 55 c0          	mov    -0x40(%rbp),%rdx
  402b67:	48 8b 45 d8          	mov    -0x28(%rbp),%rax
  402b6b:	48 89 d9             	mov    %rbx,%rcx
  402b6e:	48 89 c7             	mov    %rax,%rdi
  402b71:	e8 ae 03 00 00       	call   402f24 <_ZSt34__uninitialized_move_if_noexcept_aIPSt4pairIiiES2_SaIS1_EET0_T_S5_S4_RT1_>
  402b76:	48 89 45 e8          	mov    %rax,-0x18(%rbp)
  402b7a:	48 83 45 e8 08       	addq   $0x8,-0x18(%rbp)
  402b7f:	48 8b 45 a8          	mov    -0x58(%rbp),%rax
  402b83:	48 89 c7             	mov    %rax,%rdi
  402b86:	e8 19 fc ff ff       	call   4027a4 <_ZNSt12_Vector_baseISt4pairIiiESaIS1_EE19_M_get_Tp_allocatorEv>
  402b8b:	48 89 c3             	mov    %rax,%rbx
  402b8e:	48 8d 45 a0          	lea    -0x60(%rbp),%rax
  402b92:	48 89 c7             	mov    %rax,%rdi
  402b95:	e8 7c 03 00 00       	call   402f16 <_ZNK9__gnu_cxx17__normal_iteratorIPSt4pairIiiESt6vectorIS2_SaIS2_EEE4baseEv>
  402b9a:	48 8b 00             	mov    (%rax),%rax
  402b9d:	48 8b 55 e8          	mov    -0x18(%rbp),%rdx
  402ba1:	48 8b 75 d0          	mov    -0x30(%rbp),%rsi
  402ba5:	48 89 d9             	mov    %rbx,%rcx
  402ba8:	48 89 c7             	mov    %rax,%rdi
  402bab:	e8 74 03 00 00       	call   402f24 <_ZSt34__uninitialized_move_if_noexcept_aIPSt4pairIiiES2_SaIS1_EET0_T_S5_S4_RT1_>
  402bb0:	48 89 45 e8          	mov    %rax,-0x18(%rbp)
  402bb4:	e8 32 fe ff ff       	call   4029eb <_ZNSt6vectorISt4pairIiiESaIS1_EE15_S_use_relocateEv>
  402bb9:	83 f0 01             	xor    $0x1,%eax
  402bbc:	84 c0                	test   %al,%al
  402bbe:	74 22                	je     402be2 <_ZNSt6vectorISt4pairIiiESaIS1_EE17_M_realloc_insertIJS1_EEEvN9__gnu_cxx17__normal_iteratorIPS1_S3_EEDpOT_+0x1dc>
  402bc0:	48 8b 45 a8          	mov    -0x58(%rbp),%rax
  402bc4:	48 89 c7             	mov    %rax,%rdi
  402bc7:	e8 d8 fb ff ff       	call   4027a4 <_ZNSt12_Vector_baseISt4pairIiiESaIS1_EE19_M_get_Tp_allocatorEv>
  402bcc:	48 89 c2             	mov    %rax,%rdx
  402bcf:	48 8b 4d d0          	mov    -0x30(%rbp),%rcx
  402bd3:	48 8b 45 d8          	mov    -0x28(%rbp),%rax
  402bd7:	48 89 ce             	mov    %rcx,%rsi
  402bda:	48 89 c7             	mov    %rax,%rdi
  402bdd:	e8 d0 fb ff ff       	call   4027b2 <_ZSt8_DestroyIPSt4pairIiiES1_EvT_S3_RSaIT0_E>
  402be2:	48 8b 45 a8          	mov    -0x58(%rbp),%rax
  402be6:	48 8b 55 a8          	mov    -0x58(%rbp),%rdx
  402bea:	48 8b 52 10          	mov    0x10(%rdx),%rdx
  402bee:	48 2b 55 d8          	sub    -0x28(%rbp),%rdx
  402bf2:	48 c1 fa 03          	sar    $0x3,%rdx
  402bf6:	48 8b 4d d8          	mov    -0x28(%rbp),%rcx
  402bfa:	48 89 ce             	mov    %rcx,%rsi
  402bfd:	48 89 c7             	mov    %rax,%rdi
  402c00:	e8 69 fb ff ff       	call   40276e <_ZNSt12_Vector_baseISt4pairIiiESaIS1_EE13_M_deallocateEPS1_m>
  402c05:	48 8b 45 a8          	mov    -0x58(%rbp),%rax
  402c09:	48 8b 55 c0          	mov    -0x40(%rbp),%rdx
  402c0d:	48 89 10             	mov    %rdx,(%rax)
  402c10:	48 8b 45 a8          	mov    -0x58(%rbp),%rax
  402c14:	48 8b 55 e8          	mov    -0x18(%rbp),%rdx
  402c18:	48 89 50 08          	mov    %rdx,0x8(%rax)
  402c1c:	48 8b 45 e0          	mov    -0x20(%rbp),%rax
  402c20:	48 8d 14 c5 00 00 00 	lea    0x0(,%rax,8),%rdx
  402c27:	00 
  402c28:	48 8b 45 c0          	mov    -0x40(%rbp),%rax
  402c2c:	48 01 c2             	add    %rax,%rdx
  402c2f:	48 8b 45 a8          	mov    -0x58(%rbp),%rax
  402c33:	48 89 50 10          	mov    %rdx,0x10(%rax)
  402c37:	e9 84 00 00 00       	jmp    402cc0 <_ZNSt6vectorISt4pairIiiESaIS1_EE17_M_realloc_insertIJS1_EEEvN9__gnu_cxx17__normal_iteratorIPS1_S3_EEDpOT_+0x2ba>
  402c3c:	48 89 c7             	mov    %rax,%rdi
  402c3f:	e8 2c e4 ff ff       	call   401070 <__cxa_begin_catch@plt>
  402c44:	48 83 7d e8 00       	cmpq   $0x0,-0x18(%rbp)
  402c49:	75 24                	jne    402c6f <_ZNSt6vectorISt4pairIiiESaIS1_EE17_M_realloc_insertIJS1_EEEvN9__gnu_cxx17__normal_iteratorIPS1_S3_EEDpOT_+0x269>
  402c4b:	48 8b 45 c8          	mov    -0x38(%rbp),%rax
  402c4f:	48 8d 14 c5 00 00 00 	lea    0x0(,%rax,8),%rdx
  402c56:	00 
  402c57:	48 8b 45 c0          	mov    -0x40(%rbp),%rax
  402c5b:	48 01 c2             	add    %rax,%rdx
  402c5e:	48 8b 45 a8          	mov    -0x58(%rbp),%rax
  402c62:	48 89 d6             	mov    %rdx,%rsi
  402c65:	48 89 c7             	mov    %rax,%rdi
  402c68:	e8 0a 03 00 00       	call   402f77 <_ZNSt16allocator_traitsISaISt4pairIiiEEE7destroyIS1_EEvRS2_PT_>
  402c6d:	eb 22                	jmp    402c91 <_ZNSt6vectorISt4pairIiiESaIS1_EE17_M_realloc_insertIJS1_EEEvN9__gnu_cxx17__normal_iteratorIPS1_S3_EEDpOT_+0x28b>
  402c6f:	48 8b 45 a8          	mov    -0x58(%rbp),%rax
  402c73:	48 89 c7             	mov    %rax,%rdi
  402c76:	e8 29 fb ff ff       	call   4027a4 <_ZNSt12_Vector_baseISt4pairIiiESaIS1_EE19_M_get_Tp_allocatorEv>
  402c7b:	48 89 c2             	mov    %rax,%rdx
  402c7e:	48 8b 4d e8          	mov    -0x18(%rbp),%rcx
  402c82:	48 8b 45 c0          	mov    -0x40(%rbp),%rax
  402c86:	48 89 ce             	mov    %rcx,%rsi
  402c89:	48 89 c7             	mov    %rax,%rdi
  402c8c:	e8 21 fb ff ff       	call   4027b2 <_ZSt8_DestroyIPSt4pairIiiES1_EvT_S3_RSaIT0_E>
  402c91:	48 8b 45 a8          	mov    -0x58(%rbp),%rax
  402c95:	48 8b 55 e0          	mov    -0x20(%rbp),%rdx
  402c99:	48 8b 4d c0          	mov    -0x40(%rbp),%rcx
  402c9d:	48 89 ce             	mov    %rcx,%rsi
  402ca0:	48 89 c7             	mov    %rax,%rdi
  402ca3:	e8 c6 fa ff ff       	call   40276e <_ZNSt12_Vector_baseISt4pairIiiESaIS1_EE13_M_deallocateEPS1_m>
  402ca8:	e8 83 e4 ff ff       	call   401130 <__cxa_rethrow@plt>
  402cad:	48 89 c3             	mov    %rax,%rbx
  402cb0:	e8 ab e4 ff ff       	call   401160 <__cxa_end_catch@plt>
  402cb5:	48 89 d8             	mov    %rbx,%rax
  402cb8:	48 89 c7             	mov    %rax,%rdi
  402cbb:	e8 c0 e4 ff ff       	call   401180 <_Unwind_Resume@plt>
  402cc0:	48 8b 5d f8          	mov    -0x8(%rbp),%rbx
  402cc4:	c9                   	leave  
  402cc5:	c3                   	ret    

0000000000402cc6 <_ZN9__gnu_cxx17__normal_iteratorIPKSt4pairIiiESt6vectorIS2_SaIS2_EEEC1ERKS4_>:
  402cc6:	55                   	push   %rbp
  402cc7:	48 89 e5             	mov    %rsp,%rbp
  402cca:	48 89 7d f8          	mov    %rdi,-0x8(%rbp)
  402cce:	48 89 75 f0          	mov    %rsi,-0x10(%rbp)
  402cd2:	48 8b 45 f0          	mov    -0x10(%rbp),%rax
  402cd6:	48 8b 10             	mov    (%rax),%rdx
  402cd9:	48 8b 45 f8          	mov    -0x8(%rbp),%rax
  402cdd:	48 89 10             	mov    %rdx,(%rax)
  402ce0:	90                   	nop
  402ce1:	5d                   	pop    %rbp
  402ce2:	c3                   	ret    
  402ce3:	90                   	nop

0000000000402ce4 <_ZNK9__gnu_cxx17__normal_iteratorIPKSt4pairIiiESt6vectorIS2_SaIS2_EEE4baseEv>:
  402ce4:	55                   	push   %rbp
  402ce5:	48 89 e5             	mov    %rsp,%rbp
  402ce8:	48 89 7d f8          	mov    %rdi,-0x8(%rbp)
  402cec:	48 8b 45 f8          	mov    -0x8(%rbp),%rax
  402cf0:	5d                   	pop    %rbp
  402cf1:	c3                   	ret    

0000000000402cf2 <_ZN9__gnu_cxx13new_allocatorISt4pairIiiEE10deallocateEPS2_m>:
  402cf2:	55                   	push   %rbp
  402cf3:	48 89 e5             	mov    %rsp,%rbp
  402cf6:	48 83 ec 20          	sub    $0x20,%rsp
  402cfa:	48 89 7d f8          	mov    %rdi,-0x8(%rbp)
  402cfe:	48 89 75 f0          	mov    %rsi,-0x10(%rbp)
  402d02:	48 89 55 e8          	mov    %rdx,-0x18(%rbp)
  402d06:	48 8b 45 f0          	mov    -0x10(%rbp),%rax
  402d0a:	48 89 c7             	mov    %rax,%rdi
  402d0d:	e8 be e3 ff ff       	call   4010d0 <_ZdlPv@plt>
  402d12:	90                   	nop
  402d13:	c9                   	leave  
  402d14:	c3                   	ret    

0000000000402d15 <_ZNSt12_Destroy_auxILb1EE9__destroyIPSt4pairIiiEEEvT_S5_>:
  402d15:	55                   	push   %rbp
  402d16:	48 89 e5             	mov    %rsp,%rbp
  402d19:	48 89 7d f8          	mov    %rdi,-0x8(%rbp)
  402d1d:	48 89 75 f0          	mov    %rsi,-0x10(%rbp)
  402d21:	90                   	nop
  402d22:	5d                   	pop    %rbp
  402d23:	c3                   	ret    

0000000000402d24 <_ZN9__gnu_cxx13new_allocatorISt4pairIiiEE9constructIS2_JS2_EEEvPT_DpOT0_>:
  402d24:	55                   	push   %rbp
  402d25:	48 89 e5             	mov    %rsp,%rbp
  402d28:	53                   	push   %rbx
  402d29:	48 83 ec 28          	sub    $0x28,%rsp
  402d2d:	48 89 7d e8          	mov    %rdi,-0x18(%rbp)
  402d31:	48 89 75 e0          	mov    %rsi,-0x20(%rbp)
  402d35:	48 89 55 d8          	mov    %rdx,-0x28(%rbp)
  402d39:	48 8b 45 d8          	mov    -0x28(%rbp),%rax
  402d3d:	48 89 c7             	mov    %rax,%rdi
  402d40:	e8 36 fc ff ff       	call   40297b <_ZSt7forwardISt4pairIiiEEOT_RNSt16remove_referenceIS2_E4typeE>
  402d45:	48 89 c3             	mov    %rax,%rbx
  402d48:	48 8b 45 e0          	mov    -0x20(%rbp),%rax
  402d4c:	48 89 c6             	mov    %rax,%rsi
  402d4f:	bf 08 00 00 00       	mov    $0x8,%edi
  402d54:	e8 c7 e8 ff ff       	call   401620 <_ZnwmPv>
  402d59:	48 8b 13             	mov    (%rbx),%rdx
  402d5c:	48 89 10             	mov    %rdx,(%rax)
  402d5f:	90                   	nop
  402d60:	48 8b 5d f8          	mov    -0x8(%rbp),%rbx
  402d64:	c9                   	leave  
  402d65:	c3                   	ret    

0000000000402d66 <_ZN9__gnu_cxx17__normal_iteratorIPSt4pairIiiESt6vectorIS2_SaIS2_EEEC1ERKS3_>:
  402d66:	55                   	push   %rbp
  402d67:	48 89 e5             	mov    %rsp,%rbp
  402d6a:	48 89 7d f8          	mov    %rdi,-0x8(%rbp)
  402d6e:	48 89 75 f0          	mov    %rsi,-0x10(%rbp)
  402d72:	48 8b 45 f0          	mov    -0x10(%rbp),%rax
  402d76:	48 8b 10             	mov    (%rax),%rdx
  402d79:	48 8b 45 f8          	mov    -0x8(%rbp),%rax
  402d7d:	48 89 10             	mov    %rdx,(%rax)
  402d80:	90                   	nop
  402d81:	5d                   	pop    %rbp
  402d82:	c3                   	ret    
  402d83:	90                   	nop

0000000000402d84 <_ZNKSt6vectorISt4pairIiiESaIS1_EE12_M_check_lenEmPKc>:
  402d84:	55                   	push   %rbp
  402d85:	48 89 e5             	mov    %rsp,%rbp
  402d88:	53                   	push   %rbx
  402d89:	48 83 ec 38          	sub    $0x38,%rsp
  402d8d:	48 89 7d d8          	mov    %rdi,-0x28(%rbp)
  402d91:	48 89 75 d0          	mov    %rsi,-0x30(%rbp)
  402d95:	48 89 55 c8          	mov    %rdx,-0x38(%rbp)
  402d99:	48 8b 45 d8          	mov    -0x28(%rbp),%rax
  402d9d:	48 89 c7             	mov    %rax,%rdi
  402da0:	e8 f9 01 00 00       	call   402f9e <_ZNKSt6vectorISt4pairIiiESaIS1_EE8max_sizeEv>
  402da5:	48 89 c3             	mov    %rax,%rbx
  402da8:	48 8b 45 d8          	mov    -0x28(%rbp),%rax
  402dac:	48 89 c7             	mov    %rax,%rdi
  402daf:	e8 20 f9 ff ff       	call   4026d4 <_ZNKSt6vectorISt4pairIiiESaIS1_EE4sizeEv>
  402db4:	48 29 c3             	sub    %rax,%rbx
  402db7:	48 89 da             	mov    %rbx,%rdx
  402dba:	48 8b 45 d0          	mov    -0x30(%rbp),%rax
  402dbe:	48 39 c2             	cmp    %rax,%rdx
  402dc1:	0f 92 c0             	setb   %al
  402dc4:	84 c0                	test   %al,%al
  402dc6:	74 0c                	je     402dd4 <_ZNKSt6vectorISt4pairIiiESaIS1_EE12_M_check_lenEmPKc+0x50>
  402dc8:	48 8b 45 c8          	mov    -0x38(%rbp),%rax
  402dcc:	48 89 c7             	mov    %rax,%rdi
  402dcf:	e8 bc e2 ff ff       	call   401090 <_ZSt20__throw_length_errorPKc@plt>
  402dd4:	48 8b 45 d8          	mov    -0x28(%rbp),%rax
  402dd8:	48 89 c7             	mov    %rax,%rdi
  402ddb:	e8 f4 f8 ff ff       	call   4026d4 <_ZNKSt6vectorISt4pairIiiESaIS1_EE4sizeEv>
  402de0:	48 89 c3             	mov    %rax,%rbx
  402de3:	48 8b 45 d8          	mov    -0x28(%rbp),%rax
  402de7:	48 89 c7             	mov    %rax,%rdi
  402dea:	e8 e5 f8 ff ff       	call   4026d4 <_ZNKSt6vectorISt4pairIiiESaIS1_EE4sizeEv>
  402def:	48 89 45 e0          	mov    %rax,-0x20(%rbp)
  402df3:	48 8d 55 d0          	lea    -0x30(%rbp),%rdx
  402df7:	48 8d 45 e0          	lea    -0x20(%rbp),%rax
  402dfb:	48 89 d6             	mov    %rdx,%rsi
  402dfe:	48 89 c7             	mov    %rax,%rdi
  402e01:	e8 ba 01 00 00       	call   402fc0 <_ZSt3maxImERKT_S2_S2_>
  402e06:	48 8b 00             	mov    (%rax),%rax
  402e09:	48 01 d8             	add    %rbx,%rax
  402e0c:	48 89 45 e8          	mov    %rax,-0x18(%rbp)
  402e10:	48 8b 45 d8          	mov    -0x28(%rbp),%rax
  402e14:	48 89 c7             	mov    %rax,%rdi
  402e17:	e8 b8 f8 ff ff       	call   4026d4 <_ZNKSt6vectorISt4pairIiiESaIS1_EE4sizeEv>
  402e1c:	48 39 45 e8          	cmp    %rax,-0x18(%rbp)
  402e20:	72 12                	jb     402e34 <_ZNKSt6vectorISt4pairIiiESaIS1_EE12_M_check_lenEmPKc+0xb0>
  402e22:	48 8b 45 d8          	mov    -0x28(%rbp),%rax
  402e26:	48 89 c7             	mov    %rax,%rdi
  402e29:	e8 70 01 00 00       	call   402f9e <_ZNKSt6vectorISt4pairIiiESaIS1_EE8max_sizeEv>
  402e2e:	48 39 45 e8          	cmp    %rax,-0x18(%rbp)
  402e32:	76 0e                	jbe    402e42 <_ZNKSt6vectorISt4pairIiiESaIS1_EE12_M_check_lenEmPKc+0xbe>
  402e34:	48 8b 45 d8          	mov    -0x28(%rbp),%rax
  402e38:	48 89 c7             	mov    %rax,%rdi
  402e3b:	e8 5e 01 00 00       	call   402f9e <_ZNKSt6vectorISt4pairIiiESaIS1_EE8max_sizeEv>
  402e40:	eb 04                	jmp    402e46 <_ZNKSt6vectorISt4pairIiiESaIS1_EE12_M_check_lenEmPKc+0xc2>
  402e42:	48 8b 45 e8          	mov    -0x18(%rbp),%rax
  402e46:	48 8b 5d f8          	mov    -0x8(%rbp),%rbx
  402e4a:	c9                   	leave  
  402e4b:	c3                   	ret    

0000000000402e4c <_ZNSt6vectorISt4pairIiiESaIS1_EE5beginEv>:
  402e4c:	55                   	push   %rbp
  402e4d:	48 89 e5             	mov    %rsp,%rbp
  402e50:	48 83 ec 20          	sub    $0x20,%rsp
  402e54:	48 89 7d e8          	mov    %rdi,-0x18(%rbp)
  402e58:	48 8b 55 e8          	mov    -0x18(%rbp),%rdx
  402e5c:	48 8d 45 f8          	lea    -0x8(%rbp),%rax
  402e60:	48 89 d6             	mov    %rdx,%rsi
  402e63:	48 89 c7             	mov    %rax,%rdi
  402e66:	e8 fb fe ff ff       	call   402d66 <_ZN9__gnu_cxx17__normal_iteratorIPSt4pairIiiESt6vectorIS2_SaIS2_EEEC1ERKS3_>
  402e6b:	48 8b 45 f8          	mov    -0x8(%rbp),%rax
  402e6f:	c9                   	leave  
  402e70:	c3                   	ret    

0000000000402e71 <_ZN9__gnu_cxxmiIPSt4pairIiiESt6vectorIS2_SaIS2_EEEENS_17__normal_iteratorIT_T0_E15difference_typeERKSA_SD_>:
  402e71:	55                   	push   %rbp
  402e72:	48 89 e5             	mov    %rsp,%rbp
  402e75:	53                   	push   %rbx
  402e76:	48 83 ec 18          	sub    $0x18,%rsp
  402e7a:	48 89 7d e8          	mov    %rdi,-0x18(%rbp)
  402e7e:	48 89 75 e0          	mov    %rsi,-0x20(%rbp)
  402e82:	48 8b 45 e8          	mov    -0x18(%rbp),%rax
  402e86:	48 89 c7             	mov    %rax,%rdi
  402e89:	e8 88 00 00 00       	call   402f16 <_ZNK9__gnu_cxx17__normal_iteratorIPSt4pairIiiESt6vectorIS2_SaIS2_EEE4baseEv>
  402e8e:	48 8b 18             	mov    (%rax),%rbx
  402e91:	48 8b 45 e0          	mov    -0x20(%rbp),%rax
  402e95:	48 89 c7             	mov    %rax,%rdi
  402e98:	e8 79 00 00 00       	call   402f16 <_ZNK9__gnu_cxx17__normal_iteratorIPSt4pairIiiESt6vectorIS2_SaIS2_EEE4baseEv>
  402e9d:	48 8b 10             	mov    (%rax),%rdx
  402ea0:	48 89 d8             	mov    %rbx,%rax
  402ea3:	48 29 d0             	sub    %rdx,%rax
  402ea6:	48 c1 f8 03          	sar    $0x3,%rax
  402eaa:	48 8b 5d f8          	mov    -0x8(%rbp),%rbx
  402eae:	c9                   	leave  
  402eaf:	c3                   	ret    

0000000000402eb0 <_ZNSt12_Vector_baseISt4pairIiiESaIS1_EE11_M_allocateEm>:
  402eb0:	55                   	push   %rbp
  402eb1:	48 89 e5             	mov    %rsp,%rbp
  402eb4:	48 83 ec 10          	sub    $0x10,%rsp
  402eb8:	48 89 7d f8          	mov    %rdi,-0x8(%rbp)
  402ebc:	48 89 75 f0          	mov    %rsi,-0x10(%rbp)
  402ec0:	48 83 7d f0 00       	cmpq   $0x0,-0x10(%rbp)
  402ec5:	74 15                	je     402edc <_ZNSt12_Vector_baseISt4pairIiiESaIS1_EE11_M_allocateEm+0x2c>
  402ec7:	48 8b 45 f8          	mov    -0x8(%rbp),%rax
  402ecb:	48 8b 55 f0          	mov    -0x10(%rbp),%rdx
  402ecf:	48 89 d6             	mov    %rdx,%rsi
  402ed2:	48 89 c7             	mov    %rax,%rdi
  402ed5:	e8 11 01 00 00       	call   402feb <_ZNSt16allocator_traitsISaISt4pairIiiEEE8allocateERS2_m>
  402eda:	eb 05                	jmp    402ee1 <_ZNSt12_Vector_baseISt4pairIiiESaIS1_EE11_M_allocateEm+0x31>
  402edc:	b8 00 00 00 00       	mov    $0x0,%eax
  402ee1:	c9                   	leave  
  402ee2:	c3                   	ret    

0000000000402ee3 <_ZNSt6vectorISt4pairIiiESaIS1_EE11_S_relocateEPS1_S4_S4_RS2_>:
  402ee3:	55                   	push   %rbp
  402ee4:	48 89 e5             	mov    %rsp,%rbp
  402ee7:	48 83 ec 20          	sub    $0x20,%rsp
  402eeb:	48 89 7d f8          	mov    %rdi,-0x8(%rbp)
  402eef:	48 89 75 f0          	mov    %rsi,-0x10(%rbp)
  402ef3:	48 89 55 e8          	mov    %rdx,-0x18(%rbp)
  402ef7:	48 89 4d e0          	mov    %rcx,-0x20(%rbp)
  402efb:	48 8b 4d e0          	mov    -0x20(%rbp),%rcx
  402eff:	48 8b 55 e8          	mov    -0x18(%rbp),%rdx
  402f03:	48 8b 75 f0          	mov    -0x10(%rbp),%rsi
  402f07:	48 8b 45 f8          	mov    -0x8(%rbp),%rax
  402f0b:	48 89 c7             	mov    %rax,%rdi
  402f0e:	e8 02 01 00 00       	call   403015 <_ZNSt6vectorISt4pairIiiESaIS1_EE14_S_do_relocateEPS1_S4_S4_RS2_St17integral_constantIbLb1EE>
  402f13:	c9                   	leave  
  402f14:	c3                   	ret    
  402f15:	90                   	nop

0000000000402f16 <_ZNK9__gnu_cxx17__normal_iteratorIPSt4pairIiiESt6vectorIS2_SaIS2_EEE4baseEv>:
  402f16:	55                   	push   %rbp
  402f17:	48 89 e5             	mov    %rsp,%rbp
  402f1a:	48 89 7d f8          	mov    %rdi,-0x8(%rbp)
  402f1e:	48 8b 45 f8          	mov    -0x8(%rbp),%rax
  402f22:	5d                   	pop    %rbp
  402f23:	c3                   	ret    

0000000000402f24 <_ZSt34__uninitialized_move_if_noexcept_aIPSt4pairIiiES2_SaIS1_EET0_T_S5_S4_RT1_>:
  402f24:	55                   	push   %rbp
  402f25:	48 89 e5             	mov    %rsp,%rbp
  402f28:	53                   	push   %rbx
  402f29:	48 83 ec 28          	sub    $0x28,%rsp
  402f2d:	48 89 7d e8          	mov    %rdi,-0x18(%rbp)
  402f31:	48 89 75 e0          	mov    %rsi,-0x20(%rbp)
  402f35:	48 89 55 d8          	mov    %rdx,-0x28(%rbp)
  402f39:	48 89 4d d0          	mov    %rcx,-0x30(%rbp)
  402f3d:	48 8b 45 e0          	mov    -0x20(%rbp),%rax
  402f41:	48 89 c7             	mov    %rax,%rdi
  402f44:	e8 fe 00 00 00       	call   403047 <_ZSt32__make_move_if_noexcept_iteratorISt4pairIiiESt13move_iteratorIPS1_EET0_PT_>
  402f49:	48 89 c3             	mov    %rax,%rbx
  402f4c:	48 8b 45 e8          	mov    -0x18(%rbp),%rax
  402f50:	48 89 c7             	mov    %rax,%rdi
  402f53:	e8 ef 00 00 00       	call   403047 <_ZSt32__make_move_if_noexcept_iteratorISt4pairIiiESt13move_iteratorIPS1_EET0_PT_>
  402f58:	48 89 c7             	mov    %rax,%rdi
  402f5b:	48 8b 55 d0          	mov    -0x30(%rbp),%rdx
  402f5f:	48 8b 45 d8          	mov    -0x28(%rbp),%rax
  402f63:	48 89 d1             	mov    %rdx,%rcx
  402f66:	48 89 c2             	mov    %rax,%rdx
  402f69:	48 89 de             	mov    %rbx,%rsi
  402f6c:	e8 fb 00 00 00       	call   40306c <_ZSt22__uninitialized_copy_aISt13move_iteratorIPSt4pairIiiEES3_S2_ET0_T_S6_S5_RSaIT1_E>
  402f71:	48 8b 5d f8          	mov    -0x8(%rbp),%rbx
  402f75:	c9                   	leave  
  402f76:	c3                   	ret    

0000000000402f77 <_ZNSt16allocator_traitsISaISt4pairIiiEEE7destroyIS1_EEvRS2_PT_>:
  402f77:	55                   	push   %rbp
  402f78:	48 89 e5             	mov    %rsp,%rbp
  402f7b:	48 83 ec 10          	sub    $0x10,%rsp
  402f7f:	48 89 7d f8          	mov    %rdi,-0x8(%rbp)
  402f83:	48 89 75 f0          	mov    %rsi,-0x10(%rbp)
  402f87:	48 8b 55 f0          	mov    -0x10(%rbp),%rdx
  402f8b:	48 8b 45 f8          	mov    -0x8(%rbp),%rax
  402f8f:	48 89 d6             	mov    %rdx,%rsi
  402f92:	48 89 c7             	mov    %rax,%rdi
  402f95:	e8 04 01 00 00       	call   40309e <_ZN9__gnu_cxx13new_allocatorISt4pairIiiEE7destroyIS2_EEvPT_>
  402f9a:	90                   	nop
  402f9b:	c9                   	leave  
  402f9c:	c3                   	ret    
  402f9d:	90                   	nop

0000000000402f9e <_ZNKSt6vectorISt4pairIiiESaIS1_EE8max_sizeEv>:
  402f9e:	55                   	push   %rbp
  402f9f:	48 89 e5             	mov    %rsp,%rbp
  402fa2:	48 83 ec 10          	sub    $0x10,%rsp
  402fa6:	48 89 7d f8          	mov    %rdi,-0x8(%rbp)
  402faa:	48 8b 45 f8          	mov    -0x8(%rbp),%rax
  402fae:	48 89 c7             	mov    %rax,%rdi
  402fb1:	e8 3a 01 00 00       	call   4030f0 <_ZNKSt12_Vector_baseISt4pairIiiESaIS1_EE19_M_get_Tp_allocatorEv>
  402fb6:	48 89 c7             	mov    %rax,%rdi
  402fb9:	e8 ef 00 00 00       	call   4030ad <_ZNSt6vectorISt4pairIiiESaIS1_EE11_S_max_sizeERKS2_>
  402fbe:	c9                   	leave  
  402fbf:	c3                   	ret    

0000000000402fc0 <_ZSt3maxImERKT_S2_S2_>:
  402fc0:	55                   	push   %rbp
  402fc1:	48 89 e5             	mov    %rsp,%rbp
  402fc4:	48 89 7d f8          	mov    %rdi,-0x8(%rbp)
  402fc8:	48 89 75 f0          	mov    %rsi,-0x10(%rbp)
  402fcc:	48 8b 45 f8          	mov    -0x8(%rbp),%rax
  402fd0:	48 8b 10             	mov    (%rax),%rdx
  402fd3:	48 8b 45 f0          	mov    -0x10(%rbp),%rax
  402fd7:	48 8b 00             	mov    (%rax),%rax
  402fda:	48 39 c2             	cmp    %rax,%rdx
  402fdd:	73 06                	jae    402fe5 <_ZSt3maxImERKT_S2_S2_+0x25>
  402fdf:	48 8b 45 f0          	mov    -0x10(%rbp),%rax
  402fe3:	eb 04                	jmp    402fe9 <_ZSt3maxImERKT_S2_S2_+0x29>
  402fe5:	48 8b 45 f8          	mov    -0x8(%rbp),%rax
  402fe9:	5d                   	pop    %rbp
  402fea:	c3                   	ret    

0000000000402feb <_ZNSt16allocator_traitsISaISt4pairIiiEEE8allocateERS2_m>:
  402feb:	55                   	push   %rbp
  402fec:	48 89 e5             	mov    %rsp,%rbp
  402fef:	48 83 ec 10          	sub    $0x10,%rsp
  402ff3:	48 89 7d f8          	mov    %rdi,-0x8(%rbp)
  402ff7:	48 89 75 f0          	mov    %rsi,-0x10(%rbp)
  402ffb:	48 8b 4d f0          	mov    -0x10(%rbp),%rcx
  402fff:	48 8b 45 f8          	mov    -0x8(%rbp),%rax
  403003:	ba 00 00 00 00       	mov    $0x0,%edx
  403008:	48 89 ce             	mov    %rcx,%rsi
  40300b:	48 89 c7             	mov    %rax,%rdi
  40300e:	e8 eb 00 00 00       	call   4030fe <_ZN9__gnu_cxx13new_allocatorISt4pairIiiEE8allocateEmPKv>
  403013:	c9                   	leave  
  403014:	c3                   	ret    

0000000000403015 <_ZNSt6vectorISt4pairIiiESaIS1_EE14_S_do_relocateEPS1_S4_S4_RS2_St17integral_constantIbLb1EE>:
  403015:	55                   	push   %rbp
  403016:	48 89 e5             	mov    %rsp,%rbp
  403019:	48 83 ec 20          	sub    $0x20,%rsp
  40301d:	48 89 7d f8          	mov    %rdi,-0x8(%rbp)
  403021:	48 89 75 f0          	mov    %rsi,-0x10(%rbp)
  403025:	48 89 55 e8          	mov    %rdx,-0x18(%rbp)
  403029:	48 89 4d e0          	mov    %rcx,-0x20(%rbp)
  40302d:	48 8b 4d e0          	mov    -0x20(%rbp),%rcx
  403031:	48 8b 55 e8          	mov    -0x18(%rbp),%rdx
  403035:	48 8b 75 f0          	mov    -0x10(%rbp),%rsi
  403039:	48 8b 45 f8          	mov    -0x8(%rbp),%rax
  40303d:	48 89 c7             	mov    %rax,%rdi
  403040:	e8 19 01 00 00       	call   40315e <_ZSt12__relocate_aIPSt4pairIiiES2_SaIS1_EET0_T_S5_S4_RT1_>
  403045:	c9                   	leave  
  403046:	c3                   	ret    

0000000000403047 <_ZSt32__make_move_if_noexcept_iteratorISt4pairIiiESt13move_iteratorIPS1_EET0_PT_>:
  403047:	55                   	push   %rbp
  403048:	48 89 e5             	mov    %rsp,%rbp
  40304b:	48 83 ec 20          	sub    $0x20,%rsp
  40304f:	48 89 7d e8          	mov    %rdi,-0x18(%rbp)
  403053:	48 8b 55 e8          	mov    -0x18(%rbp),%rdx
  403057:	48 8d 45 f8          	lea    -0x8(%rbp),%rax
  40305b:	48 89 d6             	mov    %rdx,%rsi
  40305e:	48 89 c7             	mov    %rax,%rdi
  403061:	e8 5c 01 00 00       	call   4031c2 <_ZNSt13move_iteratorIPSt4pairIiiEEC1ES2_>
  403066:	48 8b 45 f8          	mov    -0x8(%rbp),%rax
  40306a:	c9                   	leave  
  40306b:	c3                   	ret    

000000000040306c <_ZSt22__uninitialized_copy_aISt13move_iteratorIPSt4pairIiiEES3_S2_ET0_T_S6_S5_RSaIT1_E>:
  40306c:	55                   	push   %rbp
  40306d:	48 89 e5             	mov    %rsp,%rbp
  403070:	48 83 ec 20          	sub    $0x20,%rsp
  403074:	48 89 7d f8          	mov    %rdi,-0x8(%rbp)
  403078:	48 89 75 f0          	mov    %rsi,-0x10(%rbp)
  40307c:	48 89 55 e8          	mov    %rdx,-0x18(%rbp)
  403080:	48 89 4d e0          	mov    %rcx,-0x20(%rbp)
  403084:	48 8b 55 e8          	mov    -0x18(%rbp),%rdx
  403088:	48 8b 4d f0          	mov    -0x10(%rbp),%rcx
  40308c:	48 8b 45 f8          	mov    -0x8(%rbp),%rax
  403090:	48 89 ce             	mov    %rcx,%rsi
  403093:	48 89 c7             	mov    %rax,%rdi
  403096:	e8 50 01 00 00       	call   4031eb <_ZSt18uninitialized_copyISt13move_iteratorIPSt4pairIiiEES3_ET0_T_S6_S5_>
  40309b:	c9                   	leave  
  40309c:	c3                   	ret    
  40309d:	90                   	nop

000000000040309e <_ZN9__gnu_cxx13new_allocatorISt4pairIiiEE7destroyIS2_EEvPT_>:
  40309e:	55                   	push   %rbp
  40309f:	48 89 e5             	mov    %rsp,%rbp
  4030a2:	48 89 7d f8          	mov    %rdi,-0x8(%rbp)
  4030a6:	48 89 75 f0          	mov    %rsi,-0x10(%rbp)
  4030aa:	90                   	nop
  4030ab:	5d                   	pop    %rbp
  4030ac:	c3                   	ret    

00000000004030ad <_ZNSt6vectorISt4pairIiiESaIS1_EE11_S_max_sizeERKS2_>:
  4030ad:	55                   	push   %rbp
  4030ae:	48 89 e5             	mov    %rsp,%rbp
  4030b1:	48 83 ec 20          	sub    $0x20,%rsp
  4030b5:	48 89 7d e8          	mov    %rdi,-0x18(%rbp)
  4030b9:	48 b8 ff ff ff ff ff 	movabs $0xfffffffffffffff,%rax
  4030c0:	ff ff 0f 
  4030c3:	48 89 45 f8          	mov    %rax,-0x8(%rbp)
  4030c7:	48 8b 45 e8          	mov    -0x18(%rbp),%rax
  4030cb:	48 89 c7             	mov    %rax,%rdi
  4030ce:	e8 49 01 00 00       	call   40321c <_ZNSt16allocator_traitsISaISt4pairIiiEEE8max_sizeERKS2_>
  4030d3:	48 89 45 f0          	mov    %rax,-0x10(%rbp)
  4030d7:	48 8d 55 f0          	lea    -0x10(%rbp),%rdx
  4030db:	48 8d 45 f8          	lea    -0x8(%rbp),%rax
  4030df:	48 89 d6             	mov    %rdx,%rsi
  4030e2:	48 89 c7             	mov    %rax,%rdi
  4030e5:	e8 4c 01 00 00       	call   403236 <_ZSt3minImERKT_S2_S2_>
  4030ea:	48 8b 00             	mov    (%rax),%rax
  4030ed:	c9                   	leave  
  4030ee:	c3                   	ret    
  4030ef:	90                   	nop

00000000004030f0 <_ZNKSt12_Vector_baseISt4pairIiiESaIS1_EE19_M_get_Tp_allocatorEv>:
  4030f0:	55                   	push   %rbp
  4030f1:	48 89 e5             	mov    %rsp,%rbp
  4030f4:	48 89 7d f8          	mov    %rdi,-0x8(%rbp)
  4030f8:	48 8b 45 f8          	mov    -0x8(%rbp),%rax
  4030fc:	5d                   	pop    %rbp
  4030fd:	c3                   	ret    

00000000004030fe <_ZN9__gnu_cxx13new_allocatorISt4pairIiiEE8allocateEmPKv>:
  4030fe:	55                   	push   %rbp
  4030ff:	48 89 e5             	mov    %rsp,%rbp
  403102:	48 83 ec 20          	sub    $0x20,%rsp
  403106:	48 89 7d f8          	mov    %rdi,-0x8(%rbp)
  40310a:	48 89 75 f0          	mov    %rsi,-0x10(%rbp)
  40310e:	48 89 55 e8          	mov    %rdx,-0x18(%rbp)
  403112:	48 8b 45 f8          	mov    -0x8(%rbp),%rax
  403116:	48 89 c7             	mov    %rax,%rdi
  403119:	e8 44 01 00 00       	call   403262 <_ZNK9__gnu_cxx13new_allocatorISt4pairIiiEE11_M_max_sizeEv>
  40311e:	48 39 45 f0          	cmp    %rax,-0x10(%rbp)
  403122:	0f 97 c0             	seta   %al
  403125:	0f b6 c0             	movzbl %al,%eax
  403128:	48 85 c0             	test   %rax,%rax
  40312b:	0f 95 c0             	setne  %al
  40312e:	84 c0                	test   %al,%al
  403130:	74 1a                	je     40314c <_ZN9__gnu_cxx13new_allocatorISt4pairIiiEE8allocateEmPKv+0x4e>
  403132:	48 b8 ff ff ff ff ff 	movabs $0x1fffffffffffffff,%rax
  403139:	ff ff 1f 
  40313c:	48 39 45 f0          	cmp    %rax,-0x10(%rbp)
  403140:	76 05                	jbe    403147 <_ZN9__gnu_cxx13new_allocatorISt4pairIiiEE8allocateEmPKv+0x49>
  403142:	e8 59 df ff ff       	call   4010a0 <_ZSt28__throw_bad_array_new_lengthv@plt>
  403147:	e8 14 df ff ff       	call   401060 <_ZSt17__throw_bad_allocv@plt>
  40314c:	48 8b 45 f0          	mov    -0x10(%rbp),%rax
  403150:	48 c1 e0 03          	shl    $0x3,%rax
  403154:	48 89 c7             	mov    %rax,%rdi
  403157:	e8 94 df ff ff       	call   4010f0 <_Znwm@plt>
  40315c:	c9                   	leave  
  40315d:	c3                   	ret    

000000000040315e <_ZSt12__relocate_aIPSt4pairIiiES2_SaIS1_EET0_T_S5_S4_RT1_>:
  40315e:	55                   	push   %rbp
  40315f:	48 89 e5             	mov    %rsp,%rbp
  403162:	41 54                	push   %r12
  403164:	53                   	push   %rbx
  403165:	48 83 ec 20          	sub    $0x20,%rsp
  403169:	48 89 7d e8          	mov    %rdi,-0x18(%rbp)
  40316d:	48 89 75 e0          	mov    %rsi,-0x20(%rbp)
  403171:	48 89 55 d8          	mov    %rdx,-0x28(%rbp)
  403175:	48 89 4d d0          	mov    %rcx,-0x30(%rbp)
  403179:	48 8b 45 d8          	mov    -0x28(%rbp),%rax
  40317d:	48 89 c7             	mov    %rax,%rdi
  403180:	e8 f1 00 00 00       	call   403276 <_ZSt12__niter_baseIPSt4pairIiiEET_S3_>
  403185:	49 89 c4             	mov    %rax,%r12
  403188:	48 8b 45 e0          	mov    -0x20(%rbp),%rax
  40318c:	48 89 c7             	mov    %rax,%rdi
  40318f:	e8 e2 00 00 00       	call   403276 <_ZSt12__niter_baseIPSt4pairIiiEET_S3_>
  403194:	48 89 c3             	mov    %rax,%rbx
  403197:	48 8b 45 e8          	mov    -0x18(%rbp),%rax
  40319b:	48 89 c7             	mov    %rax,%rdi
  40319e:	e8 d3 00 00 00       	call   403276 <_ZSt12__niter_baseIPSt4pairIiiEET_S3_>
  4031a3:	48 89 c7             	mov    %rax,%rdi
  4031a6:	48 8b 45 d0          	mov    -0x30(%rbp),%rax
  4031aa:	48 89 c1             	mov    %rax,%rcx
  4031ad:	4c 89 e2             	mov    %r12,%rdx
  4031b0:	48 89 de             	mov    %rbx,%rsi
  4031b3:	e8 cc 00 00 00       	call   403284 <_ZSt14__relocate_a_1IPSt4pairIiiES2_SaIS1_EET0_T_S5_S4_RT1_>
  4031b8:	48 83 c4 20          	add    $0x20,%rsp
  4031bc:	5b                   	pop    %rbx
  4031bd:	41 5c                	pop    %r12
  4031bf:	5d                   	pop    %rbp
  4031c0:	c3                   	ret    
  4031c1:	90                   	nop

00000000004031c2 <_ZNSt13move_iteratorIPSt4pairIiiEEC1ES2_>:
  4031c2:	55                   	push   %rbp
  4031c3:	48 89 e5             	mov    %rsp,%rbp
  4031c6:	48 83 ec 10          	sub    $0x10,%rsp
  4031ca:	48 89 7d f8          	mov    %rdi,-0x8(%rbp)
  4031ce:	48 89 75 f0          	mov    %rsi,-0x10(%rbp)
  4031d2:	48 8d 45 f0          	lea    -0x10(%rbp),%rax
  4031d6:	48 89 c7             	mov    %rax,%rdi
  4031d9:	e8 17 01 00 00       	call   4032f5 <_ZSt4moveIRPSt4pairIiiEEONSt16remove_referenceIT_E4typeEOS5_>
  4031de:	48 8b 10             	mov    (%rax),%rdx
  4031e1:	48 8b 45 f8          	mov    -0x8(%rbp),%rax
  4031e5:	48 89 10             	mov    %rdx,(%rax)
  4031e8:	90                   	nop
  4031e9:	c9                   	leave  
  4031ea:	c3                   	ret    

00000000004031eb <_ZSt18uninitialized_copyISt13move_iteratorIPSt4pairIiiEES3_ET0_T_S6_S5_>:
  4031eb:	55                   	push   %rbp
  4031ec:	48 89 e5             	mov    %rsp,%rbp
  4031ef:	48 83 ec 30          	sub    $0x30,%rsp
  4031f3:	48 89 7d e8          	mov    %rdi,-0x18(%rbp)
  4031f7:	48 89 75 e0          	mov    %rsi,-0x20(%rbp)
  4031fb:	48 89 55 d8          	mov    %rdx,-0x28(%rbp)
  4031ff:	c6 45 ff 01          	movb   $0x1,-0x1(%rbp)
  403203:	48 8b 55 d8          	mov    -0x28(%rbp),%rdx
  403207:	48 8b 4d e0          	mov    -0x20(%rbp),%rcx
  40320b:	48 8b 45 e8          	mov    -0x18(%rbp),%rax
  40320f:	48 89 ce             	mov    %rcx,%rsi
  403212:	48 89 c7             	mov    %rax,%rdi
  403215:	e8 e9 00 00 00       	call   403303 <_ZNSt20__uninitialized_copyILb0EE13__uninit_copyISt13move_iteratorIPSt4pairIiiEES5_EET0_T_S8_S7_>
  40321a:	c9                   	leave  
  40321b:	c3                   	ret    

000000000040321c <_ZNSt16allocator_traitsISaISt4pairIiiEEE8max_sizeERKS2_>:
  40321c:	55                   	push   %rbp
  40321d:	48 89 e5             	mov    %rsp,%rbp
  403220:	48 83 ec 10          	sub    $0x10,%rsp
  403224:	48 89 7d f8          	mov    %rdi,-0x8(%rbp)
  403228:	48 8b 45 f8          	mov    -0x8(%rbp),%rax
  40322c:	48 89 c7             	mov    %rax,%rdi
  40322f:	e8 7c 01 00 00       	call   4033b0 <_ZNK9__gnu_cxx13new_allocatorISt4pairIiiEE8max_sizeEv>
  403234:	c9                   	leave  
  403235:	c3                   	ret    

0000000000403236 <_ZSt3minImERKT_S2_S2_>:
  403236:	55                   	push   %rbp
  403237:	48 89 e5             	mov    %rsp,%rbp
  40323a:	48 89 7d f8          	mov    %rdi,-0x8(%rbp)
  40323e:	48 89 75 f0          	mov    %rsi,-0x10(%rbp)
  403242:	48 8b 45 f0          	mov    -0x10(%rbp),%rax
  403246:	48 8b 10             	mov    (%rax),%rdx
  403249:	48 8b 45 f8          	mov    -0x8(%rbp),%rax
  40324d:	48 8b 00             	mov    (%rax),%rax
  403250:	48 39 c2             	cmp    %rax,%rdx
  403253:	73 06                	jae    40325b <_ZSt3minImERKT_S2_S2_+0x25>
  403255:	48 8b 45 f0          	mov    -0x10(%rbp),%rax
  403259:	eb 04                	jmp    40325f <_ZSt3minImERKT_S2_S2_+0x29>
  40325b:	48 8b 45 f8          	mov    -0x8(%rbp),%rax
  40325f:	5d                   	pop    %rbp
  403260:	c3                   	ret    
  403261:	90                   	nop

0000000000403262 <_ZNK9__gnu_cxx13new_allocatorISt4pairIiiEE11_M_max_sizeEv>:
  403262:	55                   	push   %rbp
  403263:	48 89 e5             	mov    %rsp,%rbp
  403266:	48 89 7d f8          	mov    %rdi,-0x8(%rbp)
  40326a:	48 b8 ff ff ff ff ff 	movabs $0xfffffffffffffff,%rax
  403271:	ff ff 0f 
  403274:	5d                   	pop    %rbp
  403275:	c3                   	ret    

0000000000403276 <_ZSt12__niter_baseIPSt4pairIiiEET_S3_>:
  403276:	55                   	push   %rbp
  403277:	48 89 e5             	mov    %rsp,%rbp
  40327a:	48 89 7d f8          	mov    %rdi,-0x8(%rbp)
  40327e:	48 8b 45 f8          	mov    -0x8(%rbp),%rax
  403282:	5d                   	pop    %rbp
  403283:	c3                   	ret    

0000000000403284 <_ZSt14__relocate_a_1IPSt4pairIiiES2_SaIS1_EET0_T_S5_S4_RT1_>:
  403284:	55                   	push   %rbp
  403285:	48 89 e5             	mov    %rsp,%rbp
  403288:	53                   	push   %rbx
  403289:	48 83 ec 38          	sub    $0x38,%rsp
  40328d:	48 89 7d d8          	mov    %rdi,-0x28(%rbp)
  403291:	48 89 75 d0          	mov    %rsi,-0x30(%rbp)
  403295:	48 89 55 c8          	mov    %rdx,-0x38(%rbp)
  403299:	48 89 4d c0          	mov    %rcx,-0x40(%rbp)
  40329d:	48 8b 45 c8          	mov    -0x38(%rbp),%rax
  4032a1:	48 89 45 e8          	mov    %rax,-0x18(%rbp)
  4032a5:	eb 3a                	jmp    4032e1 <_ZSt14__relocate_a_1IPSt4pairIiiES2_SaIS1_EET0_T_S5_S4_RT1_+0x5d>
  4032a7:	48 8b 45 d8          	mov    -0x28(%rbp),%rax
  4032ab:	48 89 c7             	mov    %rax,%rdi
  4032ae:	e8 17 01 00 00       	call   4033ca <_ZSt11__addressofISt4pairIiiEEPT_RS2_>
  4032b3:	48 89 c3             	mov    %rax,%rbx
  4032b6:	48 8b 45 e8          	mov    -0x18(%rbp),%rax
  4032ba:	48 89 c7             	mov    %rax,%rdi
  4032bd:	e8 08 01 00 00       	call   4033ca <_ZSt11__addressofISt4pairIiiEEPT_RS2_>
  4032c2:	48 89 c1             	mov    %rax,%rcx
  4032c5:	48 8b 45 c0          	mov    -0x40(%rbp),%rax
  4032c9:	48 89 c2             	mov    %rax,%rdx
  4032cc:	48 89 de             	mov    %rbx,%rsi
  4032cf:	48 89 cf             	mov    %rcx,%rdi
  4032d2:	e8 01 01 00 00       	call   4033d8 <_ZSt19__relocate_object_aISt4pairIiiES1_SaIS1_EEvPT_PT0_RT1_>
  4032d7:	48 83 45 d8 08       	addq   $0x8,-0x28(%rbp)
  4032dc:	48 83 45 e8 08       	addq   $0x8,-0x18(%rbp)
  4032e1:	48 8b 45 d8          	mov    -0x28(%rbp),%rax
  4032e5:	48 3b 45 d0          	cmp    -0x30(%rbp),%rax
  4032e9:	75 bc                	jne    4032a7 <_ZSt14__relocate_a_1IPSt4pairIiiES2_SaIS1_EET0_T_S5_S4_RT1_+0x23>
  4032eb:	48 8b 45 e8          	mov    -0x18(%rbp),%rax
  4032ef:	48 8b 5d f8          	mov    -0x8(%rbp),%rbx
  4032f3:	c9                   	leave  
  4032f4:	c3                   	ret    

00000000004032f5 <_ZSt4moveIRPSt4pairIiiEEONSt16remove_referenceIT_E4typeEOS5_>:
  4032f5:	55                   	push   %rbp
  4032f6:	48 89 e5             	mov    %rsp,%rbp
  4032f9:	48 89 7d f8          	mov    %rdi,-0x8(%rbp)
  4032fd:	48 8b 45 f8          	mov    -0x8(%rbp),%rax
  403301:	5d                   	pop    %rbp
  403302:	c3                   	ret    

0000000000403303 <_ZNSt20__uninitialized_copyILb0EE13__uninit_copyISt13move_iteratorIPSt4pairIiiEES5_EET0_T_S8_S7_>:
  403303:	55                   	push   %rbp
  403304:	48 89 e5             	mov    %rsp,%rbp
  403307:	53                   	push   %rbx
  403308:	48 83 ec 38          	sub    $0x38,%rsp
  40330c:	48 89 7d d8          	mov    %rdi,-0x28(%rbp)
  403310:	48 89 75 d0          	mov    %rsi,-0x30(%rbp)
  403314:	48 89 55 c8          	mov    %rdx,-0x38(%rbp)
  403318:	48 8b 45 c8          	mov    -0x38(%rbp),%rax
  40331c:	48 89 45 e8          	mov    %rax,-0x18(%rbp)
  403320:	eb 37                	jmp    403359 <_ZNSt20__uninitialized_copyILb0EE13__uninit_copyISt13move_iteratorIPSt4pairIiiEES5_EET0_T_S8_S7_+0x56>
  403322:	48 8d 45 d8          	lea    -0x28(%rbp),%rax
  403326:	48 89 c7             	mov    %rax,%rdi
  403329:	e8 4a 01 00 00       	call   403478 <_ZNKSt13move_iteratorIPSt4pairIiiEEdeEv>
  40332e:	48 89 c3             	mov    %rax,%rbx
  403331:	48 8b 45 e8          	mov    -0x18(%rbp),%rax
  403335:	48 89 c7             	mov    %rax,%rdi
  403338:	e8 8d 00 00 00       	call   4033ca <_ZSt11__addressofISt4pairIiiEEPT_RS2_>
  40333d:	48 89 de             	mov    %rbx,%rsi
  403340:	48 89 c7             	mov    %rax,%rdi
  403343:	e8 41 01 00 00       	call   403489 <_ZSt10_ConstructISt4pairIiiEJS1_EEvPT_DpOT0_>
  403348:	48 8d 45 d8          	lea    -0x28(%rbp),%rax
  40334c:	48 89 c7             	mov    %rax,%rdi
  40334f:	e8 04 01 00 00       	call   403458 <_ZNSt13move_iteratorIPSt4pairIiiEEppEv>
  403354:	48 83 45 e8 08       	addq   $0x8,-0x18(%rbp)
  403359:	48 8d 55 d0          	lea    -0x30(%rbp),%rdx
  40335d:	48 8d 45 d8          	lea    -0x28(%rbp),%rax
  403361:	48 89 d6             	mov    %rdx,%rsi
  403364:	48 89 c7             	mov    %rax,%rdi
  403367:	e8 c3 00 00 00       	call   40342f <_ZStneIPSt4pairIiiEEbRKSt13move_iteratorIT_ES7_>
  40336c:	84 c0                	test   %al,%al
  40336e:	75 b2                	jne    403322 <_ZNSt20__uninitialized_copyILb0EE13__uninit_copyISt13move_iteratorIPSt4pairIiiEES5_EET0_T_S8_S7_+0x1f>
  403370:	48 8b 45 e8          	mov    -0x18(%rbp),%rax
  403374:	eb 33                	jmp    4033a9 <_ZNSt20__uninitialized_copyILb0EE13__uninit_copyISt13move_iteratorIPSt4pairIiiEES5_EET0_T_S8_S7_+0xa6>
  403376:	48 89 c7             	mov    %rax,%rdi
  403379:	e8 f2 dc ff ff       	call   401070 <__cxa_begin_catch@plt>
  40337e:	48 8b 55 e8          	mov    -0x18(%rbp),%rdx
  403382:	48 8b 45 c8          	mov    -0x38(%rbp),%rax
  403386:	48 89 d6             	mov    %rdx,%rsi
  403389:	48 89 c7             	mov    %rax,%rdi
  40338c:	e8 c4 f5 ff ff       	call   402955 <_ZSt8_DestroyIPSt4pairIiiEEvT_S3_>
  403391:	e8 9a dd ff ff       	call   401130 <__cxa_rethrow@plt>
  403396:	48 89 c3             	mov    %rax,%rbx
  403399:	e8 c2 dd ff ff       	call   401160 <__cxa_end_catch@plt>
  40339e:	48 89 d8             	mov    %rbx,%rax
  4033a1:	48 89 c7             	mov    %rax,%rdi
  4033a4:	e8 d7 dd ff ff       	call   401180 <_Unwind_Resume@plt>
  4033a9:	48 8b 5d f8          	mov    -0x8(%rbp),%rbx
  4033ad:	c9                   	leave  
  4033ae:	c3                   	ret    
  4033af:	90                   	nop

00000000004033b0 <_ZNK9__gnu_cxx13new_allocatorISt4pairIiiEE8max_sizeEv>:
  4033b0:	55                   	push   %rbp
  4033b1:	48 89 e5             	mov    %rsp,%rbp
  4033b4:	48 83 ec 10          	sub    $0x10,%rsp
  4033b8:	48 89 7d f8          	mov    %rdi,-0x8(%rbp)
  4033bc:	48 8b 45 f8          	mov    -0x8(%rbp),%rax
  4033c0:	48 89 c7             	mov    %rax,%rdi
  4033c3:	e8 9a fe ff ff       	call   403262 <_ZNK9__gnu_cxx13new_allocatorISt4pairIiiEE11_M_max_sizeEv>
  4033c8:	c9                   	leave  
  4033c9:	c3                   	ret    

00000000004033ca <_ZSt11__addressofISt4pairIiiEEPT_RS2_>:
  4033ca:	55                   	push   %rbp
  4033cb:	48 89 e5             	mov    %rsp,%rbp
  4033ce:	48 89 7d f8          	mov    %rdi,-0x8(%rbp)
  4033d2:	48 8b 45 f8          	mov    -0x8(%rbp),%rax
  4033d6:	5d                   	pop    %rbp
  4033d7:	c3                   	ret    

00000000004033d8 <_ZSt19__relocate_object_aISt4pairIiiES1_SaIS1_EEvPT_PT0_RT1_>:
  4033d8:	55                   	push   %rbp
  4033d9:	48 89 e5             	mov    %rsp,%rbp
  4033dc:	48 83 ec 20          	sub    $0x20,%rsp
  4033e0:	48 89 7d f8          	mov    %rdi,-0x8(%rbp)
  4033e4:	48 89 75 f0          	mov    %rsi,-0x10(%rbp)
  4033e8:	48 89 55 e8          	mov    %rdx,-0x18(%rbp)
  4033ec:	48 8b 45 f0          	mov    -0x10(%rbp),%rax
  4033f0:	48 89 c7             	mov    %rax,%rdi
  4033f3:	e8 f2 f3 ff ff       	call   4027ea <_ZSt4moveIRSt4pairIiiEEONSt16remove_referenceIT_E4typeEOS4_>
  4033f8:	48 89 c2             	mov    %rax,%rdx
  4033fb:	48 8b 4d f8          	mov    -0x8(%rbp),%rcx
  4033ff:	48 8b 45 e8          	mov    -0x18(%rbp),%rax
  403403:	48 89 ce             	mov    %rcx,%rsi
  403406:	48 89 c7             	mov    %rax,%rdi
  403409:	e8 7b f5 ff ff       	call   402989 <_ZNSt16allocator_traitsISaISt4pairIiiEEE9constructIS1_JS1_EEEvRS2_PT_DpOT0_>
  40340e:	48 8b 45 f0          	mov    -0x10(%rbp),%rax
  403412:	48 89 c7             	mov    %rax,%rdi
  403415:	e8 b0 ff ff ff       	call   4033ca <_ZSt11__addressofISt4pairIiiEEPT_RS2_>
  40341a:	48 89 c2             	mov    %rax,%rdx
  40341d:	48 8b 45 e8          	mov    -0x18(%rbp),%rax
  403421:	48 89 d6             	mov    %rdx,%rsi
  403424:	48 89 c7             	mov    %rax,%rdi
  403427:	e8 4b fb ff ff       	call   402f77 <_ZNSt16allocator_traitsISaISt4pairIiiEEE7destroyIS1_EEvRS2_PT_>
  40342c:	90                   	nop
  40342d:	c9                   	leave  
  40342e:	c3                   	ret    

000000000040342f <_ZStneIPSt4pairIiiEEbRKSt13move_iteratorIT_ES7_>:
  40342f:	55                   	push   %rbp
  403430:	48 89 e5             	mov    %rsp,%rbp
  403433:	48 83 ec 10          	sub    $0x10,%rsp
  403437:	48 89 7d f8          	mov    %rdi,-0x8(%rbp)
  40343b:	48 89 75 f0          	mov    %rsi,-0x10(%rbp)
  40343f:	48 8b 55 f0          	mov    -0x10(%rbp),%rdx
  403443:	48 8b 45 f8          	mov    -0x8(%rbp),%rax
  403447:	48 89 d6             	mov    %rdx,%rsi
  40344a:	48 89 c7             	mov    %rax,%rdi
  40344d:	e8 75 00 00 00       	call   4034c7 <_ZSteqIPSt4pairIiiEEbRKSt13move_iteratorIT_ES7_>
  403452:	83 f0 01             	xor    $0x1,%eax
  403455:	c9                   	leave  
  403456:	c3                   	ret    
  403457:	90                   	nop

0000000000403458 <_ZNSt13move_iteratorIPSt4pairIiiEEppEv>:
  403458:	55                   	push   %rbp
  403459:	48 89 e5             	mov    %rsp,%rbp
  40345c:	48 89 7d f8          	mov    %rdi,-0x8(%rbp)
  403460:	48 8b 45 f8          	mov    -0x8(%rbp),%rax
  403464:	48 8b 00             	mov    (%rax),%rax
  403467:	48 8d 50 08          	lea    0x8(%rax),%rdx
  40346b:	48 8b 45 f8          	mov    -0x8(%rbp),%rax
  40346f:	48 89 10             	mov    %rdx,(%rax)
  403472:	48 8b 45 f8          	mov    -0x8(%rbp),%rax
  403476:	5d                   	pop    %rbp
  403477:	c3                   	ret    

0000000000403478 <_ZNKSt13move_iteratorIPSt4pairIiiEEdeEv>:
  403478:	55                   	push   %rbp
  403479:	48 89 e5             	mov    %rsp,%rbp
  40347c:	48 89 7d f8          	mov    %rdi,-0x8(%rbp)
  403480:	48 8b 45 f8          	mov    -0x8(%rbp),%rax
  403484:	48 8b 00             	mov    (%rax),%rax
  403487:	5d                   	pop    %rbp
  403488:	c3                   	ret    

0000000000403489 <_ZSt10_ConstructISt4pairIiiEJS1_EEvPT_DpOT0_>:
  403489:	55                   	push   %rbp
  40348a:	48 89 e5             	mov    %rsp,%rbp
  40348d:	53                   	push   %rbx
  40348e:	48 83 ec 18          	sub    $0x18,%rsp
  403492:	48 89 7d e8          	mov    %rdi,-0x18(%rbp)
  403496:	48 89 75 e0          	mov    %rsi,-0x20(%rbp)
  40349a:	48 8b 45 e0          	mov    -0x20(%rbp),%rax
  40349e:	48 89 c7             	mov    %rax,%rdi
  4034a1:	e8 d5 f4 ff ff       	call   40297b <_ZSt7forwardISt4pairIiiEEOT_RNSt16remove_referenceIS2_E4typeE>
  4034a6:	48 89 c3             	mov    %rax,%rbx
  4034a9:	48 8b 45 e8          	mov    -0x18(%rbp),%rax
  4034ad:	48 89 c6             	mov    %rax,%rsi
  4034b0:	bf 08 00 00 00       	mov    $0x8,%edi
  4034b5:	e8 66 e1 ff ff       	call   401620 <_ZnwmPv>
  4034ba:	48 8b 13             	mov    (%rbx),%rdx
  4034bd:	48 89 10             	mov    %rdx,(%rax)
  4034c0:	90                   	nop
  4034c1:	48 8b 5d f8          	mov    -0x8(%rbp),%rbx
  4034c5:	c9                   	leave  
  4034c6:	c3                   	ret    

00000000004034c7 <_ZSteqIPSt4pairIiiEEbRKSt13move_iteratorIT_ES7_>:
  4034c7:	55                   	push   %rbp
  4034c8:	48 89 e5             	mov    %rsp,%rbp
  4034cb:	53                   	push   %rbx
  4034cc:	48 83 ec 18          	sub    $0x18,%rsp
  4034d0:	48 89 7d e8          	mov    %rdi,-0x18(%rbp)
  4034d4:	48 89 75 e0          	mov    %rsi,-0x20(%rbp)
  4034d8:	48 8b 45 e8          	mov    -0x18(%rbp),%rax
  4034dc:	48 89 c7             	mov    %rax,%rdi
  4034df:	e8 1c 00 00 00       	call   403500 <_ZNKSt13move_iteratorIPSt4pairIiiEE4baseEv>
  4034e4:	48 89 c3             	mov    %rax,%rbx
  4034e7:	48 8b 45 e0          	mov    -0x20(%rbp),%rax
  4034eb:	48 89 c7             	mov    %rax,%rdi
  4034ee:	e8 0d 00 00 00       	call   403500 <_ZNKSt13move_iteratorIPSt4pairIiiEE4baseEv>
  4034f3:	48 39 c3             	cmp    %rax,%rbx
  4034f6:	0f 94 c0             	sete   %al
  4034f9:	48 8b 5d f8          	mov    -0x8(%rbp),%rbx
  4034fd:	c9                   	leave  
  4034fe:	c3                   	ret    
  4034ff:	90                   	nop

0000000000403500 <_ZNKSt13move_iteratorIPSt4pairIiiEE4baseEv>:
  403500:	55                   	push   %rbp
  403501:	48 89 e5             	mov    %rsp,%rbp
  403504:	48 89 7d f8          	mov    %rdi,-0x8(%rbp)
  403508:	48 8b 45 f8          	mov    -0x8(%rbp),%rax
  40350c:	48 8b 00             	mov    (%rax),%rax
  40350f:	5d                   	pop    %rbp
  403510:	c3                   	ret    

Disassembly of section .fini:

0000000000403514 <_fini>:
  403514:	f3 0f 1e fa          	endbr64 
  403518:	48 83 ec 08          	sub    $0x8,%rsp
  40351c:	48 83 c4 08          	add    $0x8,%rsp
  403520:	c3                   	ret    

Disassembly of section .rodata:

0000000000404000 <_IO_stdin_used>:
  404000:	01 00                	add    %eax,(%rax)
  404002:	02 00                	add    (%rax),%al
  404004:	00 00                	add    %al,(%rax)
	...

0000000000404008 <__dso_handle>:
	...

0000000000404010 <_ZStL19piecewise_construct>:
	...

0000000000404011 <_ZStL13allocator_arg>:
	...

0000000000404012 <_ZStL6ignore>:
  404012:	00 70 6c             	add    %dh,0x6c(%rax)
  404015:	61                   	(bad)  
  404016:	63 65 68             	movsxd 0x68(%rbp),%esp
  404019:	6f                   	outsl  %ds:(%rsi),(%dx)
  40401a:	6c                   	insb   (%dx),%es:(%rdi)
  40401b:	64 65 72 20          	fs gs jb 40403f <_ZStL6ignore+0x2d>
  40401f:	66 6c                	data16 insb (%dx),%es:(%rdi)
  404021:	61                   	(bad)  
  404022:	67 0a 00             	or     (%eax),%al
  404025:	25 36 64 00 00       	and    $0x6436,%eax
  40402a:	00 00                	add    %al,(%rax)
  40402c:	00 00                	add    %al,(%rax)
  40402e:	00 00                	add    %al,(%rax)
  404030:	43 6f                	rex.XB outsl %ds:(%rsi),(%dx)
  404032:	6e                   	outsb  %ds:(%rsi),(%dx)
  404033:	67 72 61             	addr32 jb 404097 <_ZStL6ignore+0x85>
  404036:	74 75                	je     4040ad <_ZStL6ignore+0x9b>
  404038:	6c                   	insb   (%dx),%es:(%rdi)
  404039:	61                   	(bad)  
  40403a:	74 69                	je     4040a5 <_ZStL6ignore+0x93>
  40403c:	6f                   	outsl  %ds:(%rsi),(%dx)
  40403d:	6e                   	outsb  %ds:(%rsi),(%dx)
  40403e:	73 21                	jae    404061 <_ZStL6ignore+0x4f>
  404040:	20 59 6f             	and    %bl,0x6f(%rcx)
  404043:	75 20                	jne    404065 <_ZStL6ignore+0x53>
  404045:	72 65                	jb     4040ac <_ZStL6ignore+0x9a>
  404047:	61                   	(bad)  
  404048:	63 68 65             	movsxd 0x65(%rax),%ebp
  40404b:	64 20 32             	and    %dh,%fs:(%rdx)
  40404e:	30 34 38             	xor    %dh,(%rax,%rdi,1)
  404051:	20 61 6e             	and    %ah,0x6e(%rcx)
  404054:	64 20 77 6f          	and    %dh,%fs:0x6f(%rdi)
  404058:	6e                   	outsb  %ds:(%rsi),(%dx)
  404059:	20 74 68 65          	and    %dh,0x65(%rax,%rbp,2)
  40405d:	20 67 61             	and    %ah,0x61(%rdi)
  404060:	6d                   	insl   (%dx),%es:(%rdi)
  404061:	65 21 00             	and    %eax,%gs:(%rax)
  404064:	00 00                	add    %al,(%rax)
  404066:	00 00                	add    %al,(%rax)
  404068:	47 61                	rex.RXB (bad) 
  40406a:	6d                   	insl   (%dx),%es:(%rdi)
  40406b:	65 20 4f 76          	and    %cl,%gs:0x76(%rdi)
  40406f:	65 72 21             	gs jb  404093 <_ZStL6ignore+0x81>
  404072:	20 4e 6f             	and    %cl,0x6f(%rsi)
  404075:	20 6d 6f             	and    %ch,0x6f(%rbp)
  404078:	72 65                	jb     4040df <_ZStL6ignore+0xcd>
  40407a:	20 6d 6f             	and    %ch,0x6f(%rbp)
  40407d:	76 65                	jbe    4040e4 <_ZStL6ignore+0xd2>
  40407f:	73 20                	jae    4040a1 <_ZStL6ignore+0x8f>
  404081:	61                   	(bad)  
  404082:	76 61                	jbe    4040e5 <_ZStL6ignore+0xd3>
  404084:	69 6c 61 62 6c 65 2e 	imul   $0x2e656c,0x62(%rcx,%riz,2),%ebp
  40408b:	00 
  40408c:	00 00                	add    %al,(%rax)
  40408e:	00 00                	add    %al,(%rax)
  404090:	45 6e                	rex.RB outsb %ds:(%rsi),(%dx)
  404092:	74 65                	je     4040f9 <_ZStL6ignore+0xe7>
  404094:	72 20                	jb     4040b6 <_ZStL6ignore+0xa4>
  404096:	63 6f 6d             	movsxd 0x6d(%rdi),%ebp
  404099:	6d                   	insl   (%dx),%es:(%rdi)
  40409a:	61                   	(bad)  
  40409b:	6e                   	outsb  %ds:(%rsi),(%dx)
  40409c:	64 28 73 29          	sub    %dh,%fs:0x29(%rbx)
  4040a0:	20 28                	and    %ch,(%rax)
  4040a2:	77 2f                	ja     4040d3 <_ZStL6ignore+0xc1>
  4040a4:	61                   	(bad)  
  4040a5:	2f                   	(bad)  
  4040a6:	73 2f                	jae    4040d7 <_ZStL6ignore+0xc5>
  4040a8:	64 20 66 6f          	and    %ah,%fs:0x6f(%rsi)
  4040ac:	72 20                	jb     4040ce <_ZStL6ignore+0xbc>
  4040ae:	6d                   	insl   (%dx),%es:(%rdi)
  4040af:	6f                   	outsl  %ds:(%rsi),(%dx)
  4040b0:	76 65                	jbe    404117 <__GNU_EH_FRAME_HDR+0xb>
  4040b2:	6d                   	insl   (%dx),%es:(%rdi)
  4040b3:	65 6e                	outsb  %gs:(%rsi),(%dx)
  4040b5:	74 2c                	je     4040e3 <_ZStL6ignore+0xd1>
  4040b7:	20 75 20             	and    %dh,0x20(%rbp)
  4040ba:	74 6f                	je     40412b <__GNU_EH_FRAME_HDR+0x1f>
  4040bc:	20 75 6e             	and    %dh,0x6e(%rbp)
  4040bf:	64 6f                	outsl  %fs:(%rsi),(%dx)
  4040c1:	2c 20                	sub    $0x20,%al
  4040c3:	71 20                	jno    4040e5 <_ZStL6ignore+0xd3>
  4040c5:	74 6f                	je     404136 <__GNU_EH_FRAME_HDR+0x2a>
  4040c7:	20 71 75             	and    %dh,0x75(%rcx)
  4040ca:	69 74 29 3a 20 00 53 	imul   $0x6b530020,0x3a(%rcx,%rbp,1),%esi
  4040d1:	6b 
  4040d2:	69 70 70 69 6e 67 20 	imul   $0x20676e69,0x70(%rax),%esi
  4040d9:	74 75                	je     404150 <__GNU_EH_FRAME_HDR+0x44>
  4040db:	72 6e                	jb     40414b <__GNU_EH_FRAME_HDR+0x3f>
  4040dd:	2e 20 49 6e          	cs and %cl,0x6e(%rcx)
  4040e1:	76 61                	jbe    404144 <__GNU_EH_FRAME_HDR+0x38>
  4040e3:	6c                   	insb   (%dx),%es:(%rdi)
  4040e4:	69 64 20 63 6f 6d 6d 	imul   $0x616d6d6f,0x63(%rax,%riz,1),%esp
  4040eb:	61 
  4040ec:	6e                   	outsb  %ds:(%rsi),(%dx)
  4040ed:	64 0a 00             	or     %fs:(%rax),%al
  4040f0:	76 65                	jbe    404157 <__GNU_EH_FRAME_HDR+0x4b>
  4040f2:	63 74 6f 72          	movsxd 0x72(%rdi,%rbp,2),%esi
  4040f6:	3a 3a                	cmp    (%rdx),%bh
  4040f8:	5f                   	pop    %rdi
  4040f9:	4d 5f                	rex.WRB pop %r15
  4040fb:	72 65                	jb     404162 <__GNU_EH_FRAME_HDR+0x56>
  4040fd:	61                   	(bad)  
  4040fe:	6c                   	insb   (%dx),%es:(%rdi)
  4040ff:	6c                   	insb   (%dx),%es:(%rdi)
  404100:	6f                   	outsl  %ds:(%rsi),(%dx)
  404101:	63 5f 69             	movsxd 0x69(%rdi),%ebx
  404104:	6e                   	outsb  %ds:(%rsi),(%dx)
  404105:	73 65                	jae    40416c <__GNU_EH_FRAME_HDR+0x60>
  404107:	72 74                	jb     40417d <__GNU_EH_FRAME_HDR+0x71>
	...

Disassembly of section .eh_frame_hdr:

000000000040410c <__GNU_EH_FRAME_HDR>:
  40410c:	01 1b                	add    %ebx,(%rbx)
  40410e:	03 3b                	add    (%rbx),%edi
  404110:	20 03                	and    %al,(%rbx)
  404112:	00 00                	add    %al,(%rax)
  404114:	63 00                	movsxd (%rax),%eax
  404116:	00 00                	add    %al,(%rax)
  404118:	14 cf                	adc    $0xcf,%al
  40411a:	ff                   	(bad)  
  40411b:	ff 64 03 00          	jmp    *0x0(%rbx,%rax,1)
  40411f:	00 a4 d0 ff ff 3c 03 	add    %ah,0x33cffff(%rax,%rdx,8)
  404126:	00 00                	add    %al,(%rax)
  404128:	d4                   	(bad)  
  404129:	d0 ff                	sar    %bh
  40412b:	ff 50 03             	call   *0x3(%rax)
  40412e:	00 00                	add    %al,(%rax)
  404130:	8a d1                	mov    %cl,%dl
  404132:	ff                   	(bad)  
  404133:	ff 50 06             	call   *0x6(%rax)
  404136:	00 00                	add    %al,(%rax)
  404138:	c1 d4 ff             	rcl    $0xff,%esp
  40413b:	ff c0                	inc    %eax
  40413d:	0f 00 00             	sldt   (%rax)
  404140:	ff d4                	call   *%rsp
  404142:	ff                   	(bad)  
  404143:	ff e0                	jmp    *%rax
  404145:	0f 00 00             	sldt   (%rax)
  404148:	14 d5                	adc    $0xd5,%al
  40414a:	ff                   	(bad)  
  40414b:	ff 8c 03 00 00 26 d5 	decl   -0x2ada0000(%rbx,%rax,1)
  404152:	ff                   	(bad)  
  404153:	ff ac 03 00 00 3a d5 	ljmp   *-0x2ac60000(%rbx,%rax,1)
  40415a:	ff                   	(bad)  
  40415b:	ff cc                	dec    %esp
  40415d:	03 00                	add    (%rax),%eax
  40415f:	00 6e d5             	add    %ch,-0x2b(%rsi)
  404162:	ff                   	(bad)  
  404163:	ff                   	(bad)  
  404164:	ec                   	in     (%dx),%al
  404165:	03 00                	add    (%rax),%eax
  404167:	00 80 d5 ff ff 0c    	add    %al,0xcffffd5(%rax)
  40416d:	04 00                	add    $0x0,%al
  40416f:	00 a6 d5 ff ff 2c    	add    %ah,0x2cffffd5(%rsi)
  404175:	04 00                	add    $0x0,%al
  404177:	00 de                	add    %bl,%dh
  404179:	d5                   	(bad)  
  40417a:	ff                   	(bad)  
  40417b:	ff 4c 04 00          	decl   0x0(%rsp,%rax,1)
  40417f:	00 58 d6             	add    %bl,-0x2a(%rax)
  404182:	ff                   	(bad)  
  404183:	ff 74 04 00          	push   0x0(%rsp,%rax,1)
  404187:	00 d0                	add    %dl,%al
  404189:	d6                   	(bad)  
  40418a:	ff                   	(bad)  
  40418b:	ff 94 04 00 00 5a d7 	call   *-0x28a60000(%rsp,%rax,1)
  404192:	ff                   	(bad)  
  404193:	ff b4 04 00 00 76 d7 	push   -0x288a0000(%rsp,%rax,1)
  40419a:	ff                   	(bad)  
  40419b:	ff d4                	call   *%rsp
  40419d:	04 00                	add    $0x0,%al
  40419f:	00 92 d7 ff ff f4    	add    %dl,-0xb000029(%rdx)
  4041a5:	04 00                	add    $0x0,%al
  4041a7:	00 ae d7 ff ff 34    	add    %ch,0x34ffffd7(%rsi)
  4041ad:	05 00 00 5c d9       	add    $0xd95c0000,%eax
  4041b2:	ff                   	(bad)  
  4041b3:	ff 5c 05 00          	lcall  *0x0(%rbp,%rax,1)
  4041b7:	00 ec                	add    %ch,%ah
  4041b9:	d9 ff                	fcos   
  4041bb:	ff                   	(bad)  
  4041bc:	7c 05                	jl     4041c3 <__GNU_EH_FRAME_HDR+0xb7>
  4041be:	00 00                	add    %al,(%rax)
  4041c0:	54                   	push   %rsp
  4041c1:	db ff                	(bad)  
  4041c3:	ff a0 05 00 00 c6    	jmp    *-0x39fffffb(%rax)
  4041c9:	db ff                	(bad)  
  4041cb:	ff c0                	inc    %eax
  4041cd:	05 00 00 e6 dd       	add    $0xdde60000,%eax
  4041d2:	ff                   	(bad)  
  4041d3:	ff e4                	jmp    *%rsp
  4041d5:	05 00 00 06 e0       	add    $0xe0060000,%eax
  4041da:	ff                   	(bad)  
  4041db:	ff 08                	decl   (%rax)
  4041dd:	06                   	(bad)  
  4041de:	00 00                	add    %al,(%rax)
  4041e0:	22 e2                	and    %dl,%ah
  4041e2:	ff                   	(bad)  
  4041e3:	ff 2c 06             	ljmp   *(%rsi,%rax,1)
  4041e6:	00 00                	add    %al,(%rax)
  4041e8:	3e e4 ff             	ds in  $0xff,%al
  4041eb:	ff 74 06 00          	push   0x0(%rsi,%rax,1)
  4041ef:	00 66 e4             	add    %ah,-0x1c(%rsi)
  4041f2:	ff                   	(bad)  
  4041f3:	ff 94 06 00 00 82 e4 	call   *-0x1b7e0000(%rsi,%rax,1)
  4041fa:	ff                   	(bad)  
  4041fb:	ff b4 06 00 00 d0 e4 	push   -0x1b300000(%rsi,%rax,1)
  404202:	ff                   	(bad)  
  404203:	ff                   	(bad)  
  404204:	d8 06                	fadds  (%rsi)
  404206:	00 00                	add    %al,(%rax)
  404208:	14 e5                	adc    $0xe5,%al
  40420a:	ff                   	(bad)  
  40420b:	ff                   	(bad)  
  40420c:	fc                   	cld    
  40420d:	06                   	(bad)  
  40420e:	00 00                	add    %al,(%rax)
  404210:	54                   	push   %rsp
  404211:	e5 ff                	in     $0xff,%eax
  404213:	ff 1c 07             	lcall  *(%rdi,%rax,1)
  404216:	00 00                	add    %al,(%rax)
  404218:	86 e5                	xchg   %ah,%ch
  40421a:	ff                   	(bad)  
  40421b:	ff                   	(bad)  
  40421c:	3c 07                	cmp    $0x7,%al
  40421e:	00 00                	add    %al,(%rax)
  404220:	c8 e5 ff ff          	enter  $0xffe5,$0xff
  404224:	5c                   	pop    %rsp
  404225:	07                   	(bad)  
  404226:	00 00                	add    %al,(%rax)
  404228:	ec                   	in     (%dx),%al
  404229:	e5 ff                	in     $0xff,%eax
  40422b:	ff                   	(bad)  
  40422c:	7c 07                	jl     404235 <__GNU_EH_FRAME_HDR+0x129>
  40422e:	00 00                	add    %al,(%rax)
  404230:	0c e6                	or     $0xe6,%al
  404232:	ff                   	(bad)  
  404233:	ff 9c 07 00 00 28 e6 	lcall  *-0x19d80000(%rdi,%rax,1)
  40423a:	ff                   	(bad)  
  40423b:	ff                   	(bad)  
  40423c:	bc 07 00 00 56       	mov    $0x56000007,%esp
  404241:	e6 ff                	out    %al,$0xff
  404243:	ff                   	(bad)  
  404244:	dc 07                	faddl  (%rdi)
  404246:	00 00                	add    %al,(%rax)
  404248:	62 e6 ff ff fc       	(bad)  {%k7}{z}
  40424d:	07                   	(bad)  
  40424e:	00 00                	add    %al,(%rax)
  404250:	98                   	cwtl   
  404251:	e6 ff                	out    %al,$0xff
  404253:	ff 1c 08             	lcall  *(%rax,%rcx,1)
  404256:	00 00                	add    %al,(%rax)
  404258:	a6                   	cmpsb  %es:(%rdi),%ds:(%rsi)
  404259:	e6 ff                	out    %al,$0xff
  40425b:	ff                   	(bad)  
  40425c:	3c 08                	cmp    $0x8,%al
  40425e:	00 00                	add    %al,(%rax)
  404260:	d0 e6                	shl    %dh
  404262:	ff                   	(bad)  
  404263:	ff 5c 08 00          	lcall  *0x0(%rax,%rcx,1)
  404267:	00 de                	add    %bl,%dh
  404269:	e6 ff                	out    %al,$0xff
  40426b:	ff                   	(bad)  
  40426c:	7c 08                	jl     404276 <__GNU_EH_FRAME_HDR+0x16a>
  40426e:	00 00                	add    %al,(%rax)
  404270:	ec                   	in     (%dx),%al
  404271:	e6 ff                	out    %al,$0xff
  404273:	ff 9c 08 00 00 86 e7 	lcall  *-0x187a0000(%rax,%rcx,1)
  40427a:	ff                   	(bad)  
  40427b:	ff c0                	inc    %eax
  40427d:	08 00                	or     %al,(%rax)
  40427f:	00 ac e7 ff ff e0 08 	add    %ch,0x8e0ffff(%rdi,%riz,8)
  404286:	00 00                	add    %al,(%rax)
  404288:	d5                   	(bad)  
  404289:	e7 ff                	out    %eax,$0xff
  40428b:	ff 00                	incl   (%rax)
  40428d:	09 00                	or     %eax,(%rax)
  40428f:	00 10                	add    %dl,(%rax)
  404291:	e8 ff ff 20 09       	call   9614295 <_end+0x920d1a5>
  404296:	00 00                	add    %al,(%rax)
  404298:	1b e8                	sbb    %eax,%ebp
  40429a:	ff                   	(bad)  
  40429b:	ff 40 09             	incl   0x9(%rax)
  40429e:	00 00                	add    %al,(%rax)
  4042a0:	49 e8 ff ff 60 09    	rex.WB call 9a142a5 <_end+0x960d1b5>
  4042a6:	00 00                	add    %al,(%rax)
  4042a8:	6f                   	outsl  %ds:(%rsi),(%dx)
  4042a9:	e8 ff ff 80 09       	call   9c142ad <_end+0x980d1bd>
  4042ae:	00 00                	add    %al,(%rax)
  4042b0:	7d e8                	jge    40429a <__GNU_EH_FRAME_HDR+0x18e>
  4042b2:	ff                   	(bad)  
  4042b3:	ff a0 09 00 00 b6    	jmp    *-0x49fffff7(%rax)
  4042b9:	e8 ff ff c0 09       	call   a0142bd <_end+0x9c0d1cd>
  4042be:	00 00                	add    %al,(%rax)
  4042c0:	df e8                	fucomip %st(0),%st
  4042c2:	ff                   	(bad)  
  4042c3:	ff e0                	jmp    *%rax
  4042c5:	09 00                	or     %eax,(%rax)
  4042c7:	00 ee                	add    %ch,%dh
  4042c9:	e8 ff ff 00 0a       	call   a4142cd <_end+0xa00d1dd>
  4042ce:	00 00                	add    %al,(%rax)
  4042d0:	fa                   	cli    
  4042d1:	e8 ff ff 20 0a       	call   a6142d5 <_end+0xa20d1e5>
  4042d6:	00 00                	add    %al,(%rax)
  4042d8:	ba eb ff ff 48       	mov    $0x48ffffeb,%edx
  4042dd:	0a 00                	or     (%rax),%al
  4042df:	00 d8                	add    %bl,%al
  4042e1:	eb ff                	jmp    4042e2 <__GNU_EH_FRAME_HDR+0x1d6>
  4042e3:	ff 68 0a             	ljmp   *0xa(%rax)
  4042e6:	00 00                	add    %al,(%rax)
  4042e8:	e6 eb                	out    %al,$0xeb
  4042ea:	ff                   	(bad)  
  4042eb:	ff 88 0a 00 00 09    	decl   0x900000a(%rax)
  4042f1:	ec                   	in     (%dx),%al
  4042f2:	ff                   	(bad)  
  4042f3:	ff a8 0a 00 00 18    	ljmp   *0x1800000a(%rax)
  4042f9:	ec                   	in     (%dx),%al
  4042fa:	ff                   	(bad)  
  4042fb:	ff c8                	dec    %eax
  4042fd:	0a 00                	or     (%rax),%al
  4042ff:	00 5a ec             	add    %bl,-0x14(%rdx)
  404302:	ff                   	(bad)  
  404303:	ff                   	(bad)  
  404304:	e8 0a 00 00 78       	call   78404313 <_end+0x77ffd223>
  404309:	ec                   	in     (%dx),%al
  40430a:	ff                   	(bad)  
  40430b:	ff 08                	decl   (%rax)
  40430d:	0b 00                	or     (%rax),%eax
  40430f:	00 40 ed             	add    %al,-0x13(%rax)
  404312:	ff                   	(bad)  
  404313:	ff 2c 0b             	ljmp   *(%rbx,%rcx,1)
  404316:	00 00                	add    %al,(%rax)
  404318:	65 ed                	gs in  (%dx),%eax
  40431a:	ff                   	(bad)  
  40431b:	ff 4c 0b 00          	decl   0x0(%rbx,%rcx,1)
  40431f:	00 a4 ed ff ff 6c 0b 	add    %ah,0xb6cffff(%rbp,%rbp,8)
  404326:	00 00                	add    %al,(%rax)
  404328:	d7                   	xlat   %ds:(%rbx)
  404329:	ed                   	in     (%dx),%eax
  40432a:	ff                   	(bad)  
  40432b:	ff 8c 0b 00 00 0a ee 	decl   -0x11f60000(%rbx,%rcx,1)
  404332:	ff                   	(bad)  
  404333:	ff ac 0b 00 00 18 ee 	ljmp   *-0x11e80000(%rbx,%rcx,1)
  40433a:	ff                   	(bad)  
  40433b:	ff cc                	dec    %esp
  40433d:	0b 00                	or     (%rax),%eax
  40433f:	00 6b ee             	add    %ch,-0x12(%rbx)
  404342:	ff                   	(bad)  
  404343:	ff f0                	push   %rax
  404345:	0b 00                	or     (%rax),%eax
  404347:	00 92 ee ff ff 10    	add    %dl,0x10ffffee(%rdx)
  40434d:	0c 00                	or     $0x0,%al
  40434f:	00 b4 ee ff ff 30 0c 	add    %dh,0xc30ffff(%rsi,%rbp,8)
  404356:	00 00                	add    %al,(%rax)
  404358:	df ee                	fucomip %st(6),%st
  40435a:	ff                   	(bad)  
  40435b:	ff 50 0c             	call   *0xc(%rax)
  40435e:	00 00                	add    %al,(%rax)
  404360:	09 ef                	or     %ebp,%edi
  404362:	ff                   	(bad)  
  404363:	ff 70 0c             	push   0xc(%rax)
  404366:	00 00                	add    %al,(%rax)
  404368:	3b ef                	cmp    %edi,%ebp
  40436a:	ff                   	(bad)  
  40436b:	ff 90 0c 00 00 60    	call   *0x6000000c(%rax)
  404371:	ef                   	out    %eax,(%dx)
  404372:	ff                   	(bad)  
  404373:	ff b0 0c 00 00 92    	push   -0x6dfffff4(%rax)
  404379:	ef                   	out    %eax,(%dx)
  40437a:	ff                   	(bad)  
  40437b:	ff d0                	call   *%rax
  40437d:	0c 00                	or     $0x0,%al
  40437f:	00 a1 ef ff ff f0    	add    %ah,-0xf000011(%rcx)
  404385:	0c 00                	or     $0x0,%al
  404387:	00 e4                	add    %ah,%ah
  404389:	ef                   	out    %eax,(%dx)
  40438a:	ff                   	(bad)  
  40438b:	ff 10                	call   *(%rax)
  40438d:	0d 00 00 f2 ef       	or     $0xeff20000,%eax
  404392:	ff                   	(bad)  
  404393:	ff 30                	push   (%rax)
  404395:	0d 00 00 52 f0       	or     $0xf0520000,%eax
  40439a:	ff                   	(bad)  
  40439b:	ff 50 0d             	call   *0xd(%rax)
  40439e:	00 00                	add    %al,(%rax)
  4043a0:	b6 f0                	mov    $0xf0,%dh
  4043a2:	ff                   	(bad)  
  4043a3:	ff 74 0d 00          	push   0x0(%rbp,%rcx,1)
  4043a7:	00 df                	add    %bl,%bh
  4043a9:	f0 ff                	lock (bad) 
  4043ab:	ff 94 0d 00 00 10 f1 	call   *-0xef00000(%rbp,%rcx,1)
  4043b2:	ff                   	(bad)  
  4043b3:	ff b4 0d 00 00 2a f1 	push   -0xed60000(%rbp,%rcx,1)
  4043ba:	ff                   	(bad)  
  4043bb:	ff d4                	call   *%rsp
  4043bd:	0d 00 00 56 f1       	or     $0xf1560000,%eax
  4043c2:	ff                   	(bad)  
  4043c3:	ff f4                	push   %rsp
  4043c5:	0d 00 00 6a f1       	or     $0xf16a0000,%eax
  4043ca:	ff                   	(bad)  
  4043cb:	ff 14 0e             	call   *(%rsi,%rcx,1)
  4043ce:	00 00                	add    %al,(%rax)
  4043d0:	78 f1                	js     4043c3 <__GNU_EH_FRAME_HDR+0x2b7>
  4043d2:	ff                   	(bad)  
  4043d3:	ff 34 0e             	push   (%rsi,%rcx,1)
  4043d6:	00 00                	add    %al,(%rax)
  4043d8:	e9 f1 ff ff 58       	jmp    594043ce <_end+0x58ffd2de>
  4043dd:	0e                   	(bad)  
  4043de:	00 00                	add    %al,(%rax)
  4043e0:	f7 f1                	div    %ecx
  4043e2:	ff                   	(bad)  
  4043e3:	ff                   	(bad)  
  4043e4:	78 0e                	js     4043f4 <__GNU_EH_FRAME_HDR+0x2e8>
  4043e6:	00 00                	add    %al,(%rax)
  4043e8:	a4                   	movsb  %ds:(%rsi),%es:(%rdi)
  4043e9:	f2 ff                	repnz (bad) 
  4043eb:	ff a0 0e 00 00 be    	jmp    *-0x41fffff2(%rax)
  4043f1:	f2 ff                	repnz (bad) 
  4043f3:	ff c0                	inc    %eax
  4043f5:	0e                   	(bad)  
  4043f6:	00 00                	add    %al,(%rax)
  4043f8:	cc                   	int3   
  4043f9:	f2 ff                	repnz (bad) 
  4043fb:	ff e0                	jmp    *%rax
  4043fd:	0e                   	(bad)  
  4043fe:	00 00                	add    %al,(%rax)
  404400:	23 f3                	and    %ebx,%esi
  404402:	ff                   	(bad)  
  404403:	ff 00                	incl   (%rax)
  404405:	0f 00 00             	sldt   (%rax)
  404408:	4c                   	rex.WR
  404409:	f3 ff                	repz (bad) 
  40440b:	ff 20                	jmp    *(%rax)
  40440d:	0f 00 00             	sldt   (%rax)
  404410:	6c                   	insb   (%dx),%es:(%rdi)
  404411:	f3 ff                	repz (bad) 
  404413:	ff 40 0f             	incl   0xf(%rax)
  404416:	00 00                	add    %al,(%rax)
  404418:	7d f3                	jge    40440d <__GNU_EH_FRAME_HDR+0x301>
  40441a:	ff                   	(bad)  
  40441b:	ff 60 0f             	jmp    *0xf(%rax)
  40441e:	00 00                	add    %al,(%rax)
  404420:	bb f3 ff ff 80       	mov    $0x80fffff3,%ebx
  404425:	0f 00 00             	sldt   (%rax)
  404428:	f4                   	hlt    
  404429:	f3 ff                	repz (bad) 
  40442b:	ff                   	.byte 0xff
  40442c:	a0                   	.byte 0xa0
  40442d:	0f 00 00             	sldt   (%rax)

Disassembly of section .eh_frame:

0000000000404430 <__FRAME_END__-0xcdc>:
  404430:	14 00                	adc    $0x0,%al
  404432:	00 00                	add    %al,(%rax)
  404434:	00 00                	add    %al,(%rax)
  404436:	00 00                	add    %al,(%rax)
  404438:	01 7a 52             	add    %edi,0x52(%rdx)
  40443b:	00 01                	add    %al,(%rcx)
  40443d:	78 10                	js     40444f <__GNU_EH_FRAME_HDR+0x343>
  40443f:	01 1b                	add    %ebx,(%rbx)
  404441:	0c 07                	or     $0x7,%al
  404443:	08 90 01 00 00 10    	or     %dl,0x10000001(%rax)
  404449:	00 00                	add    %al,(%rax)
  40444b:	00 1c 00             	add    %bl,(%rax,%rax,1)
  40444e:	00 00                	add    %al,(%rax)
  404450:	60                   	(bad)  
  404451:	cd ff                	int    $0xff
  404453:	ff 26                	jmp    *(%rsi)
  404455:	00 00                	add    %al,(%rax)
  404457:	00 00                	add    %al,(%rax)
  404459:	44 07                	rex.R (bad) 
  40445b:	10 10                	adc    %dl,(%rax)
  40445d:	00 00                	add    %al,(%rax)
  40445f:	00 30                	add    %dh,(%rax)
  404461:	00 00                	add    %al,(%rax)
  404463:	00 7c cd ff          	add    %bh,-0x1(%rbp,%rcx,8)
  404467:	ff 05 00 00 00 00    	incl   0x0(%rip)        # 40446d <__GNU_EH_FRAME_HDR+0x361>
  40446d:	00 00                	add    %al,(%rax)
  40446f:	00 24 00             	add    %ah,(%rax,%rax,1)
  404472:	00 00                	add    %al,(%rax)
  404474:	44 00 00             	add    %r8b,(%rax)
  404477:	00 a8 cb ff ff 90    	add    %ch,-0x6f000035(%rax)
  40447d:	01 00                	add    %eax,(%rax)
  40447f:	00 00                	add    %al,(%rax)
  404481:	0e                   	(bad)  
  404482:	10 46 0e             	adc    %al,0xe(%rsi)
  404485:	18 4a 0f             	sbb    %cl,0xf(%rdx)
  404488:	0b 77 08             	or     0x8(%rdi),%esi
  40448b:	80 00 3f             	addb   $0x3f,(%rax)
  40448e:	1a 3b                	sbb    (%rbx),%bh
  404490:	2a 33                	sub    (%rbx),%dh
  404492:	24 22                	and    $0x22,%al
  404494:	00 00                	add    %al,(%rax)
  404496:	00 00                	add    %al,(%rax)
  404498:	1c 00                	sbb    $0x0,%al
  40449a:	00 00                	add    %al,(%rax)
  40449c:	6c                   	insb   (%dx),%es:(%rdi)
  40449d:	00 00                	add    %al,(%rax)
  40449f:	00 80 d1 ff ff 12    	add    %al,0x12ffffd1(%rax)
  4044a5:	00 00                	add    %al,(%rax)
  4044a7:	00 00                	add    %al,(%rax)
  4044a9:	41 0e                	rex.B (bad) 
  4044ab:	10 86 02 43 0d 06    	adc    %al,0x60d4302(%rsi)
  4044b1:	4d 0c 07             	rex.WRB or $0x7,%al
  4044b4:	08 00                	or     %al,(%rax)
  4044b6:	00 00                	add    %al,(%rax)
  4044b8:	1c 00                	sbb    $0x0,%al
  4044ba:	00 00                	add    %al,(%rax)
  4044bc:	8c 00                	mov    %es,(%rax)
  4044be:	00 00                	add    %al,(%rax)
  4044c0:	72 d1                	jb     404493 <__GNU_EH_FRAME_HDR+0x387>
  4044c2:	ff                   	(bad)  
  4044c3:	ff 14 00             	call   *(%rax,%rax,1)
  4044c6:	00 00                	add    %al,(%rax)
  4044c8:	00 41 0e             	add    %al,0xe(%rcx)
  4044cb:	10 86 02 43 0d 06    	adc    %al,0x60d4302(%rsi)
  4044d1:	4f 0c 07             	rex.WRXB or $0x7,%al
  4044d4:	08 00                	or     %al,(%rax)
  4044d6:	00 00                	add    %al,(%rax)
  4044d8:	1c 00                	sbb    $0x0,%al
  4044da:	00 00                	add    %al,(%rax)
  4044dc:	ac                   	lods   %ds:(%rsi),%al
  4044dd:	00 00                	add    %al,(%rax)
  4044df:	00 66 d1             	add    %ah,-0x2f(%rsi)
  4044e2:	ff                   	(bad)  
  4044e3:	ff 34 00             	push   (%rax,%rax,1)
  4044e6:	00 00                	add    %al,(%rax)
  4044e8:	00 41 0e             	add    %al,0xe(%rcx)
  4044eb:	10 86 02 43 0d 06    	adc    %al,0x60d4302(%rsi)
  4044f1:	6f                   	outsl  %ds:(%rsi),(%dx)
  4044f2:	0c 07                	or     $0x7,%al
  4044f4:	08 00                	or     %al,(%rax)
  4044f6:	00 00                	add    %al,(%rax)
  4044f8:	1c 00                	sbb    $0x0,%al
  4044fa:	00 00                	add    %al,(%rax)
  4044fc:	cc                   	int3   
  4044fd:	00 00                	add    %al,(%rax)
  4044ff:	00 7a d1             	add    %bh,-0x2f(%rdx)
  404502:	ff                   	(bad)  
  404503:	ff 12                	call   *(%rdx)
  404505:	00 00                	add    %al,(%rax)
  404507:	00 00                	add    %al,(%rax)
  404509:	41 0e                	rex.B (bad) 
  40450b:	10 86 02 43 0d 06    	adc    %al,0x60d4302(%rsi)
  404511:	4d 0c 07             	rex.WRB or $0x7,%al
  404514:	08 00                	or     %al,(%rax)
  404516:	00 00                	add    %al,(%rax)
  404518:	1c 00                	sbb    $0x0,%al
  40451a:	00 00                	add    %al,(%rax)
  40451c:	ec                   	in     (%dx),%al
  40451d:	00 00                	add    %al,(%rax)
  40451f:	00 6c d1 ff          	add    %ch,-0x1(%rcx,%rdx,8)
  404523:	ff 26                	jmp    *(%rsi)
  404525:	00 00                	add    %al,(%rax)
  404527:	00 00                	add    %al,(%rax)
  404529:	41 0e                	rex.B (bad) 
  40452b:	10 86 02 43 0d 06    	adc    %al,0x60d4302(%rsi)
  404531:	61                   	(bad)  
  404532:	0c 07                	or     $0x7,%al
  404534:	08 00                	or     %al,(%rax)
  404536:	00 00                	add    %al,(%rax)
  404538:	1c 00                	sbb    $0x0,%al
  40453a:	00 00                	add    %al,(%rax)
  40453c:	0c 01                	or     $0x1,%al
  40453e:	00 00                	add    %al,(%rax)
  404540:	72 d1                	jb     404513 <__GNU_EH_FRAME_HDR+0x407>
  404542:	ff                   	(bad)  
  404543:	ff                   	(bad)  
  404544:	38 00                	cmp    %al,(%rax)
  404546:	00 00                	add    %al,(%rax)
  404548:	00 41 0e             	add    %al,0xe(%rcx)
  40454b:	10 86 02 43 0d 06    	adc    %al,0x60d4302(%rsi)
  404551:	73 0c                	jae    40455f <__GNU_EH_FRAME_HDR+0x453>
  404553:	07                   	(bad)  
  404554:	08 00                	or     %al,(%rax)
  404556:	00 00                	add    %al,(%rax)
  404558:	24 00                	and    $0x0,%al
  40455a:	00 00                	add    %al,(%rax)
  40455c:	2c 01                	sub    $0x1,%al
  40455e:	00 00                	add    %al,(%rax)
  404560:	8a d1                	mov    %cl,%dl
  404562:	ff                   	(bad)  
  404563:	ff                   	(bad)  
  404564:	79 00                	jns    404566 <__GNU_EH_FRAME_HDR+0x45a>
  404566:	00 00                	add    %al,(%rax)
  404568:	00 41 0e             	add    %al,0xe(%rcx)
  40456b:	10 86 02 43 0d 06    	adc    %al,0x60d4302(%rsi)
  404571:	4b 8e 03             	rex.WXB mov (%r11),%es
  404574:	8d 04 8c             	lea    (%rsp,%rcx,4),%eax
  404577:	05 83 06 02 69       	add    $0x69020683,%eax
  40457c:	0c 07                	or     $0x7,%al
  40457e:	08 00                	or     %al,(%rax)
  404580:	1c 00                	sbb    $0x0,%al
  404582:	00 00                	add    %al,(%rax)
  404584:	54                   	push   %rsp
  404585:	01 00                	add    %eax,(%rax)
  404587:	00 dc                	add    %bl,%ah
  404589:	d1 ff                	sar    %edi
  40458b:	ff 77 00             	push   0x0(%rdi)
  40458e:	00 00                	add    %al,(%rax)
  404590:	00 41 0e             	add    %al,0xe(%rcx)
  404593:	10 86 02 43 0d 06    	adc    %al,0x60d4302(%rsi)
  404599:	02 72 0c             	add    0xc(%rdx),%dh
  40459c:	07                   	(bad)  
  40459d:	08 00                	or     %al,(%rax)
  40459f:	00 1c 00             	add    %bl,(%rax,%rax,1)
  4045a2:	00 00                	add    %al,(%rax)
  4045a4:	74 01                	je     4045a7 <__GNU_EH_FRAME_HDR+0x49b>
  4045a6:	00 00                	add    %al,(%rax)
  4045a8:	34 d2                	xor    $0xd2,%al
  4045aa:	ff                   	(bad)  
  4045ab:	ff 89 00 00 00 00    	decl   0x0(%rcx)
  4045b1:	41 0e                	rex.B (bad) 
  4045b3:	10 86 02 43 0d 06    	adc    %al,0x60d4302(%rsi)
  4045b9:	02 84 0c 07 08 00 00 	add    0x807(%rsp,%rcx,1),%al
  4045c0:	1c 00                	sbb    $0x0,%al
  4045c2:	00 00                	add    %al,(%rax)
  4045c4:	94                   	xchg   %eax,%esp
  4045c5:	01 00                	add    %eax,(%rax)
  4045c7:	00 9e d2 ff ff 1b    	add    %bl,0x1bffffd2(%rsi)
  4045cd:	00 00                	add    %al,(%rax)
  4045cf:	00 00                	add    %al,(%rax)
  4045d1:	41 0e                	rex.B (bad) 
  4045d3:	10 86 02 43 0d 06    	adc    %al,0x60d4302(%rsi)
  4045d9:	56                   	push   %rsi
  4045da:	0c 07                	or     $0x7,%al
  4045dc:	08 00                	or     %al,(%rax)
  4045de:	00 00                	add    %al,(%rax)
  4045e0:	1c 00                	sbb    $0x0,%al
  4045e2:	00 00                	add    %al,(%rax)
  4045e4:	b4 01                	mov    $0x1,%ah
  4045e6:	00 00                	add    %al,(%rax)
  4045e8:	9a                   	(bad)  
  4045e9:	d2 ff                	sar    %cl,%bh
  4045eb:	ff 1b                	lcall  *(%rbx)
  4045ed:	00 00                	add    %al,(%rax)
  4045ef:	00 00                	add    %al,(%rax)
  4045f1:	41 0e                	rex.B (bad) 
  4045f3:	10 86 02 43 0d 06    	adc    %al,0x60d4302(%rsi)
  4045f9:	56                   	push   %rsi
  4045fa:	0c 07                	or     $0x7,%al
  4045fc:	08 00                	or     %al,(%rax)
  4045fe:	00 00                	add    %al,(%rax)
  404600:	1c 00                	sbb    $0x0,%al
  404602:	00 00                	add    %al,(%rax)
  404604:	d4                   	(bad)  
  404605:	01 00                	add    %eax,(%rax)
  404607:	00 96 d2 ff ff 1b    	add    %dl,0x1bffffd2(%rsi)
  40460d:	00 00                	add    %al,(%rax)
  40460f:	00 00                	add    %al,(%rax)
  404611:	41 0e                	rex.B (bad) 
  404613:	10 86 02 43 0d 06    	adc    %al,0x60d4302(%rsi)
  404619:	56                   	push   %rsi
  40461a:	0c 07                	or     $0x7,%al
  40461c:	08 00                	or     %al,(%rax)
  40461e:	00 00                	add    %al,(%rax)
  404620:	1c 00                	sbb    $0x0,%al
  404622:	00 00                	add    %al,(%rax)
  404624:	00 00                	add    %al,(%rax)
  404626:	00 00                	add    %al,(%rax)
  404628:	01 7a 50             	add    %edi,0x50(%rdx)
  40462b:	4c 52                	rex.WR push %rdx
  40462d:	00 01                	add    %al,(%rcx)
  40462f:	78 10                	js     404641 <__GNU_EH_FRAME_HDR+0x535>
  404631:	07                   	(bad)  
  404632:	03 70 11             	add    0x11(%rax),%esi
  404635:	40 00 03             	rex add %al,(%rbx)
  404638:	1b 0c 07             	sbb    (%rdi,%rax,1),%ecx
  40463b:	08 90 01 00 00 24    	or     %dl,0x24000001(%rax)
  404641:	00 00                	add    %al,(%rax)
  404643:	00 24 00             	add    %ah,(%rax,%rax,1)
  404646:	00 00                	add    %al,(%rax)
  404648:	72 d2                	jb     40461c <__GNU_EH_FRAME_HDR+0x510>
  40464a:	ff                   	(bad)  
  40464b:	ff ae 01 00 00 04    	ljmp   *0x4000001(%rsi)
  404651:	10 51 40             	adc    %dl,0x40(%rcx)
  404654:	00 41 0e             	add    %al,0xe(%rcx)
  404657:	10 86 02 43 0d 06    	adc    %al,0x60d4302(%rsi)
  40465d:	45 83 03 03          	rex.RB addl $0x3,(%r11)
  404661:	a4                   	movsb  %ds:(%rsi),%es:(%rdi)
  404662:	01 0c 07             	add    %ecx,(%rdi,%rax,1)
  404665:	08 00                	or     %al,(%rax)
  404667:	00 1c 00             	add    %bl,(%rax,%rax,1)
  40466a:	00 00                	add    %al,(%rax)
  40466c:	3c 02                	cmp    $0x2,%al
  40466e:	00 00                	add    %al,(%rax)
  404670:	f8                   	clc    
  404671:	d3 ff                	sar    %cl,%edi
  404673:	ff 8f 00 00 00 00    	decl   0x0(%rdi)
  404679:	41 0e                	rex.B (bad) 
  40467b:	10 86 02 43 0d 06    	adc    %al,0x60d4302(%rsi)
  404681:	02 8a 0c 07 08 00    	add    0x8070c(%rdx),%cl
  404687:	00 20                	add    %ah,(%rax)
  404689:	00 00                	add    %al,(%rax)
  40468b:	00 5c 02 00          	add    %bl,0x0(%rdx,%rax,1)
  40468f:	00 68 d4             	add    %ch,-0x2c(%rax)
  404692:	ff                   	(bad)  
  404693:	ff 68 01             	ljmp   *0x1(%rax)
  404696:	00 00                	add    %al,(%rax)
  404698:	00 41 0e             	add    %al,0xe(%rcx)
  40469b:	10 86 02 43 0d 06    	adc    %al,0x60d4302(%rsi)
  4046a1:	45 83 03 03          	rex.RB addl $0x3,(%r11)
  4046a5:	5e                   	pop    %rsi
  4046a6:	01 0c 07             	add    %ecx,(%rdi,%rax,1)
  4046a9:	08 00                	or     %al,(%rax)
  4046ab:	00 1c 00             	add    %bl,(%rax,%rax,1)
  4046ae:	00 00                	add    %al,(%rax)
  4046b0:	80 02 00             	addb   $0x0,(%rdx)
  4046b3:	00 ac d5 ff ff 71 00 	add    %ch,0x71ffff(%rbp,%rdx,8)
  4046ba:	00 00                	add    %al,(%rax)
  4046bc:	00 41 0e             	add    %al,0xe(%rcx)
  4046bf:	10 86 02 43 0d 06    	adc    %al,0x60d4302(%rsi)
  4046c5:	02 6c 0c 07          	add    0x7(%rsp,%rcx,1),%ch
  4046c9:	08 00                	or     %al,(%rax)
  4046cb:	00 20                	add    %ah,(%rax)
  4046cd:	00 00                	add    %al,(%rax)
  4046cf:	00 a0 02 00 00 fe    	add    %ah,-0x1fffffe(%rax)
  4046d5:	d5                   	(bad)  
  4046d6:	ff                   	(bad)  
  4046d7:	ff 1f                	lcall  *(%rdi)
  4046d9:	02 00                	add    (%rax),%al
  4046db:	00 00                	add    %al,(%rax)
  4046dd:	41 0e                	rex.B (bad) 
  4046df:	10 86 02 43 0d 06    	adc    %al,0x60d4302(%rsi)
  4046e5:	45 83 03 03          	rex.RB addl $0x3,(%r11)
  4046e9:	15 02 0c 07 08       	adc    $0x8070c02,%eax
  4046ee:	00 00                	add    %al,(%rax)
  4046f0:	20 00                	and    %al,(%rax)
  4046f2:	00 00                	add    %al,(%rax)
  4046f4:	c4 02 00 00          	(bad)
  4046f8:	fa                   	cli    
  4046f9:	d7                   	xlat   %ds:(%rbx)
  4046fa:	ff                   	(bad)  
  4046fb:	ff 1f                	lcall  *(%rdi)
  4046fd:	02 00                	add    (%rax),%al
  4046ff:	00 00                	add    %al,(%rax)
  404701:	41 0e                	rex.B (bad) 
  404703:	10 86 02 43 0d 06    	adc    %al,0x60d4302(%rsi)
  404709:	45 83 03 03          	rex.RB addl $0x3,(%r11)
  40470d:	15 02 0c 07 08       	adc    $0x8070c02,%eax
  404712:	00 00                	add    %al,(%rax)
  404714:	20 00                	and    %al,(%rax)
  404716:	00 00                	add    %al,(%rax)
  404718:	e8 02 00 00 f6       	call   fffffffff640471f <_end+0xfffffffff5ffd62f>
  40471d:	d9 ff                	fcos   
  40471f:	ff 1b                	lcall  *(%rbx)
  404721:	02 00                	add    (%rax),%al
  404723:	00 00                	add    %al,(%rax)
  404725:	41 0e                	rex.B (bad) 
  404727:	10 86 02 43 0d 06    	adc    %al,0x60d4302(%rsi)
  40472d:	45 83 03 03          	rex.RB addl $0x3,(%r11)
  404731:	11 02                	adc    %eax,(%rdx)
  404733:	0c 07                	or     $0x7,%al
  404735:	08 00                	or     %al,(%rax)
  404737:	00 20                	add    %ah,(%rax)
  404739:	00 00                	add    %al,(%rax)
  40473b:	00 0c 03             	add    %cl,(%rbx,%rax,1)
  40473e:	00 00                	add    %al,(%rax)
  404740:	ee                   	out    %al,(%dx)
  404741:	db ff                	(bad)  
  404743:	ff 1b                	lcall  *(%rbx)
  404745:	02 00                	add    (%rax),%al
  404747:	00 00                	add    %al,(%rax)
  404749:	41 0e                	rex.B (bad) 
  40474b:	10 86 02 43 0d 06    	adc    %al,0x60d4302(%rsi)
  404751:	45 83 03 03          	rex.RB addl $0x3,(%r11)
  404755:	11 02                	adc    %eax,(%rdx)
  404757:	0c 07                	or     $0x7,%al
  404759:	08 00                	or     %al,(%rax)
  40475b:	00 20                	add    %ah,(%rax)
  40475d:	00 00                	add    %al,(%rax)
  40475f:	00 30                	add    %dh,(%rax)
  404761:	03 00                	add    (%rax),%eax
  404763:	00 32                	add    %dh,(%rdx)
  404765:	cb                   	lret   
  404766:	ff                   	(bad)  
  404767:	ff 37                	push   (%rdi)
  404769:	03 00                	add    (%rax),%eax
  40476b:	00 00                	add    %al,(%rax)
  40476d:	41 0e                	rex.B (bad) 
  40476f:	10 86 02 43 0d 06    	adc    %al,0x60d4302(%rsi)
  404775:	48 83 03 03          	addq   $0x3,(%rbx)
  404779:	2a 03                	sub    (%rbx),%al
  40477b:	0c 07                	or     $0x7,%al
  40477d:	08 00                	or     %al,(%rax)
  40477f:	00 1c 00             	add    %bl,(%rax,%rax,1)
  404782:	00 00                	add    %al,(%rax)
  404784:	54                   	push   %rsp
  404785:	03 00                	add    (%rax),%eax
  404787:	00 c2                	add    %al,%dl
  404789:	dd ff                	(bad)  
  40478b:	ff 27                	jmp    *(%rdi)
  40478d:	00 00                	add    %al,(%rax)
  40478f:	00 00                	add    %al,(%rax)
  404791:	41 0e                	rex.B (bad) 
  404793:	10 86 02 43 0d 06    	adc    %al,0x60d4302(%rsi)
  404799:	62                   	(bad)  
  40479a:	0c 07                	or     $0x7,%al
  40479c:	08 00                	or     %al,(%rax)
  40479e:	00 00                	add    %al,(%rax)
  4047a0:	1c 00                	sbb    $0x0,%al
  4047a2:	00 00                	add    %al,(%rax)
  4047a4:	74 03                	je     4047a9 <__GNU_EH_FRAME_HDR+0x69d>
  4047a6:	00 00                	add    %al,(%rax)
  4047a8:	ca dd ff             	lret   $0xffdd
  4047ab:	ff 1b                	lcall  *(%rbx)
  4047ad:	00 00                	add    %al,(%rax)
  4047af:	00 00                	add    %al,(%rax)
  4047b1:	41 0e                	rex.B (bad) 
  4047b3:	10 86 02 43 0d 06    	adc    %al,0x60d4302(%rsi)
  4047b9:	56                   	push   %rsi
  4047ba:	0c 07                	or     $0x7,%al
  4047bc:	08 00                	or     %al,(%rax)
  4047be:	00 00                	add    %al,(%rax)
  4047c0:	20 00                	and    %al,(%rax)
  4047c2:	00 00                	add    %al,(%rax)
  4047c4:	a4                   	movsb  %ds:(%rsi),%es:(%rdi)
  4047c5:	01 00                	add    %eax,(%rax)
  4047c7:	00 c6                	add    %al,%dh
  4047c9:	dd ff                	(bad)  
  4047cb:	ff 4d 00             	decl   0x0(%rbp)
  4047ce:	00 00                	add    %al,(%rax)
  4047d0:	04 1e                	add    $0x1e,%al
  4047d2:	51                   	push   %rcx
  4047d3:	40 00 41 0e          	rex add %al,0xe(%rcx)
  4047d7:	10 86 02 43 0d 06    	adc    %al,0x60d4302(%rsi)
  4047dd:	02 48 0c             	add    0xc(%rax),%cl
  4047e0:	07                   	(bad)  
  4047e1:	08 00                	or     %al,(%rax)
  4047e3:	00 20                	add    %ah,(%rax)
  4047e5:	00 00                	add    %al,(%rax)
  4047e7:	00 c8                	add    %cl,%al
  4047e9:	01 00                	add    %eax,(%rax)
  4047eb:	00 f0                	add    %dh,%al
  4047ed:	dd ff                	(bad)  
  4047ef:	ff 44 00 00          	incl   0x0(%rax,%rax,1)
  4047f3:	00 04 22             	add    %al,(%rdx,%riz,1)
  4047f6:	51                   	push   %rcx
  4047f7:	40 00 41 0e          	rex add %al,0xe(%rcx)
  4047fb:	10 86 02 43 0d 06    	adc    %al,0x60d4302(%rsi)
  404801:	7f 0c                	jg     40480f <__GNU_EH_FRAME_HDR+0x703>
  404803:	07                   	(bad)  
  404804:	08 00                	or     %al,(%rax)
  404806:	00 00                	add    %al,(%rax)
  404808:	1c 00                	sbb    $0x0,%al
  40480a:	00 00                	add    %al,(%rax)
  40480c:	dc 03                	faddl  (%rbx)
  40480e:	00 00                	add    %al,(%rax)
  404810:	10 de                	adc    %bl,%dh
  404812:	ff                   	(bad)  
  404813:	ff 40 00             	incl   0x0(%rax)
  404816:	00 00                	add    %al,(%rax)
  404818:	00 41 0e             	add    %al,0xe(%rcx)
  40481b:	10 86 02 43 0d 06    	adc    %al,0x60d4302(%rsi)
  404821:	7b 0c                	jnp    40482f <__GNU_EH_FRAME_HDR+0x723>
  404823:	07                   	(bad)  
  404824:	08 00                	or     %al,(%rax)
  404826:	00 00                	add    %al,(%rax)
  404828:	1c 00                	sbb    $0x0,%al
  40482a:	00 00                	add    %al,(%rax)
  40482c:	fc                   	cld    
  40482d:	03 00                	add    (%rax),%eax
  40482f:	00 30                	add    %dh,(%rax)
  404831:	de ff                	fdivrp %st,%st(7)
  404833:	ff 31                	push   (%rcx)
  404835:	00 00                	add    %al,(%rax)
  404837:	00 00                	add    %al,(%rax)
  404839:	41 0e                	rex.B (bad) 
  40483b:	10 86 02 43 0d 06    	adc    %al,0x60d4302(%rsi)
  404841:	6c                   	insb   (%dx),%es:(%rdi)
  404842:	0c 07                	or     $0x7,%al
  404844:	08 00                	or     %al,(%rax)
  404846:	00 00                	add    %al,(%rax)
  404848:	1c 00                	sbb    $0x0,%al
  40484a:	00 00                	add    %al,(%rax)
  40484c:	1c 04                	sbb    $0x4,%al
  40484e:	00 00                	add    %al,(%rax)
  404850:	42 de ff             	rex.X fdivrp %st,%st(7)
  404853:	ff 41 00             	incl   0x0(%rcx)
  404856:	00 00                	add    %al,(%rax)
  404858:	00 41 0e             	add    %al,0xe(%rcx)
  40485b:	10 86 02 43 0d 06    	adc    %al,0x60d4302(%rsi)
  404861:	7c 0c                	jl     40486f <__GNU_EH_FRAME_HDR+0x763>
  404863:	07                   	(bad)  
  404864:	08 00                	or     %al,(%rax)
  404866:	00 00                	add    %al,(%rax)
  404868:	1c 00                	sbb    $0x0,%al
  40486a:	00 00                	add    %al,(%rax)
  40486c:	3c 04                	cmp    $0x4,%al
  40486e:	00 00                	add    %al,(%rax)
  404870:	64 de ff             	fs fdivrp %st,%st(7)
  404873:	ff 23                	jmp    *(%rbx)
  404875:	00 00                	add    %al,(%rax)
  404877:	00 00                	add    %al,(%rax)
  404879:	41 0e                	rex.B (bad) 
  40487b:	10 86 02 43 0d 06    	adc    %al,0x60d4302(%rsi)
  404881:	5e                   	pop    %rsi
  404882:	0c 07                	or     $0x7,%al
  404884:	08 00                	or     %al,(%rax)
  404886:	00 00                	add    %al,(%rax)
  404888:	1c 00                	sbb    $0x0,%al
  40488a:	00 00                	add    %al,(%rax)
  40488c:	5c                   	pop    %rsp
  40488d:	04 00                	add    $0x0,%al
  40488f:	00 68 de             	add    %ch,-0x22(%rax)
  404892:	ff                   	(bad)  
  404893:	ff 20                	jmp    *(%rax)
  404895:	00 00                	add    %al,(%rax)
  404897:	00 00                	add    %al,(%rax)
  404899:	41 0e                	rex.B (bad) 
  40489b:	10 86 02 43 0d 06    	adc    %al,0x60d4302(%rsi)
  4048a1:	5b                   	pop    %rbx
  4048a2:	0c 07                	or     $0x7,%al
  4048a4:	08 00                	or     %al,(%rax)
  4048a6:	00 00                	add    %al,(%rax)
  4048a8:	1c 00                	sbb    $0x0,%al
  4048aa:	00 00                	add    %al,(%rax)
  4048ac:	7c 04                	jl     4048b2 <__GNU_EH_FRAME_HDR+0x7a6>
  4048ae:	00 00                	add    %al,(%rax)
  4048b0:	68 de ff ff 1b       	push   $0x1bffffde
  4048b5:	00 00                	add    %al,(%rax)
  4048b7:	00 00                	add    %al,(%rax)
  4048b9:	41 0e                	rex.B (bad) 
  4048bb:	10 86 02 43 0d 06    	adc    %al,0x60d4302(%rsi)
  4048c1:	56                   	push   %rsi
  4048c2:	0c 07                	or     $0x7,%al
  4048c4:	08 00                	or     %al,(%rax)
  4048c6:	00 00                	add    %al,(%rax)
  4048c8:	1c 00                	sbb    $0x0,%al
  4048ca:	00 00                	add    %al,(%rax)
  4048cc:	9c                   	pushf  
  4048cd:	04 00                	add    $0x0,%al
  4048cf:	00 64 de ff          	add    %ah,-0x1(%rsi,%rbx,8)
  4048d3:	ff 2e                	ljmp   *(%rsi)
  4048d5:	00 00                	add    %al,(%rax)
  4048d7:	00 00                	add    %al,(%rax)
  4048d9:	41 0e                	rex.B (bad) 
  4048db:	10 86 02 43 0d 06    	adc    %al,0x60d4302(%rsi)
  4048e1:	69 0c 07 08 00 00 00 	imul   $0x8,(%rdi,%rax,1),%ecx
  4048e8:	1c 00                	sbb    $0x0,%al
  4048ea:	00 00                	add    %al,(%rax)
  4048ec:	bc 04 00 00 72       	mov    $0x72000004,%esp
  4048f1:	de ff                	fdivrp %st,%st(7)
  4048f3:	ff 0b                	decl   (%rbx)
  4048f5:	00 00                	add    %al,(%rax)
  4048f7:	00 00                	add    %al,(%rax)
  4048f9:	41 0e                	rex.B (bad) 
  4048fb:	10 86 02 43 0d 06    	adc    %al,0x60d4302(%rsi)
  404901:	46 0c 07             	rex.RX or $0x7,%al
  404904:	08 00                	or     %al,(%rax)
  404906:	00 00                	add    %al,(%rax)
  404908:	1c 00                	sbb    $0x0,%al
  40490a:	00 00                	add    %al,(%rax)
  40490c:	dc 04 00             	faddl  (%rax,%rax,1)
  40490f:	00 5e de             	add    %bl,-0x22(%rsi)
  404912:	ff                   	(bad)  
  404913:	ff 35 00 00 00 00    	push   0x0(%rip)        # 404919 <__GNU_EH_FRAME_HDR+0x80d>
  404919:	41 0e                	rex.B (bad) 
  40491b:	10 86 02 43 0d 06    	adc    %al,0x60d4302(%rsi)
  404921:	70 0c                	jo     40492f <__GNU_EH_FRAME_HDR+0x823>
  404923:	07                   	(bad)  
  404924:	08 00                	or     %al,(%rax)
  404926:	00 00                	add    %al,(%rax)
  404928:	1c 00                	sbb    $0x0,%al
  40492a:	00 00                	add    %al,(%rax)
  40492c:	fc                   	cld    
  40492d:	04 00                	add    $0x0,%al
  40492f:	00 74 de ff          	add    %dh,-0x1(%rsi,%rbx,8)
  404933:	ff 0e                	decl   (%rsi)
  404935:	00 00                	add    %al,(%rax)
  404937:	00 00                	add    %al,(%rax)
  404939:	41 0e                	rex.B (bad) 
  40493b:	10 86 02 43 0d 06    	adc    %al,0x60d4302(%rsi)
  404941:	49 0c 07             	rex.WB or $0x7,%al
  404944:	08 00                	or     %al,(%rax)
  404946:	00 00                	add    %al,(%rax)
  404948:	1c 00                	sbb    $0x0,%al
  40494a:	00 00                	add    %al,(%rax)
  40494c:	1c 05                	sbb    $0x5,%al
  40494e:	00 00                	add    %al,(%rax)
  404950:	62                   	(bad)  
  404951:	de ff                	fdivrp %st,%st(7)
  404953:	ff 2a                	ljmp   *(%rdx)
  404955:	00 00                	add    %al,(%rax)
  404957:	00 00                	add    %al,(%rax)
  404959:	41 0e                	rex.B (bad) 
  40495b:	10 86 02 43 0d 06    	adc    %al,0x60d4302(%rsi)
  404961:	65 0c 07             	gs or  $0x7,%al
  404964:	08 00                	or     %al,(%rax)
  404966:	00 00                	add    %al,(%rax)
  404968:	1c 00                	sbb    $0x0,%al
  40496a:	00 00                	add    %al,(%rax)
  40496c:	3c 05                	cmp    $0x5,%al
  40496e:	00 00                	add    %al,(%rax)
  404970:	6c                   	insb   (%dx),%es:(%rdi)
  404971:	de ff                	fdivrp %st,%st(7)
  404973:	ff 0e                	decl   (%rsi)
  404975:	00 00                	add    %al,(%rax)
  404977:	00 00                	add    %al,(%rax)
  404979:	41 0e                	rex.B (bad) 
  40497b:	10 86 02 43 0d 06    	adc    %al,0x60d4302(%rsi)
  404981:	49 0c 07             	rex.WB or $0x7,%al
  404984:	08 00                	or     %al,(%rax)
  404986:	00 00                	add    %al,(%rax)
  404988:	1c 00                	sbb    $0x0,%al
  40498a:	00 00                	add    %al,(%rax)
  40498c:	5c                   	pop    %rsp
  40498d:	05 00 00 5a de       	add    $0xde5a0000,%eax
  404992:	ff                   	(bad)  
  404993:	ff 0e                	decl   (%rsi)
  404995:	00 00                	add    %al,(%rax)
  404997:	00 00                	add    %al,(%rax)
  404999:	41 0e                	rex.B (bad) 
  40499b:	10 86 02 43 0d 06    	adc    %al,0x60d4302(%rsi)
  4049a1:	49 0c 07             	rex.WB or $0x7,%al
  4049a4:	08 00                	or     %al,(%rax)
  4049a6:	00 00                	add    %al,(%rax)
  4049a8:	20 00                	and    %al,(%rax)
  4049aa:	00 00                	add    %al,(%rax)
  4049ac:	7c 05                	jl     4049b3 <__GNU_EH_FRAME_HDR+0x8a7>
  4049ae:	00 00                	add    %al,(%rax)
  4049b0:	48 de ff             	rex.W fdivrp %st,%st(7)
  4049b3:	ff 99 00 00 00 00    	lcall  *0x0(%rcx)
  4049b9:	41 0e                	rex.B (bad) 
  4049bb:	10 86 02 43 0d 06    	adc    %al,0x60d4302(%rsi)
  4049c1:	45 83 03 02          	rex.RB addl $0x2,(%r11)
  4049c5:	8f                   	(bad)  
  4049c6:	0c 07                	or     $0x7,%al
  4049c8:	08 00                	or     %al,(%rax)
  4049ca:	00 00                	add    %al,(%rax)
  4049cc:	1c 00                	sbb    $0x0,%al
  4049ce:	00 00                	add    %al,(%rax)
  4049d0:	a0 05 00 00 be de ff 	movabs 0x25ffffdebe000005,%al
  4049d7:	ff 25 
  4049d9:	00 00                	add    %al,(%rax)
  4049db:	00 00                	add    %al,(%rax)
  4049dd:	41 0e                	rex.B (bad) 
  4049df:	10 86 02 43 0d 06    	adc    %al,0x60d4302(%rsi)
  4049e5:	60                   	(bad)  
  4049e6:	0c 07                	or     $0x7,%al
  4049e8:	08 00                	or     %al,(%rax)
  4049ea:	00 00                	add    %al,(%rax)
  4049ec:	1c 00                	sbb    $0x0,%al
  4049ee:	00 00                	add    %al,(%rax)
  4049f0:	c0 05 00 00 c4 de ff 	rolb   $0xff,-0x213c0000(%rip)        # ffffffffdf0449f7 <_end+0xffffffffdec3d907>
  4049f7:	ff 29                	ljmp   *(%rcx)
  4049f9:	00 00                	add    %al,(%rax)
  4049fb:	00 00                	add    %al,(%rax)
  4049fd:	41 0e                	rex.B (bad) 
  4049ff:	10 86 02 43 0d 06    	adc    %al,0x60d4302(%rsi)
  404a05:	64 0c 07             	fs or  $0x7,%al
  404a08:	08 00                	or     %al,(%rax)
  404a0a:	00 00                	add    %al,(%rax)
  404a0c:	1c 00                	sbb    $0x0,%al
  404a0e:	00 00                	add    %al,(%rax)
  404a10:	e0 05                	loopne 404a17 <__GNU_EH_FRAME_HDR+0x90b>
  404a12:	00 00                	add    %al,(%rax)
  404a14:	cd de                	int    $0xde
  404a16:	ff                   	(bad)  
  404a17:	ff                   	(bad)  
  404a18:	3b 00                	cmp    (%rax),%eax
  404a1a:	00 00                	add    %al,(%rax)
  404a1c:	00 41 0e             	add    %al,0xe(%rcx)
  404a1f:	10 86 02 43 0d 06    	adc    %al,0x60d4302(%rsi)
  404a25:	45 83 03 71          	rex.RB addl $0x71,(%r11)
  404a29:	0c 07                	or     $0x7,%al
  404a2b:	08 1c 00             	or     %bl,(%rax,%rax,1)
  404a2e:	00 00                	add    %al,(%rax)
  404a30:	00 06                	add    %al,(%rsi)
  404a32:	00 00                	add    %al,(%rax)
  404a34:	e8 de ff ff 0b       	call   c404a17 <_end+0xbffd927>
  404a39:	00 00                	add    %al,(%rax)
  404a3b:	00 00                	add    %al,(%rax)
  404a3d:	41 0e                	rex.B (bad) 
  404a3f:	10 86 02 43 0d 06    	adc    %al,0x60d4302(%rsi)
  404a45:	46 0c 07             	rex.RX or $0x7,%al
  404a48:	08 00                	or     %al,(%rax)
  404a4a:	00 00                	add    %al,(%rax)
  404a4c:	1c 00                	sbb    $0x0,%al
  404a4e:	00 00                	add    %al,(%rax)
  404a50:	20 06                	and    %al,(%rsi)
  404a52:	00 00                	add    %al,(%rax)
  404a54:	d3 de                	rcr    %cl,%esi
  404a56:	ff                   	(bad)  
  404a57:	ff 2e                	ljmp   *(%rsi)
  404a59:	00 00                	add    %al,(%rax)
  404a5b:	00 00                	add    %al,(%rax)
  404a5d:	41 0e                	rex.B (bad) 
  404a5f:	10 86 02 43 0d 06    	adc    %al,0x60d4302(%rsi)
  404a65:	69 0c 07 08 00 00 00 	imul   $0x8,(%rdi,%rax,1),%ecx
  404a6c:	1c 00                	sbb    $0x0,%al
  404a6e:	00 00                	add    %al,(%rax)
  404a70:	40 06                	rex (bad) 
  404a72:	00 00                	add    %al,(%rax)
  404a74:	e1 de                	loope  404a54 <__GNU_EH_FRAME_HDR+0x948>
  404a76:	ff                   	(bad)  
  404a77:	ff 26                	jmp    *(%rsi)
  404a79:	00 00                	add    %al,(%rax)
  404a7b:	00 00                	add    %al,(%rax)
  404a7d:	41 0e                	rex.B (bad) 
  404a7f:	10 86 02 43 0d 06    	adc    %al,0x60d4302(%rsi)
  404a85:	61                   	(bad)  
  404a86:	0c 07                	or     $0x7,%al
  404a88:	08 00                	or     %al,(%rax)
  404a8a:	00 00                	add    %al,(%rax)
  404a8c:	1c 00                	sbb    $0x0,%al
  404a8e:	00 00                	add    %al,(%rax)
  404a90:	60                   	(bad)  
  404a91:	06                   	(bad)  
  404a92:	00 00                	add    %al,(%rax)
  404a94:	e7 de                	out    %eax,$0xde
  404a96:	ff                   	(bad)  
  404a97:	ff 0e                	decl   (%rsi)
  404a99:	00 00                	add    %al,(%rax)
  404a9b:	00 00                	add    %al,(%rax)
  404a9d:	41 0e                	rex.B (bad) 
  404a9f:	10 86 02 43 0d 06    	adc    %al,0x60d4302(%rsi)
  404aa5:	49 0c 07             	rex.WB or $0x7,%al
  404aa8:	08 00                	or     %al,(%rax)
  404aaa:	00 00                	add    %al,(%rax)
  404aac:	1c 00                	sbb    $0x0,%al
  404aae:	00 00                	add    %al,(%rax)
  404ab0:	80 06 00             	addb   $0x0,(%rsi)
  404ab3:	00 d5                	add    %dl,%ch
  404ab5:	de ff                	fdivrp %st,%st(7)
  404ab7:	ff                   	(bad)  
  404ab8:	39 00                	cmp    %eax,(%rax)
  404aba:	00 00                	add    %al,(%rax)
  404abc:	00 41 0e             	add    %al,0xe(%rcx)
  404abf:	10 86 02 43 0d 06    	adc    %al,0x60d4302(%rsi)
  404ac5:	74 0c                	je     404ad3 <__GNU_EH_FRAME_HDR+0x9c7>
  404ac7:	07                   	(bad)  
  404ac8:	08 00                	or     %al,(%rax)
  404aca:	00 00                	add    %al,(%rax)
  404acc:	1c 00                	sbb    $0x0,%al
  404ace:	00 00                	add    %al,(%rax)
  404ad0:	a0 06 00 00 ee de ff 	movabs 0x29ffffdeee000006,%al
  404ad7:	ff 29 
  404ad9:	00 00                	add    %al,(%rax)
  404adb:	00 00                	add    %al,(%rax)
  404add:	41 0e                	rex.B (bad) 
  404adf:	10 86 02 43 0d 06    	adc    %al,0x60d4302(%rsi)
  404ae5:	64 0c 07             	fs or  $0x7,%al
  404ae8:	08 00                	or     %al,(%rax)
  404aea:	00 00                	add    %al,(%rax)
  404aec:	1c 00                	sbb    $0x0,%al
  404aee:	00 00                	add    %al,(%rax)
  404af0:	c0 06 00             	rolb   $0x0,(%rsi)
  404af3:	00 f7                	add    %dh,%bh
  404af5:	de ff                	fdivrp %st,%st(7)
  404af7:	ff 0f                	decl   (%rdi)
  404af9:	00 00                	add    %al,(%rax)
  404afb:	00 00                	add    %al,(%rax)
  404afd:	41 0e                	rex.B (bad) 
  404aff:	10 86 02 43 0d 06    	adc    %al,0x60d4302(%rsi)
  404b05:	4a 0c 07             	rex.WX or $0x7,%al
  404b08:	08 00                	or     %al,(%rax)
  404b0a:	00 00                	add    %al,(%rax)
  404b0c:	1c 00                	sbb    $0x0,%al
  404b0e:	00 00                	add    %al,(%rax)
  404b10:	e0 06                	loopne 404b18 <__GNU_EH_FRAME_HDR+0xa0c>
  404b12:	00 00                	add    %al,(%rax)
  404b14:	e6 de                	out    %al,$0xde
  404b16:	ff                   	(bad)  
  404b17:	ff 0b                	decl   (%rbx)
  404b19:	00 00                	add    %al,(%rax)
  404b1b:	00 00                	add    %al,(%rax)
  404b1d:	41 0e                	rex.B (bad) 
  404b1f:	10 86 02 43 0d 06    	adc    %al,0x60d4302(%rsi)
  404b25:	46 0c 07             	rex.RX or $0x7,%al
  404b28:	08 00                	or     %al,(%rax)
  404b2a:	00 00                	add    %al,(%rax)
  404b2c:	24 00                	and    $0x0,%al
  404b2e:	00 00                	add    %al,(%rax)
  404b30:	10 05 00 00 d2 de    	adc    %al,-0x212e0000(%rip)        # ffffffffdf124b36 <_end+0xffffffffded1da46>
  404b36:	ff                   	(bad)  
  404b37:	ff c0                	inc    %eax
  404b39:	02 00                	add    (%rax),%al
  404b3b:	00 04 28             	add    %al,(%rax,%rbp,1)
  404b3e:	51                   	push   %rcx
  404b3f:	40 00 41 0e          	rex add %al,0xe(%rcx)
  404b43:	10 86 02 43 0d 06    	adc    %al,0x60d4302(%rsi)
  404b49:	45 83 03 03          	rex.RB addl $0x3,(%r11)
  404b4d:	b6 02                	mov    $0x2,%dh
  404b4f:	0c 07                	or     $0x7,%al
  404b51:	08 00                	or     %al,(%rax)
  404b53:	00 1c 00             	add    %bl,(%rax,%rax,1)
  404b56:	00 00                	add    %al,(%rax)
  404b58:	28 07                	sub    %al,(%rdi)
  404b5a:	00 00                	add    %al,(%rax)
  404b5c:	6a e1                	push   $0xffffffffffffffe1
  404b5e:	ff                   	(bad)  
  404b5f:	ff 1d 00 00 00 00    	lcall  *0x0(%rip)        # 404b65 <__GNU_EH_FRAME_HDR+0xa59>
  404b65:	41 0e                	rex.B (bad) 
  404b67:	10 86 02 43 0d 06    	adc    %al,0x60d4302(%rsi)
  404b6d:	58                   	pop    %rax
  404b6e:	0c 07                	or     $0x7,%al
  404b70:	08 00                	or     %al,(%rax)
  404b72:	00 00                	add    %al,(%rax)
  404b74:	1c 00                	sbb    $0x0,%al
  404b76:	00 00                	add    %al,(%rax)
  404b78:	48 07                	rex.W (bad) 
  404b7a:	00 00                	add    %al,(%rax)
  404b7c:	68 e1 ff ff 0e       	push   $0xeffffe1
  404b81:	00 00                	add    %al,(%rax)
  404b83:	00 00                	add    %al,(%rax)
  404b85:	41 0e                	rex.B (bad) 
  404b87:	10 86 02 43 0d 06    	adc    %al,0x60d4302(%rsi)
  404b8d:	49 0c 07             	rex.WB or $0x7,%al
  404b90:	08 00                	or     %al,(%rax)
  404b92:	00 00                	add    %al,(%rax)
  404b94:	1c 00                	sbb    $0x0,%al
  404b96:	00 00                	add    %al,(%rax)
  404b98:	68 07 00 00 56       	push   $0x56000007
  404b9d:	e1 ff                	loope  404b9e <__GNU_EH_FRAME_HDR+0xa92>
  404b9f:	ff 23                	jmp    *(%rbx)
  404ba1:	00 00                	add    %al,(%rax)
  404ba3:	00 00                	add    %al,(%rax)
  404ba5:	41 0e                	rex.B (bad) 
  404ba7:	10 86 02 43 0d 06    	adc    %al,0x60d4302(%rsi)
  404bad:	5e                   	pop    %rsi
  404bae:	0c 07                	or     $0x7,%al
  404bb0:	08 00                	or     %al,(%rax)
  404bb2:	00 00                	add    %al,(%rax)
  404bb4:	1c 00                	sbb    $0x0,%al
  404bb6:	00 00                	add    %al,(%rax)
  404bb8:	88 07                	mov    %al,(%rdi)
  404bba:	00 00                	add    %al,(%rax)
  404bbc:	59                   	pop    %rcx
  404bbd:	e1 ff                	loope  404bbe <__GNU_EH_FRAME_HDR+0xab2>
  404bbf:	ff 0f                	decl   (%rdi)
  404bc1:	00 00                	add    %al,(%rax)
  404bc3:	00 00                	add    %al,(%rax)
  404bc5:	41 0e                	rex.B (bad) 
  404bc7:	10 86 02 43 0d 06    	adc    %al,0x60d4302(%rsi)
  404bcd:	4a 0c 07             	rex.WX or $0x7,%al
  404bd0:	08 00                	or     %al,(%rax)
  404bd2:	00 00                	add    %al,(%rax)
  404bd4:	1c 00                	sbb    $0x0,%al
  404bd6:	00 00                	add    %al,(%rax)
  404bd8:	a8 07                	test   $0x7,%al
  404bda:	00 00                	add    %al,(%rax)
  404bdc:	48 e1 ff             	rex.W loope 404bde <__GNU_EH_FRAME_HDR+0xad2>
  404bdf:	ff 42 00             	incl   0x0(%rdx)
  404be2:	00 00                	add    %al,(%rax)
  404be4:	00 41 0e             	add    %al,0xe(%rcx)
  404be7:	10 86 02 43 0d 06    	adc    %al,0x60d4302(%rsi)
  404bed:	45 83 03 78          	rex.RB addl $0x78,(%r11)
  404bf1:	0c 07                	or     $0x7,%al
  404bf3:	08 1c 00             	or     %bl,(%rax,%rax,1)
  404bf6:	00 00                	add    %al,(%rax)
  404bf8:	c8 07 00 00          	enter  $0x7,$0x0
  404bfc:	6a e1                	push   $0xffffffffffffffe1
  404bfe:	ff                   	(bad)  
  404bff:	ff 1d 00 00 00 00    	lcall  *0x0(%rip)        # 404c05 <__GNU_EH_FRAME_HDR+0xaf9>
  404c05:	41 0e                	rex.B (bad) 
  404c07:	10 86 02 43 0d 06    	adc    %al,0x60d4302(%rsi)
  404c0d:	58                   	pop    %rax
  404c0e:	0c 07                	or     $0x7,%al
  404c10:	08 00                	or     %al,(%rax)
  404c12:	00 00                	add    %al,(%rax)
  404c14:	20 00                	and    %al,(%rax)
  404c16:	00 00                	add    %al,(%rax)
  404c18:	e8 07 00 00 68       	call   68404c24 <_end+0x67ffdb34>
  404c1d:	e1 ff                	loope  404c1e <__GNU_EH_FRAME_HDR+0xb12>
  404c1f:	ff c8                	dec    %eax
  404c21:	00 00                	add    %al,(%rax)
  404c23:	00 00                	add    %al,(%rax)
  404c25:	41 0e                	rex.B (bad) 
  404c27:	10 86 02 43 0d 06    	adc    %al,0x60d4302(%rsi)
  404c2d:	45 83 03 02          	rex.RB addl $0x2,(%r11)
  404c31:	be 0c 07 08 00       	mov    $0x8070c,%esi
  404c36:	00 00                	add    %al,(%rax)
  404c38:	1c 00                	sbb    $0x0,%al
  404c3a:	00 00                	add    %al,(%rax)
  404c3c:	0c 08                	or     $0x8,%al
  404c3e:	00 00                	add    %al,(%rax)
  404c40:	0c e2                	or     $0xe2,%al
  404c42:	ff                   	(bad)  
  404c43:	ff 25 00 00 00 00    	jmp    *0x0(%rip)        # 404c49 <__GNU_EH_FRAME_HDR+0xb3d>
  404c49:	41 0e                	rex.B (bad) 
  404c4b:	10 86 02 43 0d 06    	adc    %al,0x60d4302(%rsi)
  404c51:	60                   	(bad)  
  404c52:	0c 07                	or     $0x7,%al
  404c54:	08 00                	or     %al,(%rax)
  404c56:	00 00                	add    %al,(%rax)
  404c58:	1c 00                	sbb    $0x0,%al
  404c5a:	00 00                	add    %al,(%rax)
  404c5c:	2c 08                	sub    $0x8,%al
  404c5e:	00 00                	add    %al,(%rax)
  404c60:	11 e2                	adc    %esp,%edx
  404c62:	ff                   	(bad)  
  404c63:	ff                   	(bad)  
  404c64:	3f                   	(bad)  
  404c65:	00 00                	add    %al,(%rax)
  404c67:	00 00                	add    %al,(%rax)
  404c69:	41 0e                	rex.B (bad) 
  404c6b:	10 86 02 43 0d 06    	adc    %al,0x60d4302(%rsi)
  404c71:	45 83 03 75          	rex.RB addl $0x75,(%r11)
  404c75:	0c 07                	or     $0x7,%al
  404c77:	08 1c 00             	or     %bl,(%rax,%rax,1)
  404c7a:	00 00                	add    %al,(%rax)
  404c7c:	4c 08 00             	rex.WR or %r8b,(%rax)
  404c7f:	00 30                	add    %dh,(%rax)
  404c81:	e2 ff                	loop   404c82 <__GNU_EH_FRAME_HDR+0xb76>
  404c83:	ff 33                	push   (%rbx)
  404c85:	00 00                	add    %al,(%rax)
  404c87:	00 00                	add    %al,(%rax)
  404c89:	41 0e                	rex.B (bad) 
  404c8b:	10 86 02 43 0d 06    	adc    %al,0x60d4302(%rsi)
  404c91:	6e                   	outsb  %ds:(%rsi),(%dx)
  404c92:	0c 07                	or     $0x7,%al
  404c94:	08 00                	or     %al,(%rax)
  404c96:	00 00                	add    %al,(%rax)
  404c98:	1c 00                	sbb    $0x0,%al
  404c9a:	00 00                	add    %al,(%rax)
  404c9c:	6c                   	insb   (%dx),%es:(%rdi)
  404c9d:	08 00                	or     %al,(%rax)
  404c9f:	00 43 e2             	add    %al,-0x1e(%rbx)
  404ca2:	ff                   	(bad)  
  404ca3:	ff 32                	push   (%rdx)
  404ca5:	00 00                	add    %al,(%rax)
  404ca7:	00 00                	add    %al,(%rax)
  404ca9:	41 0e                	rex.B (bad) 
  404cab:	10 86 02 43 0d 06    	adc    %al,0x60d4302(%rsi)
  404cb1:	6d                   	insl   (%dx),%es:(%rdi)
  404cb2:	0c 07                	or     $0x7,%al
  404cb4:	08 00                	or     %al,(%rax)
  404cb6:	00 00                	add    %al,(%rax)
  404cb8:	1c 00                	sbb    $0x0,%al
  404cba:	00 00                	add    %al,(%rax)
  404cbc:	8c 08                	mov    %cs,(%rax)
  404cbe:	00 00                	add    %al,(%rax)
  404cc0:	56                   	push   %rsi
  404cc1:	e2 ff                	loop   404cc2 <__GNU_EH_FRAME_HDR+0xbb6>
  404cc3:	ff 0e                	decl   (%rsi)
  404cc5:	00 00                	add    %al,(%rax)
  404cc7:	00 00                	add    %al,(%rax)
  404cc9:	41 0e                	rex.B (bad) 
  404ccb:	10 86 02 43 0d 06    	adc    %al,0x60d4302(%rsi)
  404cd1:	49 0c 07             	rex.WB or $0x7,%al
  404cd4:	08 00                	or     %al,(%rax)
  404cd6:	00 00                	add    %al,(%rax)
  404cd8:	20 00                	and    %al,(%rax)
  404cda:	00 00                	add    %al,(%rax)
  404cdc:	ac                   	lods   %ds:(%rsi),%al
  404cdd:	08 00                	or     %al,(%rax)
  404cdf:	00 44 e2 ff          	add    %al,-0x1(%rdx,%riz,8)
  404ce3:	ff 53 00             	call   *0x0(%rbx)
  404ce6:	00 00                	add    %al,(%rax)
  404ce8:	00 41 0e             	add    %al,0xe(%rcx)
  404ceb:	10 86 02 43 0d 06    	adc    %al,0x60d4302(%rsi)
  404cf1:	45 83 03 02          	rex.RB addl $0x2,(%r11)
  404cf5:	49 0c 07             	rex.WB or $0x7,%al
  404cf8:	08 00                	or     %al,(%rax)
  404cfa:	00 00                	add    %al,(%rax)
  404cfc:	1c 00                	sbb    $0x0,%al
  404cfe:	00 00                	add    %al,(%rax)
  404d00:	d0 08                	rorb   (%rax)
  404d02:	00 00                	add    %al,(%rax)
  404d04:	73 e2                	jae    404ce8 <__GNU_EH_FRAME_HDR+0xbdc>
  404d06:	ff                   	(bad)  
  404d07:	ff 26                	jmp    *(%rsi)
  404d09:	00 00                	add    %al,(%rax)
  404d0b:	00 00                	add    %al,(%rax)
  404d0d:	41 0e                	rex.B (bad) 
  404d0f:	10 86 02 43 0d 06    	adc    %al,0x60d4302(%rsi)
  404d15:	61                   	(bad)  
  404d16:	0c 07                	or     $0x7,%al
  404d18:	08 00                	or     %al,(%rax)
  404d1a:	00 00                	add    %al,(%rax)
  404d1c:	1c 00                	sbb    $0x0,%al
  404d1e:	00 00                	add    %al,(%rax)
  404d20:	f0 08 00             	lock or %al,(%rax)
  404d23:	00 7a e2             	add    %bh,-0x1e(%rdx)
  404d26:	ff                   	(bad)  
  404d27:	ff 22                	jmp    *(%rdx)
  404d29:	00 00                	add    %al,(%rax)
  404d2b:	00 00                	add    %al,(%rax)
  404d2d:	41 0e                	rex.B (bad) 
  404d2f:	10 86 02 43 0d 06    	adc    %al,0x60d4302(%rsi)
  404d35:	5d                   	pop    %rbp
  404d36:	0c 07                	or     $0x7,%al
  404d38:	08 00                	or     %al,(%rax)
  404d3a:	00 00                	add    %al,(%rax)
  404d3c:	1c 00                	sbb    $0x0,%al
  404d3e:	00 00                	add    %al,(%rax)
  404d40:	10 09                	adc    %cl,(%rcx)
  404d42:	00 00                	add    %al,(%rax)
  404d44:	7c e2                	jl     404d28 <__GNU_EH_FRAME_HDR+0xc1c>
  404d46:	ff                   	(bad)  
  404d47:	ff 2b                	ljmp   *(%rbx)
  404d49:	00 00                	add    %al,(%rax)
  404d4b:	00 00                	add    %al,(%rax)
  404d4d:	41 0e                	rex.B (bad) 
  404d4f:	10 86 02 43 0d 06    	adc    %al,0x60d4302(%rsi)
  404d55:	66 0c 07             	data16 or $0x7,%al
  404d58:	08 00                	or     %al,(%rax)
  404d5a:	00 00                	add    %al,(%rax)
  404d5c:	1c 00                	sbb    $0x0,%al
  404d5e:	00 00                	add    %al,(%rax)
  404d60:	30 09                	xor    %cl,(%rcx)
  404d62:	00 00                	add    %al,(%rax)
  404d64:	87 e2                	xchg   %esp,%edx
  404d66:	ff                   	(bad)  
  404d67:	ff 2a                	ljmp   *(%rdx)
  404d69:	00 00                	add    %al,(%rax)
  404d6b:	00 00                	add    %al,(%rax)
  404d6d:	41 0e                	rex.B (bad) 
  404d6f:	10 86 02 43 0d 06    	adc    %al,0x60d4302(%rsi)
  404d75:	65 0c 07             	gs or  $0x7,%al
  404d78:	08 00                	or     %al,(%rax)
  404d7a:	00 00                	add    %al,(%rax)
  404d7c:	1c 00                	sbb    $0x0,%al
  404d7e:	00 00                	add    %al,(%rax)
  404d80:	50                   	push   %rax
  404d81:	09 00                	or     %eax,(%rax)
  404d83:	00 91 e2 ff ff 32    	add    %dl,0x32ffffe2(%rcx)
  404d89:	00 00                	add    %al,(%rax)
  404d8b:	00 00                	add    %al,(%rax)
  404d8d:	41 0e                	rex.B (bad) 
  404d8f:	10 86 02 43 0d 06    	adc    %al,0x60d4302(%rsi)
  404d95:	6d                   	insl   (%dx),%es:(%rdi)
  404d96:	0c 07                	or     $0x7,%al
  404d98:	08 00                	or     %al,(%rax)
  404d9a:	00 00                	add    %al,(%rax)
  404d9c:	1c 00                	sbb    $0x0,%al
  404d9e:	00 00                	add    %al,(%rax)
  404da0:	70 09                	jo     404dab <__GNU_EH_FRAME_HDR+0xc9f>
  404da2:	00 00                	add    %al,(%rax)
  404da4:	a3 e2 ff ff 25 00 00 	movabs %eax,0x25ffffe2
  404dab:	00 00 
  404dad:	41 0e                	rex.B (bad) 
  404daf:	10 86 02 43 0d 06    	adc    %al,0x60d4302(%rsi)
  404db5:	60                   	(bad)  
  404db6:	0c 07                	or     $0x7,%al
  404db8:	08 00                	or     %al,(%rax)
  404dba:	00 00                	add    %al,(%rax)
  404dbc:	1c 00                	sbb    $0x0,%al
  404dbe:	00 00                	add    %al,(%rax)
  404dc0:	90                   	nop
  404dc1:	09 00                	or     %eax,(%rax)
  404dc3:	00 a8 e2 ff ff 31    	add    %ch,0x31ffffe2(%rax)
  404dc9:	00 00                	add    %al,(%rax)
  404dcb:	00 00                	add    %al,(%rax)
  404dcd:	41 0e                	rex.B (bad) 
  404dcf:	10 86 02 43 0d 06    	adc    %al,0x60d4302(%rsi)
  404dd5:	6c                   	insb   (%dx),%es:(%rdi)
  404dd6:	0c 07                	or     $0x7,%al
  404dd8:	08 00                	or     %al,(%rax)
  404dda:	00 00                	add    %al,(%rax)
  404ddc:	1c 00                	sbb    $0x0,%al
  404dde:	00 00                	add    %al,(%rax)
  404de0:	b0 09                	mov    $0x9,%al
  404de2:	00 00                	add    %al,(%rax)
  404de4:	ba e2 ff ff 0f       	mov    $0xfffffe2,%edx
  404de9:	00 00                	add    %al,(%rax)
  404deb:	00 00                	add    %al,(%rax)
  404ded:	41 0e                	rex.B (bad) 
  404def:	10 86 02 43 0d 06    	adc    %al,0x60d4302(%rsi)
  404df5:	4a 0c 07             	rex.WX or $0x7,%al
  404df8:	08 00                	or     %al,(%rax)
  404dfa:	00 00                	add    %al,(%rax)
  404dfc:	1c 00                	sbb    $0x0,%al
  404dfe:	00 00                	add    %al,(%rax)
  404e00:	d0 09                	rorb   (%rcx)
  404e02:	00 00                	add    %al,(%rax)
  404e04:	a9 e2 ff ff 42       	test   $0x42ffffe2,%eax
  404e09:	00 00                	add    %al,(%rax)
  404e0b:	00 00                	add    %al,(%rax)
  404e0d:	41 0e                	rex.B (bad) 
  404e0f:	10 86 02 43 0d 06    	adc    %al,0x60d4302(%rsi)
  404e15:	7d 0c                	jge    404e23 <__GNU_EH_FRAME_HDR+0xd17>
  404e17:	07                   	(bad)  
  404e18:	08 00                	or     %al,(%rax)
  404e1a:	00 00                	add    %al,(%rax)
  404e1c:	1c 00                	sbb    $0x0,%al
  404e1e:	00 00                	add    %al,(%rax)
  404e20:	f0 09 00             	lock or %eax,(%rax)
  404e23:	00 cc                	add    %cl,%ah
  404e25:	e2 ff                	loop   404e26 <__GNU_EH_FRAME_HDR+0xd1a>
  404e27:	ff 0e                	decl   (%rsi)
  404e29:	00 00                	add    %al,(%rax)
  404e2b:	00 00                	add    %al,(%rax)
  404e2d:	41 0e                	rex.B (bad) 
  404e2f:	10 86 02 43 0d 06    	adc    %al,0x60d4302(%rsi)
  404e35:	49 0c 07             	rex.WB or $0x7,%al
  404e38:	08 00                	or     %al,(%rax)
  404e3a:	00 00                	add    %al,(%rax)
  404e3c:	1c 00                	sbb    $0x0,%al
  404e3e:	00 00                	add    %al,(%rax)
  404e40:	10 0a                	adc    %cl,(%rdx)
  404e42:	00 00                	add    %al,(%rax)
  404e44:	ba e2 ff ff 60       	mov    $0x60ffffe2,%edx
  404e49:	00 00                	add    %al,(%rax)
  404e4b:	00 00                	add    %al,(%rax)
  404e4d:	41 0e                	rex.B (bad) 
  404e4f:	10 86 02 43 0d 06    	adc    %al,0x60d4302(%rsi)
  404e55:	02 5b 0c             	add    0xc(%rbx),%bl
  404e58:	07                   	(bad)  
  404e59:	08 00                	or     %al,(%rax)
  404e5b:	00 20                	add    %ah,(%rax)
  404e5d:	00 00                	add    %al,(%rax)
  404e5f:	00 30                	add    %dh,(%rax)
  404e61:	0a 00                	or     (%rax),%al
  404e63:	00 fa                	add    %bh,%dl
  404e65:	e2 ff                	loop   404e66 <__GNU_EH_FRAME_HDR+0xd5a>
  404e67:	ff 63 00             	jmp    *0x0(%rbx)
  404e6a:	00 00                	add    %al,(%rax)
  404e6c:	00 41 0e             	add    %al,0xe(%rcx)
  404e6f:	10 86 02 43 0d 06    	adc    %al,0x60d4302(%rsi)
  404e75:	47 8c 03             	rex.RXB mov %es,(%r11)
  404e78:	83 04 02 57          	addl   $0x57,(%rdx,%rax,1)
  404e7c:	0c 07                	or     $0x7,%al
  404e7e:	08 00                	or     %al,(%rax)
  404e80:	1c 00                	sbb    $0x0,%al
  404e82:	00 00                	add    %al,(%rax)
  404e84:	54                   	push   %rsp
  404e85:	0a 00                	or     (%rax),%al
  404e87:	00 3a                	add    %bh,(%rdx)
  404e89:	e3 ff                	jrcxz  404e8a <__GNU_EH_FRAME_HDR+0xd7e>
  404e8b:	ff 29                	ljmp   *(%rcx)
  404e8d:	00 00                	add    %al,(%rax)
  404e8f:	00 00                	add    %al,(%rax)
  404e91:	41 0e                	rex.B (bad) 
  404e93:	10 86 02 43 0d 06    	adc    %al,0x60d4302(%rsi)
  404e99:	64 0c 07             	fs or  $0x7,%al
  404e9c:	08 00                	or     %al,(%rax)
  404e9e:	00 00                	add    %al,(%rax)
  404ea0:	1c 00                	sbb    $0x0,%al
  404ea2:	00 00                	add    %al,(%rax)
  404ea4:	74 0a                	je     404eb0 <__GNU_EH_FRAME_HDR+0xda4>
  404ea6:	00 00                	add    %al,(%rax)
  404ea8:	43 e3 ff             	rex.XB jrcxz 404eaa <__GNU_EH_FRAME_HDR+0xd9e>
  404eab:	ff 31                	push   (%rcx)
  404ead:	00 00                	add    %al,(%rax)
  404eaf:	00 00                	add    %al,(%rax)
  404eb1:	41 0e                	rex.B (bad) 
  404eb3:	10 86 02 43 0d 06    	adc    %al,0x60d4302(%rsi)
  404eb9:	6c                   	insb   (%dx),%es:(%rdi)
  404eba:	0c 07                	or     $0x7,%al
  404ebc:	08 00                	or     %al,(%rax)
  404ebe:	00 00                	add    %al,(%rax)
  404ec0:	1c 00                	sbb    $0x0,%al
  404ec2:	00 00                	add    %al,(%rax)
  404ec4:	94                   	xchg   %eax,%esp
  404ec5:	0a 00                	or     (%rax),%al
  404ec7:	00 54 e3 ff          	add    %dl,-0x1(%rbx,%riz,8)
  404ecb:	ff 1a                	lcall  *(%rdx)
  404ecd:	00 00                	add    %al,(%rax)
  404ecf:	00 00                	add    %al,(%rax)
  404ed1:	41 0e                	rex.B (bad) 
  404ed3:	10 86 02 43 0d 06    	adc    %al,0x60d4302(%rsi)
  404ed9:	55                   	push   %rbp
  404eda:	0c 07                	or     $0x7,%al
  404edc:	08 00                	or     %al,(%rax)
  404ede:	00 00                	add    %al,(%rax)
  404ee0:	1c 00                	sbb    $0x0,%al
  404ee2:	00 00                	add    %al,(%rax)
  404ee4:	b4 0a                	mov    $0xa,%ah
  404ee6:	00 00                	add    %al,(%rax)
  404ee8:	4e e3 ff             	rex.WRX jrcxz 404eea <__GNU_EH_FRAME_HDR+0xdde>
  404eeb:	ff 2b                	ljmp   *(%rbx)
  404eed:	00 00                	add    %al,(%rax)
  404eef:	00 00                	add    %al,(%rax)
  404ef1:	41 0e                	rex.B (bad) 
  404ef3:	10 86 02 43 0d 06    	adc    %al,0x60d4302(%rsi)
  404ef9:	66 0c 07             	data16 or $0x7,%al
  404efc:	08 00                	or     %al,(%rax)
  404efe:	00 00                	add    %al,(%rax)
  404f00:	1c 00                	sbb    $0x0,%al
  404f02:	00 00                	add    %al,(%rax)
  404f04:	d4                   	(bad)  
  404f05:	0a 00                	or     (%rax),%al
  404f07:	00 5a e3             	add    %bl,-0x1d(%rdx)
  404f0a:	ff                   	(bad)  
  404f0b:	ff 14 00             	call   *(%rax,%rax,1)
  404f0e:	00 00                	add    %al,(%rax)
  404f10:	00 41 0e             	add    %al,0xe(%rcx)
  404f13:	10 86 02 43 0d 06    	adc    %al,0x60d4302(%rsi)
  404f19:	4f 0c 07             	rex.WRXB or $0x7,%al
  404f1c:	08 00                	or     %al,(%rax)
  404f1e:	00 00                	add    %al,(%rax)
  404f20:	1c 00                	sbb    $0x0,%al
  404f22:	00 00                	add    %al,(%rax)
  404f24:	f4                   	hlt    
  404f25:	0a 00                	or     (%rax),%al
  404f27:	00 4e e3             	add    %cl,-0x1d(%rsi)
  404f2a:	ff                   	(bad)  
  404f2b:	ff 0e                	decl   (%rsi)
  404f2d:	00 00                	add    %al,(%rax)
  404f2f:	00 00                	add    %al,(%rax)
  404f31:	41 0e                	rex.B (bad) 
  404f33:	10 86 02 43 0d 06    	adc    %al,0x60d4302(%rsi)
  404f39:	49 0c 07             	rex.WB or $0x7,%al
  404f3c:	08 00                	or     %al,(%rax)
  404f3e:	00 00                	add    %al,(%rax)
  404f40:	20 00                	and    %al,(%rax)
  404f42:	00 00                	add    %al,(%rax)
  404f44:	14 0b                	adc    $0xb,%al
  404f46:	00 00                	add    %al,(%rax)
  404f48:	3c e3                	cmp    $0xe3,%al
  404f4a:	ff                   	(bad)  
  404f4b:	ff 71 00             	push   0x0(%rcx)
  404f4e:	00 00                	add    %al,(%rax)
  404f50:	00 41 0e             	add    %al,0xe(%rcx)
  404f53:	10 86 02 43 0d 06    	adc    %al,0x60d4302(%rsi)
  404f59:	45 83 03 02          	rex.RB addl $0x2,(%r11)
  404f5d:	67 0c 07             	addr32 or $0x7,%al
  404f60:	08 00                	or     %al,(%rax)
  404f62:	00 00                	add    %al,(%rax)
  404f64:	1c 00                	sbb    $0x0,%al
  404f66:	00 00                	add    %al,(%rax)
  404f68:	38 0b                	cmp    %cl,(%rbx)
  404f6a:	00 00                	add    %al,(%rax)
  404f6c:	89 e3                	mov    %esp,%ebx
  404f6e:	ff                   	(bad)  
  404f6f:	ff 0e                	decl   (%rsi)
  404f71:	00 00                	add    %al,(%rax)
  404f73:	00 00                	add    %al,(%rax)
  404f75:	41 0e                	rex.B (bad) 
  404f77:	10 86 02 43 0d 06    	adc    %al,0x60d4302(%rsi)
  404f7d:	49 0c 07             	rex.WB or $0x7,%al
  404f80:	08 00                	or     %al,(%rax)
  404f82:	00 00                	add    %al,(%rax)
  404f84:	24 00                	and    $0x0,%al
  404f86:	00 00                	add    %al,(%rax)
  404f88:	68 09 00 00 77       	push   $0x77000009
  404f8d:	e3 ff                	jrcxz  404f8e <__GNU_EH_FRAME_HDR+0xe82>
  404f8f:	ff ac 00 00 00 04 50 	ljmp   *0x50040000(%rax,%rax,1)
  404f96:	51                   	push   %rcx
  404f97:	40 00 41 0e          	rex add %al,0xe(%rcx)
  404f9b:	10 86 02 43 0d 06    	adc    %al,0x60d4302(%rsi)
  404fa1:	45 83 03 02          	rex.RB addl $0x2,(%r11)
  404fa5:	a2 0c 07 08 00 00 00 	movabs %al,0x1c00000008070c
  404fac:	1c 00 
  404fae:	00 00                	add    %al,(%rax)
  404fb0:	80 0b 00             	orb    $0x0,(%rbx)
  404fb3:	00 fc                	add    %bh,%ah
  404fb5:	e3 ff                	jrcxz  404fb6 <__GNU_EH_FRAME_HDR+0xeaa>
  404fb7:	ff 1a                	lcall  *(%rdx)
  404fb9:	00 00                	add    %al,(%rax)
  404fbb:	00 00                	add    %al,(%rax)
  404fbd:	41 0e                	rex.B (bad) 
  404fbf:	10 86 02 43 0d 06    	adc    %al,0x60d4302(%rsi)
  404fc5:	55                   	push   %rbp
  404fc6:	0c 07                	or     $0x7,%al
  404fc8:	08 00                	or     %al,(%rax)
  404fca:	00 00                	add    %al,(%rax)
  404fcc:	1c 00                	sbb    $0x0,%al
  404fce:	00 00                	add    %al,(%rax)
  404fd0:	a0 0b 00 00 f6 e3 ff 	movabs 0xeffffe3f600000b,%al
  404fd7:	ff 0e 
  404fd9:	00 00                	add    %al,(%rax)
  404fdb:	00 00                	add    %al,(%rax)
  404fdd:	41 0e                	rex.B (bad) 
  404fdf:	10 86 02 43 0d 06    	adc    %al,0x60d4302(%rsi)
  404fe5:	49 0c 07             	rex.WB or $0x7,%al
  404fe8:	08 00                	or     %al,(%rax)
  404fea:	00 00                	add    %al,(%rax)
  404fec:	1c 00                	sbb    $0x0,%al
  404fee:	00 00                	add    %al,(%rax)
  404ff0:	c0 0b 00             	rorb   $0x0,(%rbx)
  404ff3:	00 e4                	add    %ah,%ah
  404ff5:	e3 ff                	jrcxz  404ff6 <__GNU_EH_FRAME_HDR+0xeea>
  404ff7:	ff 57 00             	call   *0x0(%rdi)
  404ffa:	00 00                	add    %al,(%rax)
  404ffc:	00 41 0e             	add    %al,0xe(%rcx)
  404fff:	10 86 02 43 0d 06    	adc    %al,0x60d4302(%rsi)
  405005:	02 52 0c             	add    0xc(%rdx),%dl
  405008:	07                   	(bad)  
  405009:	08 00                	or     %al,(%rax)
  40500b:	00 1c 00             	add    %bl,(%rax,%rax,1)
  40500e:	00 00                	add    %al,(%rax)
  405010:	e0 0b                	loopne 40501d <__GNU_EH_FRAME_HDR+0xf11>
  405012:	00 00                	add    %al,(%rax)
  405014:	1b e4                	sbb    %esp,%esp
  405016:	ff                   	(bad)  
  405017:	ff 28                	ljmp   *(%rax)
  405019:	00 00                	add    %al,(%rax)
  40501b:	00 00                	add    %al,(%rax)
  40501d:	41 0e                	rex.B (bad) 
  40501f:	10 86 02 43 0d 06    	adc    %al,0x60d4302(%rsi)
  405025:	63 0c 07             	movsxd (%rdi,%rax,1),%ecx
  405028:	08 00                	or     %al,(%rax)
  40502a:	00 00                	add    %al,(%rax)
  40502c:	1c 00                	sbb    $0x0,%al
  40502e:	00 00                	add    %al,(%rax)
  405030:	00 0c 00             	add    %cl,(%rax,%rax,1)
  405033:	00 24 e4             	add    %ah,(%rsp,%riz,8)
  405036:	ff                   	(bad)  
  405037:	ff 20                	jmp    *(%rax)
  405039:	00 00                	add    %al,(%rax)
  40503b:	00 00                	add    %al,(%rax)
  40503d:	41 0e                	rex.B (bad) 
  40503f:	10 86 02 43 0d 06    	adc    %al,0x60d4302(%rsi)
  405045:	5b                   	pop    %rbx
  405046:	0c 07                	or     $0x7,%al
  405048:	08 00                	or     %al,(%rax)
  40504a:	00 00                	add    %al,(%rax)
  40504c:	1c 00                	sbb    $0x0,%al
  40504e:	00 00                	add    %al,(%rax)
  405050:	20 0c 00             	and    %cl,(%rax,%rax,1)
  405053:	00 24 e4             	add    %ah,(%rsp,%riz,8)
  405056:	ff                   	(bad)  
  405057:	ff 11                	call   *(%rcx)
  405059:	00 00                	add    %al,(%rax)
  40505b:	00 00                	add    %al,(%rax)
  40505d:	41 0e                	rex.B (bad) 
  40505f:	10 86 02 43 0d 06    	adc    %al,0x60d4302(%rsi)
  405065:	4c 0c 07             	rex.WR or $0x7,%al
  405068:	08 00                	or     %al,(%rax)
  40506a:	00 00                	add    %al,(%rax)
  40506c:	1c 00                	sbb    $0x0,%al
  40506e:	00 00                	add    %al,(%rax)
  405070:	40 0c 00             	rex or $0x0,%al
  405073:	00 15 e4 ff ff 3e    	add    %dl,0x3effffe4(%rip)        # 3f40505d <_end+0x3effdf6d>
  405079:	00 00                	add    %al,(%rax)
  40507b:	00 00                	add    %al,(%rax)
  40507d:	41 0e                	rex.B (bad) 
  40507f:	10 86 02 43 0d 06    	adc    %al,0x60d4302(%rsi)
  405085:	45 83 03 74          	rex.RB addl $0x74,(%r11)
  405089:	0c 07                	or     $0x7,%al
  40508b:	08 1c 00             	or     %bl,(%rax,%rax,1)
  40508e:	00 00                	add    %al,(%rax)
  405090:	60                   	(bad)  
  405091:	0c 00                	or     $0x0,%al
  405093:	00 33                	add    %dh,(%rbx)
  405095:	e4 ff                	in     $0xff,%al
  405097:	ff                   	(bad)  
  405098:	38 00                	cmp    %al,(%rax)
  40509a:	00 00                	add    %al,(%rax)
  40509c:	00 41 0e             	add    %al,0xe(%rcx)
  40509f:	10 86 02 43 0d 06    	adc    %al,0x60d4302(%rsi)
  4050a5:	45 83 03 6e          	rex.RB addl $0x6e,(%r11)
  4050a9:	0c 07                	or     $0x7,%al
  4050ab:	08 1c 00             	or     %bl,(%rax,%rax,1)
  4050ae:	00 00                	add    %al,(%rax)
  4050b0:	80 0c 00 00          	orb    $0x0,(%rax,%rax,1)
  4050b4:	4c e4 ff             	rex.WR in $0xff,%al
  4050b7:	ff 11                	call   *(%rcx)
  4050b9:	00 00                	add    %al,(%rax)
  4050bb:	00 00                	add    %al,(%rax)
  4050bd:	41 0e                	rex.B (bad) 
  4050bf:	10 86 02 43 0d 06    	adc    %al,0x60d4302(%rsi)
  4050c5:	4c 0c 07             	rex.WR or $0x7,%al
  4050c8:	08 00                	or     %al,(%rax)
  4050ca:	00 00                	add    %al,(%rax)
  4050cc:	1c 00                	sbb    $0x0,%al
  4050ce:	00 00                	add    %al,(%rax)
  4050d0:	a0 0c 00 00 f9 c4 ff 	movabs 0x3effffc4f900000c,%al
  4050d7:	ff 3e 
  4050d9:	00 00                	add    %al,(%rax)
  4050db:	00 00                	add    %al,(%rax)
  4050dd:	41 0e                	rex.B (bad) 
  4050df:	10 86 02 43 0d 06    	adc    %al,0x60d4302(%rsi)
  4050e5:	79 0c                	jns    4050f3 <__GNU_EH_FRAME_HDR+0xfe7>
  4050e7:	07                   	(bad)  
  4050e8:	08 00                	or     %al,(%rax)
  4050ea:	00 00                	add    %al,(%rax)
  4050ec:	1c 00                	sbb    $0x0,%al
  4050ee:	00 00                	add    %al,(%rax)
  4050f0:	c0 0c 00 00          	rorb   $0x0,(%rax,%rax,1)
  4050f4:	17                   	(bad)  
  4050f5:	c5 ff ff             	(bad)  
  4050f8:	15 00 00 00 00       	adc    $0x0,%eax
  4050fd:	41 0e                	rex.B (bad) 
  4050ff:	10 86 02 43 0d 06    	adc    %al,0x60d4302(%rsi)
  405105:	50                   	push   %rax
  405106:	0c 07                	or     $0x7,%al
  405108:	08 00                	or     %al,(%rax)
	...

000000000040510c <__FRAME_END__>:
  40510c:	00 00                	add    %al,(%rax)
	...

Disassembly of section .gcc_except_table:

0000000000405110 <.gcc_except_table>:
  405110:	ff                   	(bad)  
  405111:	ff 01                	incl   (%rcx)
  405113:	0a 7e 05             	or     0x5(%rsi),%bh
  405116:	8e 03                	mov    (%rbx),%es
  405118:	00 a3 03 05 00 00    	add    %ah,0x503(%rbx)
  40511e:	ff                   	(bad)  
  40511f:	ff 01                	incl   (%rcx)
  405121:	00 ff                	add    %bh,%bh
  405123:	ff 01                	incl   (%rcx)
  405125:	00 00                	add    %al,(%rax)
  405127:	00 ff                	add    %bh,%bh
  405129:	03 25 01 1a 26 5a    	add    0x5a261a01(%rip),%esp        # 5a666b30 <_end+0x5a25fa40>
  40512f:	00 00                	add    %al,(%rax)
  405131:	eb 02                	jmp    405135 <__FRAME_END__+0x29>
  405133:	3f                   	(bad)  
  405134:	b6 04                	mov    $0x4,%dh
  405136:	01 d7                	add    %edx,%edi
  405138:	03 28                	add    (%rax),%ebp
  40513a:	00 00                	add    %al,(%rax)
  40513c:	86 05 21 a7 05 00    	xchg   %al,0x5a721(%rip)        # 45f863 <_end+0x58773>
  405142:	b5 05                	mov    $0x5,%ch
  405144:	05 00 00 01 00       	add    $0x10000,%eax
  405149:	00 00                	add    %al,(%rax)
  40514b:	00 00                	add    %al,(%rax)
  40514d:	00 00                	add    %al,(%rax)
  40514f:	00 ff                	add    %bh,%bh
  405151:	03 19                	add    (%rcx),%ebx
  405153:	01 0f                	add    %ecx,(%rdi)
  405155:	64 05 73 01 8e 01    	fs add $0x18e0173,%eax
  40515b:	05 93 01 00 a1       	add    $0xa1000193,%eax
  405160:	01 05 00 00 01 00    	add    %eax,0x10000(%rip)        # 415166 <_end+0xe076>
  405166:	00 00                	add    %al,(%rax)
  405168:	00 00                	add    %al,(%rax)
	...

Disassembly of section .init_array:

0000000000406dc0 <__frame_dummy_init_array_entry>:
  406dc0:	90                   	nop
  406dc1:	12 40 00             	adc    0x0(%rax),%al
  406dc4:	00 00                	add    %al,(%rax)
  406dc6:	00 00                	add    %al,(%rax)
  406dc8:	0b 16                	or     (%rsi),%edx
  406dca:	40 00 00             	rex add %al,(%rax)
  406dcd:	00 00                	add    %al,(%rax)
	...

Disassembly of section .fini_array:

0000000000406dd0 <__do_global_dtors_aux_fini_array_entry>:
  406dd0:	60                   	(bad)  
  406dd1:	12 40 00             	adc    0x0(%rax),%al
  406dd4:	00 00                	add    %al,(%rax)
	...

Disassembly of section .dynamic:

0000000000406dd8 <_DYNAMIC>:
  406dd8:	01 00                	add    %eax,(%rax)
  406dda:	00 00                	add    %al,(%rax)
  406ddc:	00 00                	add    %al,(%rax)
  406dde:	00 00                	add    %al,(%rax)
  406de0:	69 01 00 00 00 00    	imul   $0x0,(%rcx),%eax
  406de6:	00 00                	add    %al,(%rax)
  406de8:	01 00                	add    %eax,(%rax)
  406dea:	00 00                	add    %al,(%rax)
  406dec:	00 00                	add    %al,(%rax)
  406dee:	00 00                	add    %al,(%rax)
  406df0:	78 01                	js     406df3 <_DYNAMIC+0x1b>
  406df2:	00 00                	add    %al,(%rax)
  406df4:	00 00                	add    %al,(%rax)
  406df6:	00 00                	add    %al,(%rax)
  406df8:	01 00                	add    %eax,(%rax)
  406dfa:	00 00                	add    %al,(%rax)
  406dfc:	00 00                	add    %al,(%rax)
  406dfe:	00 00                	add    %al,(%rax)
  406e00:	82                   	(bad)  
  406e01:	01 00                	add    %eax,(%rax)
  406e03:	00 00                	add    %al,(%rax)
  406e05:	00 00                	add    %al,(%rax)
  406e07:	00 01                	add    %al,(%rcx)
  406e09:	00 00                	add    %al,(%rax)
  406e0b:	00 00                	add    %al,(%rax)
  406e0d:	00 00                	add    %al,(%rax)
  406e0f:	00 90 01 00 00 00    	add    %dl,0x1(%rax)
  406e15:	00 00                	add    %al,(%rax)
  406e17:	00 0c 00             	add    %cl,(%rax,%rax,1)
  406e1a:	00 00                	add    %al,(%rax)
  406e1c:	00 00                	add    %al,(%rax)
  406e1e:	00 00                	add    %al,(%rax)
  406e20:	00 10                	add    %dl,(%rax)
  406e22:	40 00 00             	rex add %al,(%rax)
  406e25:	00 00                	add    %al,(%rax)
  406e27:	00 0d 00 00 00 00    	add    %cl,0x0(%rip)        # 406e2d <_DYNAMIC+0x55>
  406e2d:	00 00                	add    %al,(%rax)
  406e2f:	00 14 35 40 00 00 00 	add    %dl,0x40(,%rsi,1)
  406e36:	00 00                	add    %al,(%rax)
  406e38:	19 00                	sbb    %eax,(%rax)
  406e3a:	00 00                	add    %al,(%rax)
  406e3c:	00 00                	add    %al,(%rax)
  406e3e:	00 00                	add    %al,(%rax)
  406e40:	c0 6d 40 00          	shrb   $0x0,0x40(%rbp)
  406e44:	00 00                	add    %al,(%rax)
  406e46:	00 00                	add    %al,(%rax)
  406e48:	1b 00                	sbb    (%rax),%eax
  406e4a:	00 00                	add    %al,(%rax)
  406e4c:	00 00                	add    %al,(%rax)
  406e4e:	00 00                	add    %al,(%rax)
  406e50:	10 00                	adc    %al,(%rax)
  406e52:	00 00                	add    %al,(%rax)
  406e54:	00 00                	add    %al,(%rax)
  406e56:	00 00                	add    %al,(%rax)
  406e58:	1a 00                	sbb    (%rax),%al
  406e5a:	00 00                	add    %al,(%rax)
  406e5c:	00 00                	add    %al,(%rax)
  406e5e:	00 00                	add    %al,(%rax)
  406e60:	d0 6d 40             	shrb   0x40(%rbp)
  406e63:	00 00                	add    %al,(%rax)
  406e65:	00 00                	add    %al,(%rax)
  406e67:	00 1c 00             	add    %bl,(%rax,%rax,1)
  406e6a:	00 00                	add    %al,(%rax)
  406e6c:	00 00                	add    %al,(%rax)
  406e6e:	00 00                	add    %al,(%rax)
  406e70:	08 00                	or     %al,(%rax)
  406e72:	00 00                	add    %al,(%rax)
  406e74:	00 00                	add    %al,(%rax)
  406e76:	00 00                	add    %al,(%rax)
  406e78:	f5                   	cmc    
  406e79:	fe                   	(bad)  
  406e7a:	ff 6f 00             	ljmp   *0x0(%rdi)
  406e7d:	00 00                	add    %al,(%rax)
  406e7f:	00 c0                	add    %al,%al
  406e81:	03 40 00             	add    0x0(%rax),%eax
  406e84:	00 00                	add    %al,(%rax)
  406e86:	00 00                	add    %al,(%rax)
  406e88:	05 00 00 00 00       	add    $0x0,%eax
  406e8d:	00 00                	add    %al,(%rax)
  406e8f:	00 b0 06 40 00 00    	add    %dh,0x4006(%rax)
  406e95:	00 00                	add    %al,(%rax)
  406e97:	00 06                	add    %al,(%rsi)
  406e99:	00 00                	add    %al,(%rax)
  406e9b:	00 00                	add    %al,(%rax)
  406e9d:	00 00                	add    %al,(%rax)
  406e9f:	00 f8                	add    %bh,%al
  406ea1:	03 40 00             	add    0x0(%rax),%eax
  406ea4:	00 00                	add    %al,(%rax)
  406ea6:	00 00                	add    %al,(%rax)
  406ea8:	0a 00                	or     (%rax),%al
  406eaa:	00 00                	add    %al,(%rax)
  406eac:	00 00                	add    %al,(%rax)
  406eae:	00 00                	add    %al,(%rax)
  406eb0:	df 01                	filds  (%rcx)
  406eb2:	00 00                	add    %al,(%rax)
  406eb4:	00 00                	add    %al,(%rax)
  406eb6:	00 00                	add    %al,(%rax)
  406eb8:	0b 00                	or     (%rax),%eax
  406eba:	00 00                	add    %al,(%rax)
  406ebc:	00 00                	add    %al,(%rax)
  406ebe:	00 00                	add    %al,(%rax)
  406ec0:	18 00                	sbb    %al,(%rax)
  406ec2:	00 00                	add    %al,(%rax)
  406ec4:	00 00                	add    %al,(%rax)
  406ec6:	00 00                	add    %al,(%rax)
  406ec8:	15 00 00 00 00       	adc    $0x0,%eax
	...
  406ed5:	00 00                	add    %al,(%rax)
  406ed7:	00 03                	add    %al,(%rbx)
  406ed9:	00 00                	add    %al,(%rax)
  406edb:	00 00                	add    %al,(%rax)
  406edd:	00 00                	add    %al,(%rax)
  406edf:	00 e8                	add    %ch,%al
  406ee1:	6f                   	outsl  %ds:(%rsi),(%dx)
  406ee2:	40 00 00             	rex add %al,(%rax)
  406ee5:	00 00                	add    %al,(%rax)
  406ee7:	00 02                	add    %al,(%rdx)
  406ee9:	00 00                	add    %al,(%rax)
  406eeb:	00 00                	add    %al,(%rax)
  406eed:	00 00                	add    %al,(%rax)
  406eef:	00 40 02             	add    %al,0x2(%rax)
  406ef2:	00 00                	add    %al,(%rax)
  406ef4:	00 00                	add    %al,(%rax)
  406ef6:	00 00                	add    %al,(%rax)
  406ef8:	14 00                	adc    $0x0,%al
  406efa:	00 00                	add    %al,(%rax)
  406efc:	00 00                	add    %al,(%rax)
  406efe:	00 00                	add    %al,(%rax)
  406f00:	07                   	(bad)  
  406f01:	00 00                	add    %al,(%rax)
  406f03:	00 00                	add    %al,(%rax)
  406f05:	00 00                	add    %al,(%rax)
  406f07:	00 17                	add    %dl,(%rdi)
  406f09:	00 00                	add    %al,(%rax)
  406f0b:	00 00                	add    %al,(%rax)
  406f0d:	00 00                	add    %al,(%rax)
  406f0f:	00 c0                	add    %al,%al
  406f11:	09 40 00             	or     %eax,0x0(%rax)
  406f14:	00 00                	add    %al,(%rax)
  406f16:	00 00                	add    %al,(%rax)
  406f18:	07                   	(bad)  
  406f19:	00 00                	add    %al,(%rax)
  406f1b:	00 00                	add    %al,(%rax)
  406f1d:	00 00                	add    %al,(%rax)
  406f1f:	00 60 09             	add    %ah,0x9(%rax)
  406f22:	40 00 00             	rex add %al,(%rax)
  406f25:	00 00                	add    %al,(%rax)
  406f27:	00 08                	add    %cl,(%rax)
  406f29:	00 00                	add    %al,(%rax)
  406f2b:	00 00                	add    %al,(%rax)
  406f2d:	00 00                	add    %al,(%rax)
  406f2f:	00 60 00             	add    %ah,0x0(%rax)
  406f32:	00 00                	add    %al,(%rax)
  406f34:	00 00                	add    %al,(%rax)
  406f36:	00 00                	add    %al,(%rax)
  406f38:	09 00                	or     %eax,(%rax)
  406f3a:	00 00                	add    %al,(%rax)
  406f3c:	00 00                	add    %al,(%rax)
  406f3e:	00 00                	add    %al,(%rax)
  406f40:	18 00                	sbb    %al,(%rax)
  406f42:	00 00                	add    %al,(%rax)
  406f44:	00 00                	add    %al,(%rax)
  406f46:	00 00                	add    %al,(%rax)
  406f48:	fe                   	(bad)  
  406f49:	ff                   	(bad)  
  406f4a:	ff 6f 00             	ljmp   *0x0(%rdi)
  406f4d:	00 00                	add    %al,(%rax)
  406f4f:	00 d0                	add    %dl,%al
  406f51:	08 40 00             	or     %al,0x0(%rax)
  406f54:	00 00                	add    %al,(%rax)
  406f56:	00 00                	add    %al,(%rax)
  406f58:	ff                   	(bad)  
  406f59:	ff                   	(bad)  
  406f5a:	ff 6f 00             	ljmp   *0x0(%rdi)
  406f5d:	00 00                	add    %al,(%rax)
  406f5f:	00 03                	add    %al,(%rbx)
  406f61:	00 00                	add    %al,(%rax)
  406f63:	00 00                	add    %al,(%rax)
  406f65:	00 00                	add    %al,(%rax)
  406f67:	00 f0                	add    %dh,%al
  406f69:	ff                   	(bad)  
  406f6a:	ff 6f 00             	ljmp   *0x0(%rdi)
  406f6d:	00 00                	add    %al,(%rax)
  406f6f:	00 90 08 40 00 00    	add    %dl,0x4008(%rax)
	...

Disassembly of section .got:

0000000000406fd8 <.got>:
	...

Disassembly of section .got.plt:

0000000000406fe8 <_GLOBAL_OFFSET_TABLE_>:
  406fe8:	d8 6d 40             	fsubrs 0x40(%rbp)
	...
  406fff:	00 36                	add    %dh,(%rsi)
  407001:	10 40 00             	adc    %al,0x0(%rax)
  407004:	00 00                	add    %al,(%rax)
  407006:	00 00                	add    %al,(%rax)
  407008:	46 10 40 00          	rex.RX adc %r8b,0x0(%rax)
  40700c:	00 00                	add    %al,(%rax)
  40700e:	00 00                	add    %al,(%rax)
  407010:	56                   	push   %rsi
  407011:	10 40 00             	adc    %al,0x0(%rax)
  407014:	00 00                	add    %al,(%rax)
  407016:	00 00                	add    %al,(%rax)
  407018:	66 10 40 00          	data16 adc %al,0x0(%rax)
  40701c:	00 00                	add    %al,(%rax)
  40701e:	00 00                	add    %al,(%rax)
  407020:	76 10                	jbe    407032 <_GLOBAL_OFFSET_TABLE_+0x4a>
  407022:	40 00 00             	rex add %al,(%rax)
  407025:	00 00                	add    %al,(%rax)
  407027:	00 86 10 40 00 00    	add    %al,0x4010(%rsi)
  40702d:	00 00                	add    %al,(%rax)
  40702f:	00 96 10 40 00 00    	add    %dl,0x4010(%rsi)
  407035:	00 00                	add    %al,(%rax)
  407037:	00 a6 10 40 00 00    	add    %ah,0x4010(%rsi)
  40703d:	00 00                	add    %al,(%rax)
  40703f:	00 b6 10 40 00 00    	add    %dh,0x4010(%rsi)
  407045:	00 00                	add    %al,(%rax)
  407047:	00 c6                	add    %al,%dh
  407049:	10 40 00             	adc    %al,0x0(%rax)
  40704c:	00 00                	add    %al,(%rax)
  40704e:	00 00                	add    %al,(%rax)
  407050:	d6                   	(bad)  
  407051:	10 40 00             	adc    %al,0x0(%rax)
  407054:	00 00                	add    %al,(%rax)
  407056:	00 00                	add    %al,(%rax)
  407058:	e6 10                	out    %al,$0x10
  40705a:	40 00 00             	rex add %al,(%rax)
  40705d:	00 00                	add    %al,(%rax)
  40705f:	00 f6                	add    %dh,%dh
  407061:	10 40 00             	adc    %al,0x0(%rax)
  407064:	00 00                	add    %al,(%rax)
  407066:	00 00                	add    %al,(%rax)
  407068:	06                   	(bad)  
  407069:	11 40 00             	adc    %eax,0x0(%rax)
  40706c:	00 00                	add    %al,(%rax)
  40706e:	00 00                	add    %al,(%rax)
  407070:	16                   	(bad)  
  407071:	11 40 00             	adc    %eax,0x0(%rax)
  407074:	00 00                	add    %al,(%rax)
  407076:	00 00                	add    %al,(%rax)
  407078:	26 11 40 00          	es adc %eax,0x0(%rax)
  40707c:	00 00                	add    %al,(%rax)
  40707e:	00 00                	add    %al,(%rax)
  407080:	36 11 40 00          	ss adc %eax,0x0(%rax)
  407084:	00 00                	add    %al,(%rax)
  407086:	00 00                	add    %al,(%rax)
  407088:	46 11 40 00          	rex.RX adc %r8d,0x0(%rax)
  40708c:	00 00                	add    %al,(%rax)
  40708e:	00 00                	add    %al,(%rax)
  407090:	56                   	push   %rsi
  407091:	11 40 00             	adc    %eax,0x0(%rax)
  407094:	00 00                	add    %al,(%rax)
  407096:	00 00                	add    %al,(%rax)
  407098:	66 11 40 00          	adc    %ax,0x0(%rax)
  40709c:	00 00                	add    %al,(%rax)
  40709e:	00 00                	add    %al,(%rax)
  4070a0:	76 11                	jbe    4070b3 <_GLOBAL_OFFSET_TABLE_+0xcb>
  4070a2:	40 00 00             	rex add %al,(%rax)
  4070a5:	00 00                	add    %al,(%rax)
  4070a7:	00 86 11 40 00 00    	add    %al,0x4011(%rsi)
  4070ad:	00 00                	add    %al,(%rax)
  4070af:	00 96 11 40 00 00    	add    %dl,0x4011(%rsi)
  4070b5:	00 00                	add    %al,(%rax)
  4070b7:	00 a6 11 40 00 00    	add    %ah,0x4011(%rsi)
  4070bd:	00 00                	add    %al,(%rax)
	...

Disassembly of section .data:

00000000004070c0 <__data_start>:
	...

00000000004070c8 <FLAG>:
  4070c8:	13 40 40             	adc    0x40(%rax),%eax
  4070cb:	00 00                	add    %al,(%rax)
  4070cd:	00 00                	add    %al,(%rax)
	...

Disassembly of section .bss:

00000000004070d0 <stdout@GLIBC_2.2.5>:
	...

00000000004070e0 <stdin@GLIBC_2.2.5>:
	...

00000000004070e8 <completed.0>:
	...

00000000004070e9 <_ZStL8__ioinit>:
  4070e9:	00 00                	add    %al,(%rax)
  4070eb:	00 00                	add    %al,(%rax)
  4070ed:	00 00                	add    %al,(%rax)
	...

Disassembly of section .comment:

0000000000000000 <.comment>:
   0:	47                   	rex.RXB
   1:	43                   	rex.XB
   2:	43 3a 20             	rex.XB cmp (%r8),%spl
   5:	28 47 4e             	sub    %al,0x4e(%rdi)
   8:	55                   	push   %rbp
   9:	29 20                	sub    %esp,(%rax)
   b:	31 31                	xor    %esi,(%rcx)
   d:	2e 34 2e             	cs xor $0x2e,%al
  10:	31 20                	xor    %esp,(%rax)
  12:	32 30                	xor    (%rax),%dh
  14:	32 33                	xor    (%rbx),%dh
  16:	30 36                	xor    %dh,(%rsi)
  18:	30 35 20 28 52 65    	xor    %dh,0x65522820(%rip)        # 6552283e <_end+0x6511b74e>
  1e:	64 20 48 61          	and    %cl,%fs:0x61(%rax)
  22:	74 20                	je     44 <__abi_tag-0x400358>
  24:	31 31                	xor    %esi,(%rcx)
  26:	2e 34 2e             	cs xor $0x2e,%al
  29:	31                   	.byte 0x31
  2a:	2d                   	.byte 0x2d
  2b:	32 29                	xor    (%rcx),%ch
	...

Disassembly of section .gnu.build.attributes:

00000000004090f0 <.gnu.build.attributes>:
  4090f0:	0b 00                	or     (%rax),%eax
  4090f2:	00 00                	add    %al,(%rax)
  4090f4:	10 00                	adc    %al,(%rax)
  4090f6:	00 00                	add    %al,(%rax)
  4090f8:	00 01                	add    %al,(%rcx)
  4090fa:	00 00                	add    %al,(%rax)
  4090fc:	47                   	rex.RXB
  4090fd:	41 24 01             	rex.B and $0x1,%al
  409100:	33 70 31             	xor    0x31(%rax),%esi
  409103:	30 39                	xor    %bh,(%rcx)
  409105:	33 00                	xor    (%rax),%eax
  409107:	00 d6                	add    %dl,%dh
  409109:	11 40 00             	adc    %eax,0x0(%rax)
  40910c:	00 00                	add    %al,(%rax)
  40910e:	00 00                	add    %al,(%rax)
  409110:	d6                   	(bad)  
  409111:	11 40 00             	adc    %eax,0x0(%rax)
  409114:	00 00                	add    %al,(%rax)
  409116:	00 00                	add    %al,(%rax)
  409118:	20 00                	and    %al,(%rax)
  40911a:	00 00                	add    %al,(%rax)
  40911c:	00 00                	add    %al,(%rax)
  40911e:	00 00                	add    %al,(%rax)
  409120:	00 01                	add    %al,(%rcx)
  409122:	00 00                	add    %al,(%rax)
  409124:	47                   	rex.RXB
  409125:	41 24 05             	rex.B and $0x5,%al
  409128:	72 75                	jb     40919f <_end+0x20af>
  40912a:	6e                   	outsb  %ds:(%rsi),(%dx)
  40912b:	6e                   	outsb  %ds:(%rsi),(%dx)
  40912c:	69 6e 67 20 67 63 63 	imul   $0x63636720,0x67(%rsi),%ebp
  409133:	20 31                	and    %dh,(%rcx)
  409135:	31 2e                	xor    %ebp,(%rsi)
  409137:	34 2e                	xor    $0x2e,%al
  409139:	31 20                	xor    %esp,(%rax)
  40913b:	32 30                	xor    (%rax),%dh
  40913d:	32 33                	xor    (%rbx),%dh
  40913f:	30 36                	xor    %dh,(%rsi)
  409141:	30 35 00 20 00 00    	xor    %dh,0x2000(%rip)        # 40b147 <_end+0x4057>
  409147:	00 00                	add    %al,(%rax)
  409149:	00 00                	add    %al,(%rax)
  40914b:	00 00                	add    %al,(%rax)
  40914d:	01 00                	add    %eax,(%rax)
  40914f:	00 47 41             	add    %al,0x41(%rdi)
  409152:	24 05                	and    $0x5,%al
  409154:	61                   	(bad)  
  409155:	6e                   	outsb  %ds:(%rsi),(%dx)
  409156:	6e                   	outsb  %ds:(%rsi),(%dx)
  409157:	6f                   	outsl  %ds:(%rsi),(%dx)
  409158:	62                   	(bad)  
  409159:	69 6e 20 67 63 63 20 	imul   $0x20636367,0x20(%rsi),%ebp
  409160:	31 31                	xor    %esi,(%rcx)
  409162:	2e 33 2e             	cs xor (%rsi),%ebp
  409165:	31 20                	xor    %esp,(%rax)
  409167:	32 30                	xor    (%rax),%dh
  409169:	32 32                	xor    (%rdx),%dh
  40916b:	31 31                	xor    %esi,(%rcx)
  40916d:	32 31                	xor    (%rcx),%dh
  40916f:	00 19                	add    %bl,(%rcx)
	...
  409179:	01 00                	add    %eax,(%rax)
  40917b:	00 47 41             	add    %al,0x41(%rdi)
  40917e:	24 05                	and    $0x5,%al
  409180:	70 6c                	jo     4091ee <_end+0x20fe>
  409182:	75 67                	jne    4091eb <_end+0x20fb>
  409184:	69 6e 20 6e 61 6d 65 	imul   $0x656d616e,0x20(%rsi),%ebp
  40918b:	3a 20                	cmp    (%rax),%ah
  40918d:	61                   	(bad)  
  40918e:	6e                   	outsb  %ds:(%rsi),(%dx)
  40918f:	6e                   	outsb  %ds:(%rsi),(%dx)
  409190:	6f                   	outsl  %ds:(%rsi),(%dx)
  409191:	62                   	(bad)  
  409192:	69 6e 00 00 00 00 0b 	imul   $0xb000000,0x0(%rsi),%ebp
	...
  4091a1:	01 00                	add    %eax,(%rax)
  4091a3:	00 47 41             	add    %al,0x41(%rdi)
  4091a6:	2a 47 4f             	sub    0x4f(%rdi),%al
  4091a9:	57                   	push   %rdi
  4091aa:	00 6a 05             	add    %ch,0x5(%rdx)
  4091ad:	22 00                	and    (%rax),%al
  4091af:	00 06                	add    %al,(%rsi)
	...
  4091b9:	01 00                	add    %eax,(%rax)
  4091bb:	00 47 41             	add    %al,0x41(%rdi)
  4091be:	2a 02                	sub    (%rdx),%al
  4091c0:	03 00                	add    (%rax),%eax
  4091c2:	00 00                	add    %al,(%rax)
  4091c4:	0f 00 00             	sldt   (%rax)
  4091c7:	00 00                	add    %al,(%rax)
  4091c9:	00 00                	add    %al,(%rax)
  4091cb:	00 00                	add    %al,(%rax)
  4091cd:	01 00                	add    %eax,(%rax)
  4091cf:	00 47 41             	add    %al,0x41(%rdi)
  4091d2:	2b 73 74             	sub    0x74(%rbx),%esi
  4091d5:	61                   	(bad)  
  4091d6:	63 6b 5f             	movsxd 0x5f(%rbx),%ebp
  4091d9:	63 6c 61 73          	movsxd 0x73(%rcx,%riz,2),%ebp
  4091dd:	68 00 00 13 00       	push   $0x130000
  4091e2:	00 00                	add    %al,(%rax)
  4091e4:	00 00                	add    %al,(%rax)
  4091e6:	00 00                	add    %al,(%rax)
  4091e8:	00 01                	add    %al,(%rcx)
  4091ea:	00 00                	add    %al,(%rax)
  4091ec:	47                   	rex.RXB
  4091ed:	41 2a 63 66          	sub    0x66(%r11),%spl
  4091f1:	5f                   	pop    %rdi
  4091f2:	70 72                	jo     409266 <_end+0x2176>
  4091f4:	6f                   	outsl  %ds:(%rsi),(%dx)
  4091f5:	74 65                	je     40925c <_end+0x216c>
  4091f7:	63 74 69 6f          	movsxd 0x6f(%rcx,%rbp,2),%esi
  4091fb:	6e                   	outsb  %ds:(%rsi),(%dx)
  4091fc:	00 08                	add    %cl,(%rax)
  4091fe:	00 00                	add    %al,(%rax)
  409200:	0d 00 00 00 00       	or     $0x0,%eax
  409205:	00 00                	add    %al,(%rax)
  409207:	00 00                	add    %al,(%rax)
  409209:	01 00                	add    %eax,(%rax)
  40920b:	00 47 41             	add    %al,0x41(%rdi)
  40920e:	2a 46 4f             	sub    0x4f(%rsi),%al
  409211:	52                   	push   %rdx
  409212:	54                   	push   %rsp
  409213:	49                   	rex.WB
  409214:	46 59                	rex.RX pop %rcx
  409216:	00 ff                	add    %bh,%bh
  409218:	00 00                	add    %al,(%rax)
  40921a:	00 00                	add    %al,(%rax)
  40921c:	16                   	(bad)  
	...
  409225:	01 00                	add    %eax,(%rax)
  409227:	00 47 41             	add    %al,0x41(%rdi)
  40922a:	2b 47 4c             	sub    0x4c(%rdi),%eax
  40922d:	49                   	rex.WB
  40922e:	42                   	rex.X
  40922f:	43 58                	rex.XB pop %r8
  409231:	58                   	pop    %rax
  409232:	5f                   	pop    %rdi
  409233:	41 53                	push   %r11
  409235:	53                   	push   %rbx
  409236:	45 52                	rex.RB push %r10
  409238:	54                   	push   %rsp
  409239:	49                   	rex.WB
  40923a:	4f                   	rex.WRXB
  40923b:	4e 53                	rex.WRX push %rbx
  40923d:	00 00                	add    %al,(%rax)
  40923f:	00 06                	add    %al,(%rsi)
	...
  409249:	01 00                	add    %eax,(%rax)
  40924b:	00 47 41             	add    %al,0x41(%rdi)
  40924e:	2a 07                	sub    (%rdi),%al
  409250:	03 00                	add    (%rax),%eax
  409252:	00 00                	add    %al,(%rax)
  409254:	05 00 00 00 00       	add    $0x0,%eax
  409259:	00 00                	add    %al,(%rax)
  40925b:	00 00                	add    %al,(%rax)
  40925d:	01 00                	add    %eax,(%rax)
  40925f:	00 47 41             	add    %al,0x41(%rdi)
  409262:	21 08                	and    %ecx,(%rax)
  409264:	00 00                	add    %al,(%rax)
  409266:	00 00                	add    %al,(%rax)
  409268:	16                   	(bad)  
	...
  409271:	01 00                	add    %eax,(%rax)
  409273:	00 47 41             	add    %al,0x41(%rdi)
  409276:	2b 6f 6d             	sub    0x6d(%rdi),%ebp
  409279:	69 74 5f 66 72 61 6d 	imul   $0x656d6172,0x66(%rdi,%rbx,2),%esi
  409280:	65 
  409281:	5f                   	pop    %rdi
  409282:	70 6f                	jo     4092f3 <_end+0x2203>
  409284:	69 6e 74 65 72 00 00 	imul   $0x7265,0x74(%rsi),%ebp
  40928b:	00 09                	add    %cl,(%rcx)
	...
  409295:	01 00                	add    %eax,(%rax)
  409297:	00 47 41             	add    %al,0x41(%rdi)
  40929a:	2a 06                	sub    (%rsi),%al
  40929c:	12 00                	adc    (%rax),%al
  40929e:	00 08                	add    %cl,(%rax)
  4092a0:	00 00                	add    %al,(%rax)
  4092a2:	00 00                	add    %al,(%rax)
  4092a4:	11 00                	adc    %eax,(%rax)
  4092a6:	00 00                	add    %al,(%rax)
  4092a8:	00 00                	add    %al,(%rax)
  4092aa:	00 00                	add    %al,(%rax)
  4092ac:	00 01                	add    %al,(%rcx)
  4092ae:	00 00                	add    %al,(%rax)
  4092b0:	47                   	rex.RXB
  4092b1:	41 21 73 74          	and    %esi,0x74(%r11)
  4092b5:	61                   	(bad)  
  4092b6:	63 6b 5f             	movsxd 0x5f(%rbx),%ebp
  4092b9:	72 65                	jb     409320 <_end+0x2230>
  4092bb:	61                   	(bad)  
  4092bc:	6c                   	insb   (%dx),%es:(%rdi)
  4092bd:	69 67 6e 00 00 00 00 	imul   $0x0,0x6e(%rdi),%esp
  4092c4:	0b 00                	or     (%rax),%eax
  4092c6:	00 00                	add    %al,(%rax)
  4092c8:	10 00                	adc    %al,(%rax)
  4092ca:	00 00                	add    %al,(%rax)
  4092cc:	00 01                	add    %al,(%rcx)
  4092ce:	00 00                	add    %al,(%rax)
  4092d0:	47                   	rex.RXB
  4092d1:	41 24 01             	rex.B and $0x1,%al
  4092d4:	33 70 31             	xor    0x31(%rax),%esi
  4092d7:	30 39                	xor    %bh,(%rcx)
  4092d9:	33 00                	xor    (%rax),%eax
  4092db:	00 b0 11 40 00 00    	add    %dh,0x4011(%rax)
  4092e1:	00 00                	add    %al,(%rax)
  4092e3:	00 b0 11 40 00 00    	add    %dh,0x4011(%rax)
  4092e9:	00 00                	add    %al,(%rax)
  4092eb:	00 20                	add    %ah,(%rax)
	...
  4092f5:	01 00                	add    %eax,(%rax)
  4092f7:	00 47 41             	add    %al,0x41(%rdi)
  4092fa:	24 05                	and    $0x5,%al
  4092fc:	72 75                	jb     409373 <_end+0x2283>
  4092fe:	6e                   	outsb  %ds:(%rsi),(%dx)
  4092ff:	6e                   	outsb  %ds:(%rsi),(%dx)
  409300:	69 6e 67 20 67 63 63 	imul   $0x63636720,0x67(%rsi),%ebp
  409307:	20 31                	and    %dh,(%rcx)
  409309:	31 2e                	xor    %ebp,(%rsi)
  40930b:	34 2e                	xor    $0x2e,%al
  40930d:	31 20                	xor    %esp,(%rax)
  40930f:	32 30                	xor    (%rax),%dh
  409311:	32 33                	xor    (%rbx),%dh
  409313:	30 36                	xor    %dh,(%rsi)
  409315:	30 35 00 20 00 00    	xor    %dh,0x2000(%rip)        # 40b31b <_end+0x422b>
  40931b:	00 00                	add    %al,(%rax)
  40931d:	00 00                	add    %al,(%rax)
  40931f:	00 00                	add    %al,(%rax)
  409321:	01 00                	add    %eax,(%rax)
  409323:	00 47 41             	add    %al,0x41(%rdi)
  409326:	24 05                	and    $0x5,%al
  409328:	61                   	(bad)  
  409329:	6e                   	outsb  %ds:(%rsi),(%dx)
  40932a:	6e                   	outsb  %ds:(%rsi),(%dx)
  40932b:	6f                   	outsl  %ds:(%rsi),(%dx)
  40932c:	62                   	(bad)  
  40932d:	69 6e 20 67 63 63 20 	imul   $0x20636367,0x20(%rsi),%ebp
  409334:	31 31                	xor    %esi,(%rcx)
  409336:	2e 33 2e             	cs xor (%rsi),%ebp
  409339:	31 20                	xor    %esp,(%rax)
  40933b:	32 30                	xor    (%rax),%dh
  40933d:	32 32                	xor    (%rdx),%dh
  40933f:	31 31                	xor    %esi,(%rcx)
  409341:	32 31                	xor    (%rcx),%dh
  409343:	00 19                	add    %bl,(%rcx)
	...
  40934d:	01 00                	add    %eax,(%rax)
  40934f:	00 47 41             	add    %al,0x41(%rdi)
  409352:	24 05                	and    $0x5,%al
  409354:	70 6c                	jo     4093c2 <_end+0x22d2>
  409356:	75 67                	jne    4093bf <_end+0x22cf>
  409358:	69 6e 20 6e 61 6d 65 	imul   $0x656d616e,0x20(%rsi),%ebp
  40935f:	3a 20                	cmp    (%rax),%ah
  409361:	61                   	(bad)  
  409362:	6e                   	outsb  %ds:(%rsi),(%dx)
  409363:	6e                   	outsb  %ds:(%rsi),(%dx)
  409364:	6f                   	outsl  %ds:(%rsi),(%dx)
  409365:	62                   	(bad)  
  409366:	69 6e 00 00 00 00 0b 	imul   $0xb000000,0x0(%rsi),%ebp
	...
  409375:	01 00                	add    %eax,(%rax)
  409377:	00 47 41             	add    %al,0x41(%rdi)
  40937a:	2a 47 4f             	sub    0x4f(%rdi),%al
  40937d:	57                   	push   %rdi
  40937e:	00 6a 05             	add    %ch,0x5(%rdx)
  409381:	22 00                	and    (%rax),%al
  409383:	00 06                	add    %al,(%rsi)
	...
  40938d:	01 00                	add    %eax,(%rax)
  40938f:	00 47 41             	add    %al,0x41(%rdi)
  409392:	2a 02                	sub    (%rdx),%al
  409394:	03 00                	add    (%rax),%eax
  409396:	00 00                	add    %al,(%rax)
  409398:	0f 00 00             	sldt   (%rax)
  40939b:	00 00                	add    %al,(%rax)
  40939d:	00 00                	add    %al,(%rax)
  40939f:	00 00                	add    %al,(%rax)
  4093a1:	01 00                	add    %eax,(%rax)
  4093a3:	00 47 41             	add    %al,0x41(%rdi)
  4093a6:	2b 73 74             	sub    0x74(%rbx),%esi
  4093a9:	61                   	(bad)  
  4093aa:	63 6b 5f             	movsxd 0x5f(%rbx),%ebp
  4093ad:	63 6c 61 73          	movsxd 0x73(%rcx,%riz,2),%ebp
  4093b1:	68 00 00 13 00       	push   $0x130000
  4093b6:	00 00                	add    %al,(%rax)
  4093b8:	00 00                	add    %al,(%rax)
  4093ba:	00 00                	add    %al,(%rax)
  4093bc:	00 01                	add    %al,(%rcx)
  4093be:	00 00                	add    %al,(%rax)
  4093c0:	47                   	rex.RXB
  4093c1:	41 2a 63 66          	sub    0x66(%r11),%spl
  4093c5:	5f                   	pop    %rdi
  4093c6:	70 72                	jo     40943a <_end+0x234a>
  4093c8:	6f                   	outsl  %ds:(%rsi),(%dx)
  4093c9:	74 65                	je     409430 <_end+0x2340>
  4093cb:	63 74 69 6f          	movsxd 0x6f(%rcx,%rbp,2),%esi
  4093cf:	6e                   	outsb  %ds:(%rsi),(%dx)
  4093d0:	00 08                	add    %cl,(%rax)
  4093d2:	00 00                	add    %al,(%rax)
  4093d4:	0d 00 00 00 00       	or     $0x0,%eax
  4093d9:	00 00                	add    %al,(%rax)
  4093db:	00 00                	add    %al,(%rax)
  4093dd:	01 00                	add    %eax,(%rax)
  4093df:	00 47 41             	add    %al,0x41(%rdi)
  4093e2:	2a 46 4f             	sub    0x4f(%rsi),%al
  4093e5:	52                   	push   %rdx
  4093e6:	54                   	push   %rsp
  4093e7:	49                   	rex.WB
  4093e8:	46 59                	rex.RX pop %rcx
  4093ea:	00 ff                	add    %bh,%bh
  4093ec:	00 00                	add    %al,(%rax)
  4093ee:	00 00                	add    %al,(%rax)
  4093f0:	16                   	(bad)  
	...
  4093f9:	01 00                	add    %eax,(%rax)
  4093fb:	00 47 41             	add    %al,0x41(%rdi)
  4093fe:	2b 47 4c             	sub    0x4c(%rdi),%eax
  409401:	49                   	rex.WB
  409402:	42                   	rex.X
  409403:	43 58                	rex.XB pop %r8
  409405:	58                   	pop    %rax
  409406:	5f                   	pop    %rdi
  409407:	41 53                	push   %r11
  409409:	53                   	push   %rbx
  40940a:	45 52                	rex.RB push %r10
  40940c:	54                   	push   %rsp
  40940d:	49                   	rex.WB
  40940e:	4f                   	rex.WRXB
  40940f:	4e 53                	rex.WRX push %rbx
  409411:	00 00                	add    %al,(%rax)
  409413:	00 06                	add    %al,(%rsi)
	...
  40941d:	01 00                	add    %eax,(%rax)
  40941f:	00 47 41             	add    %al,0x41(%rdi)
  409422:	2a 07                	sub    (%rdi),%al
  409424:	03 00                	add    (%rax),%eax
  409426:	00 00                	add    %al,(%rax)
  409428:	05 00 00 00 00       	add    $0x0,%eax
  40942d:	00 00                	add    %al,(%rax)
  40942f:	00 00                	add    %al,(%rax)
  409431:	01 00                	add    %eax,(%rax)
  409433:	00 47 41             	add    %al,0x41(%rdi)
  409436:	21 08                	and    %ecx,(%rax)
  409438:	00 00                	add    %al,(%rax)
  40943a:	00 00                	add    %al,(%rax)
  40943c:	16                   	(bad)  
	...
  409445:	01 00                	add    %eax,(%rax)
  409447:	00 47 41             	add    %al,0x41(%rdi)
  40944a:	2b 6f 6d             	sub    0x6d(%rdi),%ebp
  40944d:	69 74 5f 66 72 61 6d 	imul   $0x656d6172,0x66(%rdi,%rbx,2),%esi
  409454:	65 
  409455:	5f                   	pop    %rdi
  409456:	70 6f                	jo     4094c7 <_end+0x23d7>
  409458:	69 6e 74 65 72 00 00 	imul   $0x7265,0x74(%rsi),%ebp
  40945f:	00 09                	add    %cl,(%rcx)
	...
  409469:	01 00                	add    %eax,(%rax)
  40946b:	00 47 41             	add    %al,0x41(%rdi)
  40946e:	2a 06                	sub    (%rsi),%al
  409470:	12 00                	adc    (%rax),%al
  409472:	00 08                	add    %cl,(%rax)
  409474:	00 00                	add    %al,(%rax)
  409476:	00 00                	add    %al,(%rax)
  409478:	11 00                	adc    %eax,(%rax)
  40947a:	00 00                	add    %al,(%rax)
  40947c:	00 00                	add    %al,(%rax)
  40947e:	00 00                	add    %al,(%rax)
  409480:	00 01                	add    %al,(%rcx)
  409482:	00 00                	add    %al,(%rax)
  409484:	47                   	rex.RXB
  409485:	41 21 73 74          	and    %esi,0x74(%r11)
  409489:	61                   	(bad)  
  40948a:	63 6b 5f             	movsxd 0x5f(%rbx),%ebp
  40948d:	72 65                	jb     4094f4 <_end+0x2404>
  40948f:	61                   	(bad)  
  409490:	6c                   	insb   (%dx),%es:(%rdi)
  409491:	69 67 6e 00 00 00 00 	imul   $0x0,0x6e(%rdi),%esp
  409498:	0b 00                	or     (%rax),%eax
  40949a:	00 00                	add    %al,(%rax)
  40949c:	10 00                	adc    %al,(%rax)
  40949e:	00 00                	add    %al,(%rax)
  4094a0:	00 01                	add    %al,(%rcx)
  4094a2:	00 00                	add    %al,(%rax)
  4094a4:	47                   	rex.RXB
  4094a5:	41 24 01             	rex.B and $0x1,%al
  4094a8:	33 70 31             	xor    0x31(%rax),%esi
  4094ab:	30 39                	xor    %bh,(%rcx)
  4094ad:	33 00                	xor    (%rax),%eax
  4094af:	00 b0 11 40 00 00    	add    %dh,0x4011(%rax)
  4094b5:	00 00                	add    %al,(%rax)
  4094b7:	00 b0 11 40 00 00    	add    %dh,0x4011(%rax)
  4094bd:	00 00                	add    %al,(%rax)
  4094bf:	00 20                	add    %ah,(%rax)
	...
  4094c9:	01 00                	add    %eax,(%rax)
  4094cb:	00 47 41             	add    %al,0x41(%rdi)
  4094ce:	24 05                	and    $0x5,%al
  4094d0:	72 75                	jb     409547 <_end+0x2457>
  4094d2:	6e                   	outsb  %ds:(%rsi),(%dx)
  4094d3:	6e                   	outsb  %ds:(%rsi),(%dx)
  4094d4:	69 6e 67 20 67 63 63 	imul   $0x63636720,0x67(%rsi),%ebp
  4094db:	20 31                	and    %dh,(%rcx)
  4094dd:	31 2e                	xor    %ebp,(%rsi)
  4094df:	34 2e                	xor    $0x2e,%al
  4094e1:	31 20                	xor    %esp,(%rax)
  4094e3:	32 30                	xor    (%rax),%dh
  4094e5:	32 33                	xor    (%rbx),%dh
  4094e7:	30 36                	xor    %dh,(%rsi)
  4094e9:	30 35 00 20 00 00    	xor    %dh,0x2000(%rip)        # 40b4ef <_end+0x43ff>
  4094ef:	00 00                	add    %al,(%rax)
  4094f1:	00 00                	add    %al,(%rax)
  4094f3:	00 00                	add    %al,(%rax)
  4094f5:	01 00                	add    %eax,(%rax)
  4094f7:	00 47 41             	add    %al,0x41(%rdi)
  4094fa:	24 05                	and    $0x5,%al
  4094fc:	61                   	(bad)  
  4094fd:	6e                   	outsb  %ds:(%rsi),(%dx)
  4094fe:	6e                   	outsb  %ds:(%rsi),(%dx)
  4094ff:	6f                   	outsl  %ds:(%rsi),(%dx)
  409500:	62                   	(bad)  
  409501:	69 6e 20 67 63 63 20 	imul   $0x20636367,0x20(%rsi),%ebp
  409508:	31 31                	xor    %esi,(%rcx)
  40950a:	2e 33 2e             	cs xor (%rsi),%ebp
  40950d:	31 20                	xor    %esp,(%rax)
  40950f:	32 30                	xor    (%rax),%dh
  409511:	32 32                	xor    (%rdx),%dh
  409513:	31 31                	xor    %esi,(%rcx)
  409515:	32 31                	xor    (%rcx),%dh
  409517:	00 19                	add    %bl,(%rcx)
	...
  409521:	01 00                	add    %eax,(%rax)
  409523:	00 47 41             	add    %al,0x41(%rdi)
  409526:	24 05                	and    $0x5,%al
  409528:	70 6c                	jo     409596 <_end+0x24a6>
  40952a:	75 67                	jne    409593 <_end+0x24a3>
  40952c:	69 6e 20 6e 61 6d 65 	imul   $0x656d616e,0x20(%rsi),%ebp
  409533:	3a 20                	cmp    (%rax),%ah
  409535:	61                   	(bad)  
  409536:	6e                   	outsb  %ds:(%rsi),(%dx)
  409537:	6e                   	outsb  %ds:(%rsi),(%dx)
  409538:	6f                   	outsl  %ds:(%rsi),(%dx)
  409539:	62                   	(bad)  
  40953a:	69 6e 00 00 00 00 0b 	imul   $0xb000000,0x0(%rsi),%ebp
	...
  409549:	01 00                	add    %eax,(%rax)
  40954b:	00 47 41             	add    %al,0x41(%rdi)
  40954e:	2a 47 4f             	sub    0x4f(%rdi),%al
  409551:	57                   	push   %rdi
  409552:	00 6a 05             	add    %ch,0x5(%rdx)
  409555:	22 00                	and    (%rax),%al
  409557:	00 06                	add    %al,(%rsi)
	...
  409561:	01 00                	add    %eax,(%rax)
  409563:	00 47 41             	add    %al,0x41(%rdi)
  409566:	2a 02                	sub    (%rdx),%al
  409568:	03 00                	add    (%rax),%eax
  40956a:	00 00                	add    %al,(%rax)
  40956c:	0f 00 00             	sldt   (%rax)
  40956f:	00 00                	add    %al,(%rax)
  409571:	00 00                	add    %al,(%rax)
  409573:	00 00                	add    %al,(%rax)
  409575:	01 00                	add    %eax,(%rax)
  409577:	00 47 41             	add    %al,0x41(%rdi)
  40957a:	2b 73 74             	sub    0x74(%rbx),%esi
  40957d:	61                   	(bad)  
  40957e:	63 6b 5f             	movsxd 0x5f(%rbx),%ebp
  409581:	63 6c 61 73          	movsxd 0x73(%rcx,%riz,2),%ebp
  409585:	68 00 00 13 00       	push   $0x130000
  40958a:	00 00                	add    %al,(%rax)
  40958c:	00 00                	add    %al,(%rax)
  40958e:	00 00                	add    %al,(%rax)
  409590:	00 01                	add    %al,(%rcx)
  409592:	00 00                	add    %al,(%rax)
  409594:	47                   	rex.RXB
  409595:	41 2a 63 66          	sub    0x66(%r11),%spl
  409599:	5f                   	pop    %rdi
  40959a:	70 72                	jo     40960e <_end+0x251e>
  40959c:	6f                   	outsl  %ds:(%rsi),(%dx)
  40959d:	74 65                	je     409604 <_end+0x2514>
  40959f:	63 74 69 6f          	movsxd 0x6f(%rcx,%rbp,2),%esi
  4095a3:	6e                   	outsb  %ds:(%rsi),(%dx)
  4095a4:	00 08                	add    %cl,(%rax)
  4095a6:	00 00                	add    %al,(%rax)
  4095a8:	0d 00 00 00 00       	or     $0x0,%eax
  4095ad:	00 00                	add    %al,(%rax)
  4095af:	00 00                	add    %al,(%rax)
  4095b1:	01 00                	add    %eax,(%rax)
  4095b3:	00 47 41             	add    %al,0x41(%rdi)
  4095b6:	2a 46 4f             	sub    0x4f(%rsi),%al
  4095b9:	52                   	push   %rdx
  4095ba:	54                   	push   %rsp
  4095bb:	49                   	rex.WB
  4095bc:	46 59                	rex.RX pop %rcx
  4095be:	00 ff                	add    %bh,%bh
  4095c0:	00 00                	add    %al,(%rax)
  4095c2:	00 00                	add    %al,(%rax)
  4095c4:	16                   	(bad)  
	...
  4095cd:	01 00                	add    %eax,(%rax)
  4095cf:	00 47 41             	add    %al,0x41(%rdi)
  4095d2:	2b 47 4c             	sub    0x4c(%rdi),%eax
  4095d5:	49                   	rex.WB
  4095d6:	42                   	rex.X
  4095d7:	43 58                	rex.XB pop %r8
  4095d9:	58                   	pop    %rax
  4095da:	5f                   	pop    %rdi
  4095db:	41 53                	push   %r11
  4095dd:	53                   	push   %rbx
  4095de:	45 52                	rex.RB push %r10
  4095e0:	54                   	push   %rsp
  4095e1:	49                   	rex.WB
  4095e2:	4f                   	rex.WRXB
  4095e3:	4e 53                	rex.WRX push %rbx
  4095e5:	00 00                	add    %al,(%rax)
  4095e7:	00 06                	add    %al,(%rsi)
	...
  4095f1:	01 00                	add    %eax,(%rax)
  4095f3:	00 47 41             	add    %al,0x41(%rdi)
  4095f6:	2a 07                	sub    (%rdi),%al
  4095f8:	03 00                	add    (%rax),%eax
  4095fa:	00 00                	add    %al,(%rax)
  4095fc:	05 00 00 00 00       	add    $0x0,%eax
  409601:	00 00                	add    %al,(%rax)
  409603:	00 00                	add    %al,(%rax)
  409605:	01 00                	add    %eax,(%rax)
  409607:	00 47 41             	add    %al,0x41(%rdi)
  40960a:	21 08                	and    %ecx,(%rax)
  40960c:	00 00                	add    %al,(%rax)
  40960e:	00 00                	add    %al,(%rax)
  409610:	16                   	(bad)  
	...
  409619:	01 00                	add    %eax,(%rax)
  40961b:	00 47 41             	add    %al,0x41(%rdi)
  40961e:	2b 6f 6d             	sub    0x6d(%rdi),%ebp
  409621:	69 74 5f 66 72 61 6d 	imul   $0x656d6172,0x66(%rdi,%rbx,2),%esi
  409628:	65 
  409629:	5f                   	pop    %rdi
  40962a:	70 6f                	jo     40969b <_end+0x25ab>
  40962c:	69 6e 74 65 72 00 00 	imul   $0x7265,0x74(%rsi),%ebp
  409633:	00 09                	add    %cl,(%rcx)
	...
  40963d:	01 00                	add    %eax,(%rax)
  40963f:	00 47 41             	add    %al,0x41(%rdi)
  409642:	2a 06                	sub    (%rsi),%al
  409644:	12 00                	adc    (%rax),%al
  409646:	00 08                	add    %cl,(%rax)
  409648:	00 00                	add    %al,(%rax)
  40964a:	00 00                	add    %al,(%rax)
  40964c:	11 00                	adc    %eax,(%rax)
  40964e:	00 00                	add    %al,(%rax)
  409650:	00 00                	add    %al,(%rax)
  409652:	00 00                	add    %al,(%rax)
  409654:	00 01                	add    %al,(%rcx)
  409656:	00 00                	add    %al,(%rax)
  409658:	47                   	rex.RXB
  409659:	41 21 73 74          	and    %esi,0x74(%r11)
  40965d:	61                   	(bad)  
  40965e:	63 6b 5f             	movsxd 0x5f(%rbx),%ebp
  409661:	72 65                	jb     4096c8 <_end+0x25d8>
  409663:	61                   	(bad)  
  409664:	6c                   	insb   (%dx),%es:(%rdi)
  409665:	69 67 6e 00 00 00 00 	imul   $0x0,0x6e(%rdi),%esp
  40966c:	0b 00                	or     (%rax),%eax
  40966e:	00 00                	add    %al,(%rax)
  409670:	10 00                	adc    %al,(%rax)
  409672:	00 00                	add    %al,(%rax)
  409674:	00 01                	add    %al,(%rcx)
  409676:	00 00                	add    %al,(%rax)
  409678:	47                   	rex.RXB
  409679:	41 24 01             	rex.B and $0x1,%al
  40967c:	33 70 31             	xor    0x31(%rax),%esi
  40967f:	30 39                	xor    %bh,(%rcx)
  409681:	33 00                	xor    (%rax),%eax
  409683:	00 b0 11 40 00 00    	add    %dh,0x4011(%rax)
  409689:	00 00                	add    %al,(%rax)
  40968b:	00 b0 11 40 00 00    	add    %dh,0x4011(%rax)
  409691:	00 00                	add    %al,(%rax)
  409693:	00 20                	add    %ah,(%rax)
	...
  40969d:	01 00                	add    %eax,(%rax)
  40969f:	00 47 41             	add    %al,0x41(%rdi)
  4096a2:	24 05                	and    $0x5,%al
  4096a4:	72 75                	jb     40971b <_end+0x262b>
  4096a6:	6e                   	outsb  %ds:(%rsi),(%dx)
  4096a7:	6e                   	outsb  %ds:(%rsi),(%dx)
  4096a8:	69 6e 67 20 67 63 63 	imul   $0x63636720,0x67(%rsi),%ebp
  4096af:	20 31                	and    %dh,(%rcx)
  4096b1:	31 2e                	xor    %ebp,(%rsi)
  4096b3:	34 2e                	xor    $0x2e,%al
  4096b5:	31 20                	xor    %esp,(%rax)
  4096b7:	32 30                	xor    (%rax),%dh
  4096b9:	32 33                	xor    (%rbx),%dh
  4096bb:	30 36                	xor    %dh,(%rsi)
  4096bd:	30 35 00 20 00 00    	xor    %dh,0x2000(%rip)        # 40b6c3 <_end+0x45d3>
  4096c3:	00 00                	add    %al,(%rax)
  4096c5:	00 00                	add    %al,(%rax)
  4096c7:	00 00                	add    %al,(%rax)
  4096c9:	01 00                	add    %eax,(%rax)
  4096cb:	00 47 41             	add    %al,0x41(%rdi)
  4096ce:	24 05                	and    $0x5,%al
  4096d0:	61                   	(bad)  
  4096d1:	6e                   	outsb  %ds:(%rsi),(%dx)
  4096d2:	6e                   	outsb  %ds:(%rsi),(%dx)
  4096d3:	6f                   	outsl  %ds:(%rsi),(%dx)
  4096d4:	62                   	(bad)  
  4096d5:	69 6e 20 67 63 63 20 	imul   $0x20636367,0x20(%rsi),%ebp
  4096dc:	31 31                	xor    %esi,(%rcx)
  4096de:	2e 33 2e             	cs xor (%rsi),%ebp
  4096e1:	31 20                	xor    %esp,(%rax)
  4096e3:	32 30                	xor    (%rax),%dh
  4096e5:	32 32                	xor    (%rdx),%dh
  4096e7:	31 31                	xor    %esi,(%rcx)
  4096e9:	32 31                	xor    (%rcx),%dh
  4096eb:	00 19                	add    %bl,(%rcx)
	...
  4096f5:	01 00                	add    %eax,(%rax)
  4096f7:	00 47 41             	add    %al,0x41(%rdi)
  4096fa:	24 05                	and    $0x5,%al
  4096fc:	70 6c                	jo     40976a <_end+0x267a>
  4096fe:	75 67                	jne    409767 <_end+0x2677>
  409700:	69 6e 20 6e 61 6d 65 	imul   $0x656d616e,0x20(%rsi),%ebp
  409707:	3a 20                	cmp    (%rax),%ah
  409709:	61                   	(bad)  
  40970a:	6e                   	outsb  %ds:(%rsi),(%dx)
  40970b:	6e                   	outsb  %ds:(%rsi),(%dx)
  40970c:	6f                   	outsl  %ds:(%rsi),(%dx)
  40970d:	62                   	(bad)  
  40970e:	69 6e 00 00 00 00 0b 	imul   $0xb000000,0x0(%rsi),%ebp
	...
  40971d:	01 00                	add    %eax,(%rax)
  40971f:	00 47 41             	add    %al,0x41(%rdi)
  409722:	2a 47 4f             	sub    0x4f(%rdi),%al
  409725:	57                   	push   %rdi
  409726:	00 6a 05             	add    %ch,0x5(%rdx)
  409729:	22 00                	and    (%rax),%al
  40972b:	00 06                	add    %al,(%rsi)
	...
  409735:	01 00                	add    %eax,(%rax)
  409737:	00 47 41             	add    %al,0x41(%rdi)
  40973a:	2a 02                	sub    (%rdx),%al
  40973c:	03 00                	add    (%rax),%eax
  40973e:	00 00                	add    %al,(%rax)
  409740:	0f 00 00             	sldt   (%rax)
  409743:	00 00                	add    %al,(%rax)
  409745:	00 00                	add    %al,(%rax)
  409747:	00 00                	add    %al,(%rax)
  409749:	01 00                	add    %eax,(%rax)
  40974b:	00 47 41             	add    %al,0x41(%rdi)
  40974e:	2b 73 74             	sub    0x74(%rbx),%esi
  409751:	61                   	(bad)  
  409752:	63 6b 5f             	movsxd 0x5f(%rbx),%ebp
  409755:	63 6c 61 73          	movsxd 0x73(%rcx,%riz,2),%ebp
  409759:	68 00 00 13 00       	push   $0x130000
  40975e:	00 00                	add    %al,(%rax)
  409760:	00 00                	add    %al,(%rax)
  409762:	00 00                	add    %al,(%rax)
  409764:	00 01                	add    %al,(%rcx)
  409766:	00 00                	add    %al,(%rax)
  409768:	47                   	rex.RXB
  409769:	41 2a 63 66          	sub    0x66(%r11),%spl
  40976d:	5f                   	pop    %rdi
  40976e:	70 72                	jo     4097e2 <_end+0x26f2>
  409770:	6f                   	outsl  %ds:(%rsi),(%dx)
  409771:	74 65                	je     4097d8 <_end+0x26e8>
  409773:	63 74 69 6f          	movsxd 0x6f(%rcx,%rbp,2),%esi
  409777:	6e                   	outsb  %ds:(%rsi),(%dx)
  409778:	00 08                	add    %cl,(%rax)
  40977a:	00 00                	add    %al,(%rax)
  40977c:	0d 00 00 00 00       	or     $0x0,%eax
  409781:	00 00                	add    %al,(%rax)
  409783:	00 00                	add    %al,(%rax)
  409785:	01 00                	add    %eax,(%rax)
  409787:	00 47 41             	add    %al,0x41(%rdi)
  40978a:	2a 46 4f             	sub    0x4f(%rsi),%al
  40978d:	52                   	push   %rdx
  40978e:	54                   	push   %rsp
  40978f:	49                   	rex.WB
  409790:	46 59                	rex.RX pop %rcx
  409792:	00 ff                	add    %bh,%bh
  409794:	00 00                	add    %al,(%rax)
  409796:	00 00                	add    %al,(%rax)
  409798:	16                   	(bad)  
	...
  4097a1:	01 00                	add    %eax,(%rax)
  4097a3:	00 47 41             	add    %al,0x41(%rdi)
  4097a6:	2b 47 4c             	sub    0x4c(%rdi),%eax
  4097a9:	49                   	rex.WB
  4097aa:	42                   	rex.X
  4097ab:	43 58                	rex.XB pop %r8
  4097ad:	58                   	pop    %rax
  4097ae:	5f                   	pop    %rdi
  4097af:	41 53                	push   %r11
  4097b1:	53                   	push   %rbx
  4097b2:	45 52                	rex.RB push %r10
  4097b4:	54                   	push   %rsp
  4097b5:	49                   	rex.WB
  4097b6:	4f                   	rex.WRXB
  4097b7:	4e 53                	rex.WRX push %rbx
  4097b9:	00 00                	add    %al,(%rax)
  4097bb:	00 06                	add    %al,(%rsi)
	...
  4097c5:	01 00                	add    %eax,(%rax)
  4097c7:	00 47 41             	add    %al,0x41(%rdi)
  4097ca:	2a 07                	sub    (%rdi),%al
  4097cc:	03 00                	add    (%rax),%eax
  4097ce:	00 00                	add    %al,(%rax)
  4097d0:	05 00 00 00 00       	add    $0x0,%eax
  4097d5:	00 00                	add    %al,(%rax)
  4097d7:	00 00                	add    %al,(%rax)
  4097d9:	01 00                	add    %eax,(%rax)
  4097db:	00 47 41             	add    %al,0x41(%rdi)
  4097de:	21 08                	and    %ecx,(%rax)
  4097e0:	00 00                	add    %al,(%rax)
  4097e2:	00 00                	add    %al,(%rax)
  4097e4:	16                   	(bad)  
	...
  4097ed:	01 00                	add    %eax,(%rax)
  4097ef:	00 47 41             	add    %al,0x41(%rdi)
  4097f2:	2b 6f 6d             	sub    0x6d(%rdi),%ebp
  4097f5:	69 74 5f 66 72 61 6d 	imul   $0x656d6172,0x66(%rdi,%rbx,2),%esi
  4097fc:	65 
  4097fd:	5f                   	pop    %rdi
  4097fe:	70 6f                	jo     40986f <_end+0x277f>
  409800:	69 6e 74 65 72 00 00 	imul   $0x7265,0x74(%rsi),%ebp
  409807:	00 09                	add    %cl,(%rcx)
	...
  409811:	01 00                	add    %eax,(%rax)
  409813:	00 47 41             	add    %al,0x41(%rdi)
  409816:	2a 06                	sub    (%rsi),%al
  409818:	12 00                	adc    (%rax),%al
  40981a:	00 08                	add    %cl,(%rax)
  40981c:	00 00                	add    %al,(%rax)
  40981e:	00 00                	add    %al,(%rax)
  409820:	11 00                	adc    %eax,(%rax)
  409822:	00 00                	add    %al,(%rax)
  409824:	00 00                	add    %al,(%rax)
  409826:	00 00                	add    %al,(%rax)
  409828:	00 01                	add    %al,(%rcx)
  40982a:	00 00                	add    %al,(%rax)
  40982c:	47                   	rex.RXB
  40982d:	41 21 73 74          	and    %esi,0x74(%r11)
  409831:	61                   	(bad)  
  409832:	63 6b 5f             	movsxd 0x5f(%rbx),%ebp
  409835:	72 65                	jb     40989c <_end+0x27ac>
  409837:	61                   	(bad)  
  409838:	6c                   	insb   (%dx),%es:(%rdi)
  409839:	69 67 6e 00 00 00 00 	imul   $0x0,0x6e(%rdi),%esp
  409840:	0b 00                	or     (%rax),%eax
  409842:	00 00                	add    %al,(%rax)
  409844:	10 00                	adc    %al,(%rax)
  409846:	00 00                	add    %al,(%rax)
  409848:	00 01                	add    %al,(%rcx)
  40984a:	00 00                	add    %al,(%rax)
  40984c:	47                   	rex.RXB
  40984d:	41 24 01             	rex.B and $0x1,%al
  409850:	33 70 31             	xor    0x31(%rax),%esi
  409853:	30 39                	xor    %bh,(%rcx)
  409855:	33 00                	xor    (%rax),%eax
  409857:	00 b0 11 40 00 00    	add    %dh,0x4011(%rax)
  40985d:	00 00                	add    %al,(%rax)
  40985f:	00 b0 11 40 00 00    	add    %dh,0x4011(%rax)
  409865:	00 00                	add    %al,(%rax)
  409867:	00 20                	add    %ah,(%rax)
	...
  409871:	01 00                	add    %eax,(%rax)
  409873:	00 47 41             	add    %al,0x41(%rdi)
  409876:	24 05                	and    $0x5,%al
  409878:	72 75                	jb     4098ef <_end+0x27ff>
  40987a:	6e                   	outsb  %ds:(%rsi),(%dx)
  40987b:	6e                   	outsb  %ds:(%rsi),(%dx)
  40987c:	69 6e 67 20 67 63 63 	imul   $0x63636720,0x67(%rsi),%ebp
  409883:	20 31                	and    %dh,(%rcx)
  409885:	31 2e                	xor    %ebp,(%rsi)
  409887:	34 2e                	xor    $0x2e,%al
  409889:	31 20                	xor    %esp,(%rax)
  40988b:	32 30                	xor    (%rax),%dh
  40988d:	32 33                	xor    (%rbx),%dh
  40988f:	30 36                	xor    %dh,(%rsi)
  409891:	30 35 00 20 00 00    	xor    %dh,0x2000(%rip)        # 40b897 <_end+0x47a7>
  409897:	00 00                	add    %al,(%rax)
  409899:	00 00                	add    %al,(%rax)
  40989b:	00 00                	add    %al,(%rax)
  40989d:	01 00                	add    %eax,(%rax)
  40989f:	00 47 41             	add    %al,0x41(%rdi)
  4098a2:	24 05                	and    $0x5,%al
  4098a4:	61                   	(bad)  
  4098a5:	6e                   	outsb  %ds:(%rsi),(%dx)
  4098a6:	6e                   	outsb  %ds:(%rsi),(%dx)
  4098a7:	6f                   	outsl  %ds:(%rsi),(%dx)
  4098a8:	62                   	(bad)  
  4098a9:	69 6e 20 67 63 63 20 	imul   $0x20636367,0x20(%rsi),%ebp
  4098b0:	31 31                	xor    %esi,(%rcx)
  4098b2:	2e 33 2e             	cs xor (%rsi),%ebp
  4098b5:	31 20                	xor    %esp,(%rax)
  4098b7:	32 30                	xor    (%rax),%dh
  4098b9:	32 32                	xor    (%rdx),%dh
  4098bb:	31 31                	xor    %esi,(%rcx)
  4098bd:	32 31                	xor    (%rcx),%dh
  4098bf:	00 19                	add    %bl,(%rcx)
	...
  4098c9:	01 00                	add    %eax,(%rax)
  4098cb:	00 47 41             	add    %al,0x41(%rdi)
  4098ce:	24 05                	and    $0x5,%al
  4098d0:	70 6c                	jo     40993e <_end+0x284e>
  4098d2:	75 67                	jne    40993b <_end+0x284b>
  4098d4:	69 6e 20 6e 61 6d 65 	imul   $0x656d616e,0x20(%rsi),%ebp
  4098db:	3a 20                	cmp    (%rax),%ah
  4098dd:	61                   	(bad)  
  4098de:	6e                   	outsb  %ds:(%rsi),(%dx)
  4098df:	6e                   	outsb  %ds:(%rsi),(%dx)
  4098e0:	6f                   	outsl  %ds:(%rsi),(%dx)
  4098e1:	62                   	(bad)  
  4098e2:	69 6e 00 00 00 00 0b 	imul   $0xb000000,0x0(%rsi),%ebp
	...
  4098f1:	01 00                	add    %eax,(%rax)
  4098f3:	00 47 41             	add    %al,0x41(%rdi)
  4098f6:	2a 47 4f             	sub    0x4f(%rdi),%al
  4098f9:	57                   	push   %rdi
  4098fa:	00 6a 05             	add    %ch,0x5(%rdx)
  4098fd:	22 00                	and    (%rax),%al
  4098ff:	00 06                	add    %al,(%rsi)
	...
  409909:	01 00                	add    %eax,(%rax)
  40990b:	00 47 41             	add    %al,0x41(%rdi)
  40990e:	2a 02                	sub    (%rdx),%al
  409910:	03 00                	add    (%rax),%eax
  409912:	00 00                	add    %al,(%rax)
  409914:	0f 00 00             	sldt   (%rax)
  409917:	00 00                	add    %al,(%rax)
  409919:	00 00                	add    %al,(%rax)
  40991b:	00 00                	add    %al,(%rax)
  40991d:	01 00                	add    %eax,(%rax)
  40991f:	00 47 41             	add    %al,0x41(%rdi)
  409922:	2b 73 74             	sub    0x74(%rbx),%esi
  409925:	61                   	(bad)  
  409926:	63 6b 5f             	movsxd 0x5f(%rbx),%ebp
  409929:	63 6c 61 73          	movsxd 0x73(%rcx,%riz,2),%ebp
  40992d:	68 00 00 13 00       	push   $0x130000
  409932:	00 00                	add    %al,(%rax)
  409934:	00 00                	add    %al,(%rax)
  409936:	00 00                	add    %al,(%rax)
  409938:	00 01                	add    %al,(%rcx)
  40993a:	00 00                	add    %al,(%rax)
  40993c:	47                   	rex.RXB
  40993d:	41 2a 63 66          	sub    0x66(%r11),%spl
  409941:	5f                   	pop    %rdi
  409942:	70 72                	jo     4099b6 <_end+0x28c6>
  409944:	6f                   	outsl  %ds:(%rsi),(%dx)
  409945:	74 65                	je     4099ac <_end+0x28bc>
  409947:	63 74 69 6f          	movsxd 0x6f(%rcx,%rbp,2),%esi
  40994b:	6e                   	outsb  %ds:(%rsi),(%dx)
  40994c:	00 08                	add    %cl,(%rax)
  40994e:	00 00                	add    %al,(%rax)
  409950:	0d 00 00 00 00       	or     $0x0,%eax
  409955:	00 00                	add    %al,(%rax)
  409957:	00 00                	add    %al,(%rax)
  409959:	01 00                	add    %eax,(%rax)
  40995b:	00 47 41             	add    %al,0x41(%rdi)
  40995e:	2a 46 4f             	sub    0x4f(%rsi),%al
  409961:	52                   	push   %rdx
  409962:	54                   	push   %rsp
  409963:	49                   	rex.WB
  409964:	46 59                	rex.RX pop %rcx
  409966:	00 ff                	add    %bh,%bh
  409968:	00 00                	add    %al,(%rax)
  40996a:	00 00                	add    %al,(%rax)
  40996c:	16                   	(bad)  
	...
  409975:	01 00                	add    %eax,(%rax)
  409977:	00 47 41             	add    %al,0x41(%rdi)
  40997a:	2b 47 4c             	sub    0x4c(%rdi),%eax
  40997d:	49                   	rex.WB
  40997e:	42                   	rex.X
  40997f:	43 58                	rex.XB pop %r8
  409981:	58                   	pop    %rax
  409982:	5f                   	pop    %rdi
  409983:	41 53                	push   %r11
  409985:	53                   	push   %rbx
  409986:	45 52                	rex.RB push %r10
  409988:	54                   	push   %rsp
  409989:	49                   	rex.WB
  40998a:	4f                   	rex.WRXB
  40998b:	4e 53                	rex.WRX push %rbx
  40998d:	00 00                	add    %al,(%rax)
  40998f:	00 06                	add    %al,(%rsi)
	...
  409999:	01 00                	add    %eax,(%rax)
  40999b:	00 47 41             	add    %al,0x41(%rdi)
  40999e:	2a 07                	sub    (%rdi),%al
  4099a0:	03 00                	add    (%rax),%eax
  4099a2:	00 00                	add    %al,(%rax)
  4099a4:	05 00 00 00 00       	add    $0x0,%eax
  4099a9:	00 00                	add    %al,(%rax)
  4099ab:	00 00                	add    %al,(%rax)
  4099ad:	01 00                	add    %eax,(%rax)
  4099af:	00 47 41             	add    %al,0x41(%rdi)
  4099b2:	21 08                	and    %ecx,(%rax)
  4099b4:	00 00                	add    %al,(%rax)
  4099b6:	00 00                	add    %al,(%rax)
  4099b8:	16                   	(bad)  
	...
  4099c1:	01 00                	add    %eax,(%rax)
  4099c3:	00 47 41             	add    %al,0x41(%rdi)
  4099c6:	2b 6f 6d             	sub    0x6d(%rdi),%ebp
  4099c9:	69 74 5f 66 72 61 6d 	imul   $0x656d6172,0x66(%rdi,%rbx,2),%esi
  4099d0:	65 
  4099d1:	5f                   	pop    %rdi
  4099d2:	70 6f                	jo     409a43 <_end+0x2953>
  4099d4:	69 6e 74 65 72 00 00 	imul   $0x7265,0x74(%rsi),%ebp
  4099db:	00 09                	add    %cl,(%rcx)
	...
  4099e5:	01 00                	add    %eax,(%rax)
  4099e7:	00 47 41             	add    %al,0x41(%rdi)
  4099ea:	2a 06                	sub    (%rsi),%al
  4099ec:	12 00                	adc    (%rax),%al
  4099ee:	00 08                	add    %cl,(%rax)
  4099f0:	00 00                	add    %al,(%rax)
  4099f2:	00 00                	add    %al,(%rax)
  4099f4:	11 00                	adc    %eax,(%rax)
  4099f6:	00 00                	add    %al,(%rax)
  4099f8:	00 00                	add    %al,(%rax)
  4099fa:	00 00                	add    %al,(%rax)
  4099fc:	00 01                	add    %al,(%rcx)
  4099fe:	00 00                	add    %al,(%rax)
  409a00:	47                   	rex.RXB
  409a01:	41 21 73 74          	and    %esi,0x74(%r11)
  409a05:	61                   	(bad)  
  409a06:	63 6b 5f             	movsxd 0x5f(%rbx),%ebp
  409a09:	72 65                	jb     409a70 <_end+0x2980>
  409a0b:	61                   	(bad)  
  409a0c:	6c                   	insb   (%dx),%es:(%rdi)
  409a0d:	69 67 6e 00 00 00 00 	imul   $0x0,0x6e(%rdi),%esp
  409a14:	0b 00                	or     (%rax),%eax
  409a16:	00 00                	add    %al,(%rax)
  409a18:	10 00                	adc    %al,(%rax)
  409a1a:	00 00                	add    %al,(%rax)
  409a1c:	00 01                	add    %al,(%rcx)
  409a1e:	00 00                	add    %al,(%rax)
  409a20:	47                   	rex.RXB
  409a21:	41 24 01             	rex.B and $0x1,%al
  409a24:	33 70 31             	xor    0x31(%rax),%esi
  409a27:	30 39                	xor    %bh,(%rcx)
  409a29:	33 00                	xor    (%rax),%eax
  409a2b:	00 d6                	add    %dl,%dh
  409a2d:	11 40 00             	adc    %eax,0x0(%rax)
  409a30:	00 00                	add    %al,(%rax)
  409a32:	00 00                	add    %al,(%rax)
  409a34:	d6                   	(bad)  
  409a35:	11 40 00             	adc    %eax,0x0(%rax)
  409a38:	00 00                	add    %al,(%rax)
  409a3a:	00 00                	add    %al,(%rax)
  409a3c:	20 00                	and    %al,(%rax)
  409a3e:	00 00                	add    %al,(%rax)
  409a40:	00 00                	add    %al,(%rax)
  409a42:	00 00                	add    %al,(%rax)
  409a44:	00 01                	add    %al,(%rcx)
  409a46:	00 00                	add    %al,(%rax)
  409a48:	47                   	rex.RXB
  409a49:	41 24 05             	rex.B and $0x5,%al
  409a4c:	72 75                	jb     409ac3 <_end+0x29d3>
  409a4e:	6e                   	outsb  %ds:(%rsi),(%dx)
  409a4f:	6e                   	outsb  %ds:(%rsi),(%dx)
  409a50:	69 6e 67 20 67 63 63 	imul   $0x63636720,0x67(%rsi),%ebp
  409a57:	20 31                	and    %dh,(%rcx)
  409a59:	31 2e                	xor    %ebp,(%rsi)
  409a5b:	34 2e                	xor    $0x2e,%al
  409a5d:	31 20                	xor    %esp,(%rax)
  409a5f:	32 30                	xor    (%rax),%dh
  409a61:	32 33                	xor    (%rbx),%dh
  409a63:	30 36                	xor    %dh,(%rsi)
  409a65:	30 35 00 20 00 00    	xor    %dh,0x2000(%rip)        # 40ba6b <_end+0x497b>
  409a6b:	00 00                	add    %al,(%rax)
  409a6d:	00 00                	add    %al,(%rax)
  409a6f:	00 00                	add    %al,(%rax)
  409a71:	01 00                	add    %eax,(%rax)
  409a73:	00 47 41             	add    %al,0x41(%rdi)
  409a76:	24 05                	and    $0x5,%al
  409a78:	61                   	(bad)  
  409a79:	6e                   	outsb  %ds:(%rsi),(%dx)
  409a7a:	6e                   	outsb  %ds:(%rsi),(%dx)
  409a7b:	6f                   	outsl  %ds:(%rsi),(%dx)
  409a7c:	62                   	(bad)  
  409a7d:	69 6e 20 67 63 63 20 	imul   $0x20636367,0x20(%rsi),%ebp
  409a84:	31 31                	xor    %esi,(%rcx)
  409a86:	2e 33 2e             	cs xor (%rsi),%ebp
  409a89:	31 20                	xor    %esp,(%rax)
  409a8b:	32 30                	xor    (%rax),%dh
  409a8d:	32 32                	xor    (%rdx),%dh
  409a8f:	31 31                	xor    %esi,(%rcx)
  409a91:	32 31                	xor    (%rcx),%dh
  409a93:	00 19                	add    %bl,(%rcx)
	...
  409a9d:	01 00                	add    %eax,(%rax)
  409a9f:	00 47 41             	add    %al,0x41(%rdi)
  409aa2:	24 05                	and    $0x5,%al
  409aa4:	70 6c                	jo     409b12 <_end+0x2a22>
  409aa6:	75 67                	jne    409b0f <_end+0x2a1f>
  409aa8:	69 6e 20 6e 61 6d 65 	imul   $0x656d616e,0x20(%rsi),%ebp
  409aaf:	3a 20                	cmp    (%rax),%ah
  409ab1:	61                   	(bad)  
  409ab2:	6e                   	outsb  %ds:(%rsi),(%dx)
  409ab3:	6e                   	outsb  %ds:(%rsi),(%dx)
  409ab4:	6f                   	outsl  %ds:(%rsi),(%dx)
  409ab5:	62                   	(bad)  
  409ab6:	69 6e 00 00 00 00 0b 	imul   $0xb000000,0x0(%rsi),%ebp
	...
  409ac5:	01 00                	add    %eax,(%rax)
  409ac7:	00 47 41             	add    %al,0x41(%rdi)
  409aca:	2a 47 4f             	sub    0x4f(%rdi),%al
  409acd:	57                   	push   %rdi
  409ace:	00 6a 05             	add    %ch,0x5(%rdx)
  409ad1:	22 00                	and    (%rax),%al
  409ad3:	00 06                	add    %al,(%rsi)
	...
  409add:	01 00                	add    %eax,(%rax)
  409adf:	00 47 41             	add    %al,0x41(%rdi)
  409ae2:	2a 02                	sub    (%rdx),%al
  409ae4:	03 00                	add    (%rax),%eax
  409ae6:	00 00                	add    %al,(%rax)
  409ae8:	0f 00 00             	sldt   (%rax)
  409aeb:	00 00                	add    %al,(%rax)
  409aed:	00 00                	add    %al,(%rax)
  409aef:	00 00                	add    %al,(%rax)
  409af1:	01 00                	add    %eax,(%rax)
  409af3:	00 47 41             	add    %al,0x41(%rdi)
  409af6:	2b 73 74             	sub    0x74(%rbx),%esi
  409af9:	61                   	(bad)  
  409afa:	63 6b 5f             	movsxd 0x5f(%rbx),%ebp
  409afd:	63 6c 61 73          	movsxd 0x73(%rcx,%riz,2),%ebp
  409b01:	68 00 00 13 00       	push   $0x130000
  409b06:	00 00                	add    %al,(%rax)
  409b08:	00 00                	add    %al,(%rax)
  409b0a:	00 00                	add    %al,(%rax)
  409b0c:	00 01                	add    %al,(%rcx)
  409b0e:	00 00                	add    %al,(%rax)
  409b10:	47                   	rex.RXB
  409b11:	41 2a 63 66          	sub    0x66(%r11),%spl
  409b15:	5f                   	pop    %rdi
  409b16:	70 72                	jo     409b8a <_end+0x2a9a>
  409b18:	6f                   	outsl  %ds:(%rsi),(%dx)
  409b19:	74 65                	je     409b80 <_end+0x2a90>
  409b1b:	63 74 69 6f          	movsxd 0x6f(%rcx,%rbp,2),%esi
  409b1f:	6e                   	outsb  %ds:(%rsi),(%dx)
  409b20:	00 08                	add    %cl,(%rax)
  409b22:	00 00                	add    %al,(%rax)
  409b24:	0d 00 00 00 00       	or     $0x0,%eax
  409b29:	00 00                	add    %al,(%rax)
  409b2b:	00 00                	add    %al,(%rax)
  409b2d:	01 00                	add    %eax,(%rax)
  409b2f:	00 47 41             	add    %al,0x41(%rdi)
  409b32:	2a 46 4f             	sub    0x4f(%rsi),%al
  409b35:	52                   	push   %rdx
  409b36:	54                   	push   %rsp
  409b37:	49                   	rex.WB
  409b38:	46 59                	rex.RX pop %rcx
  409b3a:	00 ff                	add    %bh,%bh
  409b3c:	00 00                	add    %al,(%rax)
  409b3e:	00 00                	add    %al,(%rax)
  409b40:	16                   	(bad)  
	...
  409b49:	01 00                	add    %eax,(%rax)
  409b4b:	00 47 41             	add    %al,0x41(%rdi)
  409b4e:	2b 47 4c             	sub    0x4c(%rdi),%eax
  409b51:	49                   	rex.WB
  409b52:	42                   	rex.X
  409b53:	43 58                	rex.XB pop %r8
  409b55:	58                   	pop    %rax
  409b56:	5f                   	pop    %rdi
  409b57:	41 53                	push   %r11
  409b59:	53                   	push   %rbx
  409b5a:	45 52                	rex.RB push %r10
  409b5c:	54                   	push   %rsp
  409b5d:	49                   	rex.WB
  409b5e:	4f                   	rex.WRXB
  409b5f:	4e 53                	rex.WRX push %rbx
  409b61:	00 00                	add    %al,(%rax)
  409b63:	00 06                	add    %al,(%rsi)
	...
  409b6d:	01 00                	add    %eax,(%rax)
  409b6f:	00 47 41             	add    %al,0x41(%rdi)
  409b72:	2a 07                	sub    (%rdi),%al
  409b74:	03 00                	add    (%rax),%eax
  409b76:	00 00                	add    %al,(%rax)
  409b78:	05 00 00 00 00       	add    $0x0,%eax
  409b7d:	00 00                	add    %al,(%rax)
  409b7f:	00 00                	add    %al,(%rax)
  409b81:	01 00                	add    %eax,(%rax)
  409b83:	00 47 41             	add    %al,0x41(%rdi)
  409b86:	21 08                	and    %ecx,(%rax)
  409b88:	00 00                	add    %al,(%rax)
  409b8a:	00 00                	add    %al,(%rax)
  409b8c:	16                   	(bad)  
	...
  409b95:	01 00                	add    %eax,(%rax)
  409b97:	00 47 41             	add    %al,0x41(%rdi)
  409b9a:	2b 6f 6d             	sub    0x6d(%rdi),%ebp
  409b9d:	69 74 5f 66 72 61 6d 	imul   $0x656d6172,0x66(%rdi,%rbx,2),%esi
  409ba4:	65 
  409ba5:	5f                   	pop    %rdi
  409ba6:	70 6f                	jo     409c17 <_end+0x2b27>
  409ba8:	69 6e 74 65 72 00 00 	imul   $0x7265,0x74(%rsi),%ebp
  409baf:	00 09                	add    %cl,(%rcx)
	...
  409bb9:	01 00                	add    %eax,(%rax)
  409bbb:	00 47 41             	add    %al,0x41(%rdi)
  409bbe:	2a 06                	sub    (%rsi),%al
  409bc0:	12 00                	adc    (%rax),%al
  409bc2:	00 08                	add    %cl,(%rax)
  409bc4:	00 00                	add    %al,(%rax)
  409bc6:	00 00                	add    %al,(%rax)
  409bc8:	11 00                	adc    %eax,(%rax)
  409bca:	00 00                	add    %al,(%rax)
  409bcc:	00 00                	add    %al,(%rax)
  409bce:	00 00                	add    %al,(%rax)
  409bd0:	00 01                	add    %al,(%rcx)
  409bd2:	00 00                	add    %al,(%rax)
  409bd4:	47                   	rex.RXB
  409bd5:	41 21 73 74          	and    %esi,0x74(%r11)
  409bd9:	61                   	(bad)  
  409bda:	63 6b 5f             	movsxd 0x5f(%rbx),%ebp
  409bdd:	72 65                	jb     409c44 <_end+0x2b54>
  409bdf:	61                   	(bad)  
  409be0:	6c                   	insb   (%dx),%es:(%rdi)
  409be1:	69 67 6e 00 00 00 00 	imul   $0x0,0x6e(%rdi),%esp
  409be8:	0b 00                	or     (%rax),%eax
  409bea:	00 00                	add    %al,(%rax)
  409bec:	10 00                	adc    %al,(%rax)
  409bee:	00 00                	add    %al,(%rax)
  409bf0:	00 01                	add    %al,(%rcx)
  409bf2:	00 00                	add    %al,(%rax)
  409bf4:	47                   	rex.RXB
  409bf5:	41 24 01             	rex.B and $0x1,%al
  409bf8:	33 70 31             	xor    0x31(%rax),%esi
  409bfb:	30 39                	xor    %bh,(%rcx)
  409bfd:	33 00                	xor    (%rax),%eax
  409bff:	00 b0 11 40 00 00    	add    %dh,0x4011(%rax)
  409c05:	00 00                	add    %al,(%rax)
  409c07:	00 b0 11 40 00 00    	add    %dh,0x4011(%rax)
  409c0d:	00 00                	add    %al,(%rax)
  409c0f:	00 20                	add    %ah,(%rax)
	...
  409c19:	01 00                	add    %eax,(%rax)
  409c1b:	00 47 41             	add    %al,0x41(%rdi)
  409c1e:	24 05                	and    $0x5,%al
  409c20:	72 75                	jb     409c97 <_end+0x2ba7>
  409c22:	6e                   	outsb  %ds:(%rsi),(%dx)
  409c23:	6e                   	outsb  %ds:(%rsi),(%dx)
  409c24:	69 6e 67 20 67 63 63 	imul   $0x63636720,0x67(%rsi),%ebp
  409c2b:	20 31                	and    %dh,(%rcx)
  409c2d:	31 2e                	xor    %ebp,(%rsi)
  409c2f:	34 2e                	xor    $0x2e,%al
  409c31:	31 20                	xor    %esp,(%rax)
  409c33:	32 30                	xor    (%rax),%dh
  409c35:	32 33                	xor    (%rbx),%dh
  409c37:	30 36                	xor    %dh,(%rsi)
  409c39:	30 35 00 20 00 00    	xor    %dh,0x2000(%rip)        # 40bc3f <_end+0x4b4f>
  409c3f:	00 00                	add    %al,(%rax)
  409c41:	00 00                	add    %al,(%rax)
  409c43:	00 00                	add    %al,(%rax)
  409c45:	01 00                	add    %eax,(%rax)
  409c47:	00 47 41             	add    %al,0x41(%rdi)
  409c4a:	24 05                	and    $0x5,%al
  409c4c:	61                   	(bad)  
  409c4d:	6e                   	outsb  %ds:(%rsi),(%dx)
  409c4e:	6e                   	outsb  %ds:(%rsi),(%dx)
  409c4f:	6f                   	outsl  %ds:(%rsi),(%dx)
  409c50:	62                   	(bad)  
  409c51:	69 6e 20 67 63 63 20 	imul   $0x20636367,0x20(%rsi),%ebp
  409c58:	31 31                	xor    %esi,(%rcx)
  409c5a:	2e 33 2e             	cs xor (%rsi),%ebp
  409c5d:	31 20                	xor    %esp,(%rax)
  409c5f:	32 30                	xor    (%rax),%dh
  409c61:	32 32                	xor    (%rdx),%dh
  409c63:	31 31                	xor    %esi,(%rcx)
  409c65:	32 31                	xor    (%rcx),%dh
  409c67:	00 19                	add    %bl,(%rcx)
	...
  409c71:	01 00                	add    %eax,(%rax)
  409c73:	00 47 41             	add    %al,0x41(%rdi)
  409c76:	24 05                	and    $0x5,%al
  409c78:	70 6c                	jo     409ce6 <_end+0x2bf6>
  409c7a:	75 67                	jne    409ce3 <_end+0x2bf3>
  409c7c:	69 6e 20 6e 61 6d 65 	imul   $0x656d616e,0x20(%rsi),%ebp
  409c83:	3a 20                	cmp    (%rax),%ah
  409c85:	61                   	(bad)  
  409c86:	6e                   	outsb  %ds:(%rsi),(%dx)
  409c87:	6e                   	outsb  %ds:(%rsi),(%dx)
  409c88:	6f                   	outsl  %ds:(%rsi),(%dx)
  409c89:	62                   	(bad)  
  409c8a:	69 6e 00 00 00 00 0b 	imul   $0xb000000,0x0(%rsi),%ebp
	...
  409c99:	01 00                	add    %eax,(%rax)
  409c9b:	00 47 41             	add    %al,0x41(%rdi)
  409c9e:	2a 47 4f             	sub    0x4f(%rdi),%al
  409ca1:	57                   	push   %rdi
  409ca2:	00 6a 05             	add    %ch,0x5(%rdx)
  409ca5:	22 00                	and    (%rax),%al
  409ca7:	00 06                	add    %al,(%rsi)
	...
  409cb1:	01 00                	add    %eax,(%rax)
  409cb3:	00 47 41             	add    %al,0x41(%rdi)
  409cb6:	2a 02                	sub    (%rdx),%al
  409cb8:	03 00                	add    (%rax),%eax
  409cba:	00 00                	add    %al,(%rax)
  409cbc:	0f 00 00             	sldt   (%rax)
  409cbf:	00 00                	add    %al,(%rax)
  409cc1:	00 00                	add    %al,(%rax)
  409cc3:	00 00                	add    %al,(%rax)
  409cc5:	01 00                	add    %eax,(%rax)
  409cc7:	00 47 41             	add    %al,0x41(%rdi)
  409cca:	2b 73 74             	sub    0x74(%rbx),%esi
  409ccd:	61                   	(bad)  
  409cce:	63 6b 5f             	movsxd 0x5f(%rbx),%ebp
  409cd1:	63 6c 61 73          	movsxd 0x73(%rcx,%riz,2),%ebp
  409cd5:	68 00 00 13 00       	push   $0x130000
  409cda:	00 00                	add    %al,(%rax)
  409cdc:	00 00                	add    %al,(%rax)
  409cde:	00 00                	add    %al,(%rax)
  409ce0:	00 01                	add    %al,(%rcx)
  409ce2:	00 00                	add    %al,(%rax)
  409ce4:	47                   	rex.RXB
  409ce5:	41 2a 63 66          	sub    0x66(%r11),%spl
  409ce9:	5f                   	pop    %rdi
  409cea:	70 72                	jo     409d5e <_end+0x2c6e>
  409cec:	6f                   	outsl  %ds:(%rsi),(%dx)
  409ced:	74 65                	je     409d54 <_end+0x2c64>
  409cef:	63 74 69 6f          	movsxd 0x6f(%rcx,%rbp,2),%esi
  409cf3:	6e                   	outsb  %ds:(%rsi),(%dx)
  409cf4:	00 08                	add    %cl,(%rax)
  409cf6:	00 00                	add    %al,(%rax)
  409cf8:	0d 00 00 00 00       	or     $0x0,%eax
  409cfd:	00 00                	add    %al,(%rax)
  409cff:	00 00                	add    %al,(%rax)
  409d01:	01 00                	add    %eax,(%rax)
  409d03:	00 47 41             	add    %al,0x41(%rdi)
  409d06:	2a 46 4f             	sub    0x4f(%rsi),%al
  409d09:	52                   	push   %rdx
  409d0a:	54                   	push   %rsp
  409d0b:	49                   	rex.WB
  409d0c:	46 59                	rex.RX pop %rcx
  409d0e:	00 ff                	add    %bh,%bh
  409d10:	00 00                	add    %al,(%rax)
  409d12:	00 00                	add    %al,(%rax)
  409d14:	16                   	(bad)  
	...
  409d1d:	01 00                	add    %eax,(%rax)
  409d1f:	00 47 41             	add    %al,0x41(%rdi)
  409d22:	2b 47 4c             	sub    0x4c(%rdi),%eax
  409d25:	49                   	rex.WB
  409d26:	42                   	rex.X
  409d27:	43 58                	rex.XB pop %r8
  409d29:	58                   	pop    %rax
  409d2a:	5f                   	pop    %rdi
  409d2b:	41 53                	push   %r11
  409d2d:	53                   	push   %rbx
  409d2e:	45 52                	rex.RB push %r10
  409d30:	54                   	push   %rsp
  409d31:	49                   	rex.WB
  409d32:	4f                   	rex.WRXB
  409d33:	4e 53                	rex.WRX push %rbx
  409d35:	00 00                	add    %al,(%rax)
  409d37:	00 06                	add    %al,(%rsi)
	...
  409d41:	01 00                	add    %eax,(%rax)
  409d43:	00 47 41             	add    %al,0x41(%rdi)
  409d46:	2a 07                	sub    (%rdi),%al
  409d48:	03 00                	add    (%rax),%eax
  409d4a:	00 00                	add    %al,(%rax)
  409d4c:	05 00 00 00 00       	add    $0x0,%eax
  409d51:	00 00                	add    %al,(%rax)
  409d53:	00 00                	add    %al,(%rax)
  409d55:	01 00                	add    %eax,(%rax)
  409d57:	00 47 41             	add    %al,0x41(%rdi)
  409d5a:	21 08                	and    %ecx,(%rax)
  409d5c:	00 00                	add    %al,(%rax)
  409d5e:	00 00                	add    %al,(%rax)
  409d60:	16                   	(bad)  
	...
  409d69:	01 00                	add    %eax,(%rax)
  409d6b:	00 47 41             	add    %al,0x41(%rdi)
  409d6e:	2b 6f 6d             	sub    0x6d(%rdi),%ebp
  409d71:	69 74 5f 66 72 61 6d 	imul   $0x656d6172,0x66(%rdi,%rbx,2),%esi
  409d78:	65 
  409d79:	5f                   	pop    %rdi
  409d7a:	70 6f                	jo     409deb <_end+0x2cfb>
  409d7c:	69 6e 74 65 72 00 00 	imul   $0x7265,0x74(%rsi),%ebp
  409d83:	00 09                	add    %cl,(%rcx)
	...
  409d8d:	01 00                	add    %eax,(%rax)
  409d8f:	00 47 41             	add    %al,0x41(%rdi)
  409d92:	2a 06                	sub    (%rsi),%al
  409d94:	12 00                	adc    (%rax),%al
  409d96:	00 08                	add    %cl,(%rax)
  409d98:	00 00                	add    %al,(%rax)
  409d9a:	00 00                	add    %al,(%rax)
  409d9c:	11 00                	adc    %eax,(%rax)
  409d9e:	00 00                	add    %al,(%rax)
  409da0:	00 00                	add    %al,(%rax)
  409da2:	00 00                	add    %al,(%rax)
  409da4:	00 01                	add    %al,(%rcx)
  409da6:	00 00                	add    %al,(%rax)
  409da8:	47                   	rex.RXB
  409da9:	41 21 73 74          	and    %esi,0x74(%r11)
  409dad:	61                   	(bad)  
  409dae:	63 6b 5f             	movsxd 0x5f(%rbx),%ebp
  409db1:	72 65                	jb     409e18 <_end+0x2d28>
  409db3:	61                   	(bad)  
  409db4:	6c                   	insb   (%dx),%es:(%rdi)
  409db5:	69 67 6e 00 00 00 00 	imul   $0x0,0x6e(%rdi),%esp
  409dbc:	0b 00                	or     (%rax),%eax
  409dbe:	00 00                	add    %al,(%rax)
  409dc0:	10 00                	adc    %al,(%rax)
  409dc2:	00 00                	add    %al,(%rax)
  409dc4:	00 01                	add    %al,(%rcx)
  409dc6:	00 00                	add    %al,(%rax)
  409dc8:	47                   	rex.RXB
  409dc9:	41 24 01             	rex.B and $0x1,%al
  409dcc:	33 70 31             	xor    0x31(%rax),%esi
  409dcf:	30 39                	xor    %bh,(%rcx)
  409dd1:	33 00                	xor    (%rax),%eax
  409dd3:	00 b0 11 40 00 00    	add    %dh,0x4011(%rax)
  409dd9:	00 00                	add    %al,(%rax)
  409ddb:	00 b0 11 40 00 00    	add    %dh,0x4011(%rax)
  409de1:	00 00                	add    %al,(%rax)
  409de3:	00 20                	add    %ah,(%rax)
	...
  409ded:	01 00                	add    %eax,(%rax)
  409def:	00 47 41             	add    %al,0x41(%rdi)
  409df2:	24 05                	and    $0x5,%al
  409df4:	72 75                	jb     409e6b <_end+0x2d7b>
  409df6:	6e                   	outsb  %ds:(%rsi),(%dx)
  409df7:	6e                   	outsb  %ds:(%rsi),(%dx)
  409df8:	69 6e 67 20 67 63 63 	imul   $0x63636720,0x67(%rsi),%ebp
  409dff:	20 31                	and    %dh,(%rcx)
  409e01:	31 2e                	xor    %ebp,(%rsi)
  409e03:	34 2e                	xor    $0x2e,%al
  409e05:	31 20                	xor    %esp,(%rax)
  409e07:	32 30                	xor    (%rax),%dh
  409e09:	32 33                	xor    (%rbx),%dh
  409e0b:	30 36                	xor    %dh,(%rsi)
  409e0d:	30 35 00 20 00 00    	xor    %dh,0x2000(%rip)        # 40be13 <_end+0x4d23>
  409e13:	00 00                	add    %al,(%rax)
  409e15:	00 00                	add    %al,(%rax)
  409e17:	00 00                	add    %al,(%rax)
  409e19:	01 00                	add    %eax,(%rax)
  409e1b:	00 47 41             	add    %al,0x41(%rdi)
  409e1e:	24 05                	and    $0x5,%al
  409e20:	61                   	(bad)  
  409e21:	6e                   	outsb  %ds:(%rsi),(%dx)
  409e22:	6e                   	outsb  %ds:(%rsi),(%dx)
  409e23:	6f                   	outsl  %ds:(%rsi),(%dx)
  409e24:	62                   	(bad)  
  409e25:	69 6e 20 67 63 63 20 	imul   $0x20636367,0x20(%rsi),%ebp
  409e2c:	31 31                	xor    %esi,(%rcx)
  409e2e:	2e 33 2e             	cs xor (%rsi),%ebp
  409e31:	31 20                	xor    %esp,(%rax)
  409e33:	32 30                	xor    (%rax),%dh
  409e35:	32 32                	xor    (%rdx),%dh
  409e37:	31 31                	xor    %esi,(%rcx)
  409e39:	32 31                	xor    (%rcx),%dh
  409e3b:	00 19                	add    %bl,(%rcx)
	...
  409e45:	01 00                	add    %eax,(%rax)
  409e47:	00 47 41             	add    %al,0x41(%rdi)
  409e4a:	24 05                	and    $0x5,%al
  409e4c:	70 6c                	jo     409eba <_end+0x2dca>
  409e4e:	75 67                	jne    409eb7 <_end+0x2dc7>
  409e50:	69 6e 20 6e 61 6d 65 	imul   $0x656d616e,0x20(%rsi),%ebp
  409e57:	3a 20                	cmp    (%rax),%ah
  409e59:	61                   	(bad)  
  409e5a:	6e                   	outsb  %ds:(%rsi),(%dx)
  409e5b:	6e                   	outsb  %ds:(%rsi),(%dx)
  409e5c:	6f                   	outsl  %ds:(%rsi),(%dx)
  409e5d:	62                   	(bad)  
  409e5e:	69 6e 00 00 00 00 0b 	imul   $0xb000000,0x0(%rsi),%ebp
	...
  409e6d:	01 00                	add    %eax,(%rax)
  409e6f:	00 47 41             	add    %al,0x41(%rdi)
  409e72:	2a 47 4f             	sub    0x4f(%rdi),%al
  409e75:	57                   	push   %rdi
  409e76:	00 6a 05             	add    %ch,0x5(%rdx)
  409e79:	22 00                	and    (%rax),%al
  409e7b:	00 06                	add    %al,(%rsi)
	...
  409e85:	01 00                	add    %eax,(%rax)
  409e87:	00 47 41             	add    %al,0x41(%rdi)
  409e8a:	2a 02                	sub    (%rdx),%al
  409e8c:	03 00                	add    (%rax),%eax
  409e8e:	00 00                	add    %al,(%rax)
  409e90:	0f 00 00             	sldt   (%rax)
  409e93:	00 00                	add    %al,(%rax)
  409e95:	00 00                	add    %al,(%rax)
  409e97:	00 00                	add    %al,(%rax)
  409e99:	01 00                	add    %eax,(%rax)
  409e9b:	00 47 41             	add    %al,0x41(%rdi)
  409e9e:	2b 73 74             	sub    0x74(%rbx),%esi
  409ea1:	61                   	(bad)  
  409ea2:	63 6b 5f             	movsxd 0x5f(%rbx),%ebp
  409ea5:	63 6c 61 73          	movsxd 0x73(%rcx,%riz,2),%ebp
  409ea9:	68 00 00 13 00       	push   $0x130000
  409eae:	00 00                	add    %al,(%rax)
  409eb0:	00 00                	add    %al,(%rax)
  409eb2:	00 00                	add    %al,(%rax)
  409eb4:	00 01                	add    %al,(%rcx)
  409eb6:	00 00                	add    %al,(%rax)
  409eb8:	47                   	rex.RXB
  409eb9:	41 2a 63 66          	sub    0x66(%r11),%spl
  409ebd:	5f                   	pop    %rdi
  409ebe:	70 72                	jo     409f32 <_end+0x2e42>
  409ec0:	6f                   	outsl  %ds:(%rsi),(%dx)
  409ec1:	74 65                	je     409f28 <_end+0x2e38>
  409ec3:	63 74 69 6f          	movsxd 0x6f(%rcx,%rbp,2),%esi
  409ec7:	6e                   	outsb  %ds:(%rsi),(%dx)
  409ec8:	00 08                	add    %cl,(%rax)
  409eca:	00 00                	add    %al,(%rax)
  409ecc:	0d 00 00 00 00       	or     $0x0,%eax
  409ed1:	00 00                	add    %al,(%rax)
  409ed3:	00 00                	add    %al,(%rax)
  409ed5:	01 00                	add    %eax,(%rax)
  409ed7:	00 47 41             	add    %al,0x41(%rdi)
  409eda:	2a 46 4f             	sub    0x4f(%rsi),%al
  409edd:	52                   	push   %rdx
  409ede:	54                   	push   %rsp
  409edf:	49                   	rex.WB
  409ee0:	46 59                	rex.RX pop %rcx
  409ee2:	00 ff                	add    %bh,%bh
  409ee4:	00 00                	add    %al,(%rax)
  409ee6:	00 00                	add    %al,(%rax)
  409ee8:	16                   	(bad)  
	...
  409ef1:	01 00                	add    %eax,(%rax)
  409ef3:	00 47 41             	add    %al,0x41(%rdi)
  409ef6:	2b 47 4c             	sub    0x4c(%rdi),%eax
  409ef9:	49                   	rex.WB
  409efa:	42                   	rex.X
  409efb:	43 58                	rex.XB pop %r8
  409efd:	58                   	pop    %rax
  409efe:	5f                   	pop    %rdi
  409eff:	41 53                	push   %r11
  409f01:	53                   	push   %rbx
  409f02:	45 52                	rex.RB push %r10
  409f04:	54                   	push   %rsp
  409f05:	49                   	rex.WB
  409f06:	4f                   	rex.WRXB
  409f07:	4e 53                	rex.WRX push %rbx
  409f09:	00 00                	add    %al,(%rax)
  409f0b:	00 06                	add    %al,(%rsi)
	...
  409f15:	01 00                	add    %eax,(%rax)
  409f17:	00 47 41             	add    %al,0x41(%rdi)
  409f1a:	2a 07                	sub    (%rdi),%al
  409f1c:	03 00                	add    (%rax),%eax
  409f1e:	00 00                	add    %al,(%rax)
  409f20:	05 00 00 00 00       	add    $0x0,%eax
  409f25:	00 00                	add    %al,(%rax)
  409f27:	00 00                	add    %al,(%rax)
  409f29:	01 00                	add    %eax,(%rax)
  409f2b:	00 47 41             	add    %al,0x41(%rdi)
  409f2e:	21 08                	and    %ecx,(%rax)
  409f30:	00 00                	add    %al,(%rax)
  409f32:	00 00                	add    %al,(%rax)
  409f34:	16                   	(bad)  
	...
  409f3d:	01 00                	add    %eax,(%rax)
  409f3f:	00 47 41             	add    %al,0x41(%rdi)
  409f42:	2b 6f 6d             	sub    0x6d(%rdi),%ebp
  409f45:	69 74 5f 66 72 61 6d 	imul   $0x656d6172,0x66(%rdi,%rbx,2),%esi
  409f4c:	65 
  409f4d:	5f                   	pop    %rdi
  409f4e:	70 6f                	jo     409fbf <_end+0x2ecf>
  409f50:	69 6e 74 65 72 00 00 	imul   $0x7265,0x74(%rsi),%ebp
  409f57:	00 09                	add    %cl,(%rcx)
	...
  409f61:	01 00                	add    %eax,(%rax)
  409f63:	00 47 41             	add    %al,0x41(%rdi)
  409f66:	2a 06                	sub    (%rsi),%al
  409f68:	12 00                	adc    (%rax),%al
  409f6a:	00 08                	add    %cl,(%rax)
  409f6c:	00 00                	add    %al,(%rax)
  409f6e:	00 00                	add    %al,(%rax)
  409f70:	11 00                	adc    %eax,(%rax)
  409f72:	00 00                	add    %al,(%rax)
  409f74:	00 00                	add    %al,(%rax)
  409f76:	00 00                	add    %al,(%rax)
  409f78:	00 01                	add    %al,(%rcx)
  409f7a:	00 00                	add    %al,(%rax)
  409f7c:	47                   	rex.RXB
  409f7d:	41 21 73 74          	and    %esi,0x74(%r11)
  409f81:	61                   	(bad)  
  409f82:	63 6b 5f             	movsxd 0x5f(%rbx),%ebp
  409f85:	72 65                	jb     409fec <_end+0x2efc>
  409f87:	61                   	(bad)  
  409f88:	6c                   	insb   (%dx),%es:(%rdi)
  409f89:	69 67 6e 00 00 00 00 	imul   $0x0,0x6e(%rdi),%esp
  409f90:	0b 00                	or     (%rax),%eax
  409f92:	00 00                	add    %al,(%rax)
  409f94:	10 00                	adc    %al,(%rax)
  409f96:	00 00                	add    %al,(%rax)
  409f98:	00 01                	add    %al,(%rcx)
  409f9a:	00 00                	add    %al,(%rax)
  409f9c:	47                   	rex.RXB
  409f9d:	41 24 01             	rex.B and $0x1,%al
  409fa0:	33 70 31             	xor    0x31(%rax),%esi
  409fa3:	30 39                	xor    %bh,(%rcx)
  409fa5:	33 00                	xor    (%rax),%eax
  409fa7:	00 b0 11 40 00 00    	add    %dh,0x4011(%rax)
  409fad:	00 00                	add    %al,(%rax)
  409faf:	00 b0 11 40 00 00    	add    %dh,0x4011(%rax)
  409fb5:	00 00                	add    %al,(%rax)
  409fb7:	00 20                	add    %ah,(%rax)
	...
  409fc1:	01 00                	add    %eax,(%rax)
  409fc3:	00 47 41             	add    %al,0x41(%rdi)
  409fc6:	24 05                	and    $0x5,%al
  409fc8:	72 75                	jb     40a03f <_end+0x2f4f>
  409fca:	6e                   	outsb  %ds:(%rsi),(%dx)
  409fcb:	6e                   	outsb  %ds:(%rsi),(%dx)
  409fcc:	69 6e 67 20 67 63 63 	imul   $0x63636720,0x67(%rsi),%ebp
  409fd3:	20 31                	and    %dh,(%rcx)
  409fd5:	31 2e                	xor    %ebp,(%rsi)
  409fd7:	34 2e                	xor    $0x2e,%al
  409fd9:	31 20                	xor    %esp,(%rax)
  409fdb:	32 30                	xor    (%rax),%dh
  409fdd:	32 33                	xor    (%rbx),%dh
  409fdf:	30 36                	xor    %dh,(%rsi)
  409fe1:	30 35 00 20 00 00    	xor    %dh,0x2000(%rip)        # 40bfe7 <_end+0x4ef7>
  409fe7:	00 00                	add    %al,(%rax)
  409fe9:	00 00                	add    %al,(%rax)
  409feb:	00 00                	add    %al,(%rax)
  409fed:	01 00                	add    %eax,(%rax)
  409fef:	00 47 41             	add    %al,0x41(%rdi)
  409ff2:	24 05                	and    $0x5,%al
  409ff4:	61                   	(bad)  
  409ff5:	6e                   	outsb  %ds:(%rsi),(%dx)
  409ff6:	6e                   	outsb  %ds:(%rsi),(%dx)
  409ff7:	6f                   	outsl  %ds:(%rsi),(%dx)
  409ff8:	62                   	(bad)  
  409ff9:	69 6e 20 67 63 63 20 	imul   $0x20636367,0x20(%rsi),%ebp
  40a000:	31 31                	xor    %esi,(%rcx)
  40a002:	2e 33 2e             	cs xor (%rsi),%ebp
  40a005:	31 20                	xor    %esp,(%rax)
  40a007:	32 30                	xor    (%rax),%dh
  40a009:	32 32                	xor    (%rdx),%dh
  40a00b:	31 31                	xor    %esi,(%rcx)
  40a00d:	32 31                	xor    (%rcx),%dh
  40a00f:	00 19                	add    %bl,(%rcx)
	...
  40a019:	01 00                	add    %eax,(%rax)
  40a01b:	00 47 41             	add    %al,0x41(%rdi)
  40a01e:	24 05                	and    $0x5,%al
  40a020:	70 6c                	jo     40a08e <_end+0x2f9e>
  40a022:	75 67                	jne    40a08b <_end+0x2f9b>
  40a024:	69 6e 20 6e 61 6d 65 	imul   $0x656d616e,0x20(%rsi),%ebp
  40a02b:	3a 20                	cmp    (%rax),%ah
  40a02d:	61                   	(bad)  
  40a02e:	6e                   	outsb  %ds:(%rsi),(%dx)
  40a02f:	6e                   	outsb  %ds:(%rsi),(%dx)
  40a030:	6f                   	outsl  %ds:(%rsi),(%dx)
  40a031:	62                   	(bad)  
  40a032:	69 6e 00 00 00 00 0b 	imul   $0xb000000,0x0(%rsi),%ebp
	...
  40a041:	01 00                	add    %eax,(%rax)
  40a043:	00 47 41             	add    %al,0x41(%rdi)
  40a046:	2a 47 4f             	sub    0x4f(%rdi),%al
  40a049:	57                   	push   %rdi
  40a04a:	00 6a 05             	add    %ch,0x5(%rdx)
  40a04d:	22 00                	and    (%rax),%al
  40a04f:	00 06                	add    %al,(%rsi)
	...
  40a059:	01 00                	add    %eax,(%rax)
  40a05b:	00 47 41             	add    %al,0x41(%rdi)
  40a05e:	2a 02                	sub    (%rdx),%al
  40a060:	03 00                	add    (%rax),%eax
  40a062:	00 00                	add    %al,(%rax)
  40a064:	0f 00 00             	sldt   (%rax)
  40a067:	00 00                	add    %al,(%rax)
  40a069:	00 00                	add    %al,(%rax)
  40a06b:	00 00                	add    %al,(%rax)
  40a06d:	01 00                	add    %eax,(%rax)
  40a06f:	00 47 41             	add    %al,0x41(%rdi)
  40a072:	2b 73 74             	sub    0x74(%rbx),%esi
  40a075:	61                   	(bad)  
  40a076:	63 6b 5f             	movsxd 0x5f(%rbx),%ebp
  40a079:	63 6c 61 73          	movsxd 0x73(%rcx,%riz,2),%ebp
  40a07d:	68 00 00 13 00       	push   $0x130000
  40a082:	00 00                	add    %al,(%rax)
  40a084:	00 00                	add    %al,(%rax)
  40a086:	00 00                	add    %al,(%rax)
  40a088:	00 01                	add    %al,(%rcx)
  40a08a:	00 00                	add    %al,(%rax)
  40a08c:	47                   	rex.RXB
  40a08d:	41 2a 63 66          	sub    0x66(%r11),%spl
  40a091:	5f                   	pop    %rdi
  40a092:	70 72                	jo     40a106 <_end+0x3016>
  40a094:	6f                   	outsl  %ds:(%rsi),(%dx)
  40a095:	74 65                	je     40a0fc <_end+0x300c>
  40a097:	63 74 69 6f          	movsxd 0x6f(%rcx,%rbp,2),%esi
  40a09b:	6e                   	outsb  %ds:(%rsi),(%dx)
  40a09c:	00 08                	add    %cl,(%rax)
  40a09e:	00 00                	add    %al,(%rax)
  40a0a0:	0d 00 00 00 00       	or     $0x0,%eax
  40a0a5:	00 00                	add    %al,(%rax)
  40a0a7:	00 00                	add    %al,(%rax)
  40a0a9:	01 00                	add    %eax,(%rax)
  40a0ab:	00 47 41             	add    %al,0x41(%rdi)
  40a0ae:	2a 46 4f             	sub    0x4f(%rsi),%al
  40a0b1:	52                   	push   %rdx
  40a0b2:	54                   	push   %rsp
  40a0b3:	49                   	rex.WB
  40a0b4:	46 59                	rex.RX pop %rcx
  40a0b6:	00 ff                	add    %bh,%bh
  40a0b8:	00 00                	add    %al,(%rax)
  40a0ba:	00 00                	add    %al,(%rax)
  40a0bc:	16                   	(bad)  
	...
  40a0c5:	01 00                	add    %eax,(%rax)
  40a0c7:	00 47 41             	add    %al,0x41(%rdi)
  40a0ca:	2b 47 4c             	sub    0x4c(%rdi),%eax
  40a0cd:	49                   	rex.WB
  40a0ce:	42                   	rex.X
  40a0cf:	43 58                	rex.XB pop %r8
  40a0d1:	58                   	pop    %rax
  40a0d2:	5f                   	pop    %rdi
  40a0d3:	41 53                	push   %r11
  40a0d5:	53                   	push   %rbx
  40a0d6:	45 52                	rex.RB push %r10
  40a0d8:	54                   	push   %rsp
  40a0d9:	49                   	rex.WB
  40a0da:	4f                   	rex.WRXB
  40a0db:	4e 53                	rex.WRX push %rbx
  40a0dd:	00 00                	add    %al,(%rax)
  40a0df:	00 06                	add    %al,(%rsi)
	...
  40a0e9:	01 00                	add    %eax,(%rax)
  40a0eb:	00 47 41             	add    %al,0x41(%rdi)
  40a0ee:	2a 07                	sub    (%rdi),%al
  40a0f0:	03 00                	add    (%rax),%eax
  40a0f2:	00 00                	add    %al,(%rax)
  40a0f4:	05 00 00 00 00       	add    $0x0,%eax
  40a0f9:	00 00                	add    %al,(%rax)
  40a0fb:	00 00                	add    %al,(%rax)
  40a0fd:	01 00                	add    %eax,(%rax)
  40a0ff:	00 47 41             	add    %al,0x41(%rdi)
  40a102:	21 08                	and    %ecx,(%rax)
  40a104:	00 00                	add    %al,(%rax)
  40a106:	00 00                	add    %al,(%rax)
  40a108:	16                   	(bad)  
	...
  40a111:	01 00                	add    %eax,(%rax)
  40a113:	00 47 41             	add    %al,0x41(%rdi)
  40a116:	2b 6f 6d             	sub    0x6d(%rdi),%ebp
  40a119:	69 74 5f 66 72 61 6d 	imul   $0x656d6172,0x66(%rdi,%rbx,2),%esi
  40a120:	65 
  40a121:	5f                   	pop    %rdi
  40a122:	70 6f                	jo     40a193 <_end+0x30a3>
  40a124:	69 6e 74 65 72 00 00 	imul   $0x7265,0x74(%rsi),%ebp
  40a12b:	00 09                	add    %cl,(%rcx)
	...
  40a135:	01 00                	add    %eax,(%rax)
  40a137:	00 47 41             	add    %al,0x41(%rdi)
  40a13a:	2a 06                	sub    (%rsi),%al
  40a13c:	12 00                	adc    (%rax),%al
  40a13e:	00 08                	add    %cl,(%rax)
  40a140:	00 00                	add    %al,(%rax)
  40a142:	00 00                	add    %al,(%rax)
  40a144:	11 00                	adc    %eax,(%rax)
  40a146:	00 00                	add    %al,(%rax)
  40a148:	00 00                	add    %al,(%rax)
  40a14a:	00 00                	add    %al,(%rax)
  40a14c:	00 01                	add    %al,(%rcx)
  40a14e:	00 00                	add    %al,(%rax)
  40a150:	47                   	rex.RXB
  40a151:	41 21 73 74          	and    %esi,0x74(%r11)
  40a155:	61                   	(bad)  
  40a156:	63 6b 5f             	movsxd 0x5f(%rbx),%ebp
  40a159:	72 65                	jb     40a1c0 <_end+0x30d0>
  40a15b:	61                   	(bad)  
  40a15c:	6c                   	insb   (%dx),%es:(%rdi)
  40a15d:	69 67 6e 00 00 00 00 	imul   $0x0,0x6e(%rdi),%esp
  40a164:	0b 00                	or     (%rax),%eax
  40a166:	00 00                	add    %al,(%rax)
  40a168:	10 00                	adc    %al,(%rax)
  40a16a:	00 00                	add    %al,(%rax)
  40a16c:	00 01                	add    %al,(%rcx)
  40a16e:	00 00                	add    %al,(%rax)
  40a170:	47                   	rex.RXB
  40a171:	41 24 01             	rex.B and $0x1,%al
  40a174:	33 70 31             	xor    0x31(%rax),%esi
  40a177:	30 39                	xor    %bh,(%rcx)
  40a179:	33 00                	xor    (%rax),%eax
  40a17b:	00 b0 11 40 00 00    	add    %dh,0x4011(%rax)
  40a181:	00 00                	add    %al,(%rax)
  40a183:	00 b0 11 40 00 00    	add    %dh,0x4011(%rax)
  40a189:	00 00                	add    %al,(%rax)
  40a18b:	00 20                	add    %ah,(%rax)
	...
  40a195:	01 00                	add    %eax,(%rax)
  40a197:	00 47 41             	add    %al,0x41(%rdi)
  40a19a:	24 05                	and    $0x5,%al
  40a19c:	72 75                	jb     40a213 <_end+0x3123>
  40a19e:	6e                   	outsb  %ds:(%rsi),(%dx)
  40a19f:	6e                   	outsb  %ds:(%rsi),(%dx)
  40a1a0:	69 6e 67 20 67 63 63 	imul   $0x63636720,0x67(%rsi),%ebp
  40a1a7:	20 31                	and    %dh,(%rcx)
  40a1a9:	31 2e                	xor    %ebp,(%rsi)
  40a1ab:	34 2e                	xor    $0x2e,%al
  40a1ad:	31 20                	xor    %esp,(%rax)
  40a1af:	32 30                	xor    (%rax),%dh
  40a1b1:	32 33                	xor    (%rbx),%dh
  40a1b3:	30 36                	xor    %dh,(%rsi)
  40a1b5:	30 35 00 20 00 00    	xor    %dh,0x2000(%rip)        # 40c1bb <_end+0x50cb>
  40a1bb:	00 00                	add    %al,(%rax)
  40a1bd:	00 00                	add    %al,(%rax)
  40a1bf:	00 00                	add    %al,(%rax)
  40a1c1:	01 00                	add    %eax,(%rax)
  40a1c3:	00 47 41             	add    %al,0x41(%rdi)
  40a1c6:	24 05                	and    $0x5,%al
  40a1c8:	61                   	(bad)  
  40a1c9:	6e                   	outsb  %ds:(%rsi),(%dx)
  40a1ca:	6e                   	outsb  %ds:(%rsi),(%dx)
  40a1cb:	6f                   	outsl  %ds:(%rsi),(%dx)
  40a1cc:	62                   	(bad)  
  40a1cd:	69 6e 20 67 63 63 20 	imul   $0x20636367,0x20(%rsi),%ebp
  40a1d4:	31 31                	xor    %esi,(%rcx)
  40a1d6:	2e 33 2e             	cs xor (%rsi),%ebp
  40a1d9:	31 20                	xor    %esp,(%rax)
  40a1db:	32 30                	xor    (%rax),%dh
  40a1dd:	32 32                	xor    (%rdx),%dh
  40a1df:	31 31                	xor    %esi,(%rcx)
  40a1e1:	32 31                	xor    (%rcx),%dh
  40a1e3:	00 19                	add    %bl,(%rcx)
	...
  40a1ed:	01 00                	add    %eax,(%rax)
  40a1ef:	00 47 41             	add    %al,0x41(%rdi)
  40a1f2:	24 05                	and    $0x5,%al
  40a1f4:	70 6c                	jo     40a262 <_end+0x3172>
  40a1f6:	75 67                	jne    40a25f <_end+0x316f>
  40a1f8:	69 6e 20 6e 61 6d 65 	imul   $0x656d616e,0x20(%rsi),%ebp
  40a1ff:	3a 20                	cmp    (%rax),%ah
  40a201:	61                   	(bad)  
  40a202:	6e                   	outsb  %ds:(%rsi),(%dx)
  40a203:	6e                   	outsb  %ds:(%rsi),(%dx)
  40a204:	6f                   	outsl  %ds:(%rsi),(%dx)
  40a205:	62                   	(bad)  
  40a206:	69 6e 00 00 00 00 0b 	imul   $0xb000000,0x0(%rsi),%ebp
	...
  40a215:	01 00                	add    %eax,(%rax)
  40a217:	00 47 41             	add    %al,0x41(%rdi)
  40a21a:	2a 47 4f             	sub    0x4f(%rdi),%al
  40a21d:	57                   	push   %rdi
  40a21e:	00 6a 05             	add    %ch,0x5(%rdx)
  40a221:	22 00                	and    (%rax),%al
  40a223:	00 06                	add    %al,(%rsi)
	...
  40a22d:	01 00                	add    %eax,(%rax)
  40a22f:	00 47 41             	add    %al,0x41(%rdi)
  40a232:	2a 02                	sub    (%rdx),%al
  40a234:	03 00                	add    (%rax),%eax
  40a236:	00 00                	add    %al,(%rax)
  40a238:	0f 00 00             	sldt   (%rax)
  40a23b:	00 00                	add    %al,(%rax)
  40a23d:	00 00                	add    %al,(%rax)
  40a23f:	00 00                	add    %al,(%rax)
  40a241:	01 00                	add    %eax,(%rax)
  40a243:	00 47 41             	add    %al,0x41(%rdi)
  40a246:	2b 73 74             	sub    0x74(%rbx),%esi
  40a249:	61                   	(bad)  
  40a24a:	63 6b 5f             	movsxd 0x5f(%rbx),%ebp
  40a24d:	63 6c 61 73          	movsxd 0x73(%rcx,%riz,2),%ebp
  40a251:	68 00 00 13 00       	push   $0x130000
  40a256:	00 00                	add    %al,(%rax)
  40a258:	00 00                	add    %al,(%rax)
  40a25a:	00 00                	add    %al,(%rax)
  40a25c:	00 01                	add    %al,(%rcx)
  40a25e:	00 00                	add    %al,(%rax)
  40a260:	47                   	rex.RXB
  40a261:	41 2a 63 66          	sub    0x66(%r11),%spl
  40a265:	5f                   	pop    %rdi
  40a266:	70 72                	jo     40a2da <_end+0x31ea>
  40a268:	6f                   	outsl  %ds:(%rsi),(%dx)
  40a269:	74 65                	je     40a2d0 <_end+0x31e0>
  40a26b:	63 74 69 6f          	movsxd 0x6f(%rcx,%rbp,2),%esi
  40a26f:	6e                   	outsb  %ds:(%rsi),(%dx)
  40a270:	00 08                	add    %cl,(%rax)
  40a272:	00 00                	add    %al,(%rax)
  40a274:	0d 00 00 00 00       	or     $0x0,%eax
  40a279:	00 00                	add    %al,(%rax)
  40a27b:	00 00                	add    %al,(%rax)
  40a27d:	01 00                	add    %eax,(%rax)
  40a27f:	00 47 41             	add    %al,0x41(%rdi)
  40a282:	2a 46 4f             	sub    0x4f(%rsi),%al
  40a285:	52                   	push   %rdx
  40a286:	54                   	push   %rsp
  40a287:	49                   	rex.WB
  40a288:	46 59                	rex.RX pop %rcx
  40a28a:	00 ff                	add    %bh,%bh
  40a28c:	00 00                	add    %al,(%rax)
  40a28e:	00 00                	add    %al,(%rax)
  40a290:	16                   	(bad)  
	...
  40a299:	01 00                	add    %eax,(%rax)
  40a29b:	00 47 41             	add    %al,0x41(%rdi)
  40a29e:	2b 47 4c             	sub    0x4c(%rdi),%eax
  40a2a1:	49                   	rex.WB
  40a2a2:	42                   	rex.X
  40a2a3:	43 58                	rex.XB pop %r8
  40a2a5:	58                   	pop    %rax
  40a2a6:	5f                   	pop    %rdi
  40a2a7:	41 53                	push   %r11
  40a2a9:	53                   	push   %rbx
  40a2aa:	45 52                	rex.RB push %r10
  40a2ac:	54                   	push   %rsp
  40a2ad:	49                   	rex.WB
  40a2ae:	4f                   	rex.WRXB
  40a2af:	4e 53                	rex.WRX push %rbx
  40a2b1:	00 00                	add    %al,(%rax)
  40a2b3:	00 06                	add    %al,(%rsi)
	...
  40a2bd:	01 00                	add    %eax,(%rax)
  40a2bf:	00 47 41             	add    %al,0x41(%rdi)
  40a2c2:	2a 07                	sub    (%rdi),%al
  40a2c4:	03 00                	add    (%rax),%eax
  40a2c6:	00 00                	add    %al,(%rax)
  40a2c8:	05 00 00 00 00       	add    $0x0,%eax
  40a2cd:	00 00                	add    %al,(%rax)
  40a2cf:	00 00                	add    %al,(%rax)
  40a2d1:	01 00                	add    %eax,(%rax)
  40a2d3:	00 47 41             	add    %al,0x41(%rdi)
  40a2d6:	21 08                	and    %ecx,(%rax)
  40a2d8:	00 00                	add    %al,(%rax)
  40a2da:	00 00                	add    %al,(%rax)
  40a2dc:	16                   	(bad)  
	...
  40a2e5:	01 00                	add    %eax,(%rax)
  40a2e7:	00 47 41             	add    %al,0x41(%rdi)
  40a2ea:	2b 6f 6d             	sub    0x6d(%rdi),%ebp
  40a2ed:	69 74 5f 66 72 61 6d 	imul   $0x656d6172,0x66(%rdi,%rbx,2),%esi
  40a2f4:	65 
  40a2f5:	5f                   	pop    %rdi
  40a2f6:	70 6f                	jo     40a367 <_end+0x3277>
  40a2f8:	69 6e 74 65 72 00 00 	imul   $0x7265,0x74(%rsi),%ebp
  40a2ff:	00 09                	add    %cl,(%rcx)
	...
  40a309:	01 00                	add    %eax,(%rax)
  40a30b:	00 47 41             	add    %al,0x41(%rdi)
  40a30e:	2a 06                	sub    (%rsi),%al
  40a310:	12 00                	adc    (%rax),%al
  40a312:	00 08                	add    %cl,(%rax)
  40a314:	00 00                	add    %al,(%rax)
  40a316:	00 00                	add    %al,(%rax)
  40a318:	11 00                	adc    %eax,(%rax)
  40a31a:	00 00                	add    %al,(%rax)
  40a31c:	00 00                	add    %al,(%rax)
  40a31e:	00 00                	add    %al,(%rax)
  40a320:	00 01                	add    %al,(%rcx)
  40a322:	00 00                	add    %al,(%rax)
  40a324:	47                   	rex.RXB
  40a325:	41 21 73 74          	and    %esi,0x74(%r11)
  40a329:	61                   	(bad)  
  40a32a:	63 6b 5f             	movsxd 0x5f(%rbx),%ebp
  40a32d:	72 65                	jb     40a394 <_end+0x32a4>
  40a32f:	61                   	(bad)  
  40a330:	6c                   	insb   (%dx),%es:(%rdi)
  40a331:	69 67 6e 00 00 00 00 	imul   $0x0,0x6e(%rdi),%esp
  40a338:	0b 00                	or     (%rax),%eax
  40a33a:	00 00                	add    %al,(%rax)
  40a33c:	10 00                	adc    %al,(%rax)
  40a33e:	00 00                	add    %al,(%rax)
  40a340:	00 01                	add    %al,(%rcx)
  40a342:	00 00                	add    %al,(%rax)
  40a344:	47                   	rex.RXB
  40a345:	41 24 01             	rex.B and $0x1,%al
  40a348:	33 70 31             	xor    0x31(%rax),%esi
  40a34b:	30 39                	xor    %bh,(%rcx)
  40a34d:	33 00                	xor    (%rax),%eax
  40a34f:	00 e0                	add    %ah,%al
  40a351:	11 40 00             	adc    %eax,0x0(%rax)
  40a354:	00 00                	add    %al,(%rax)
  40a356:	00 00                	add    %al,(%rax)
  40a358:	d6                   	(bad)  
  40a359:	11 40 00             	adc    %eax,0x0(%rax)
  40a35c:	00 00                	add    %al,(%rax)
  40a35e:	00 00                	add    %al,(%rax)
  40a360:	20 00                	and    %al,(%rax)
  40a362:	00 00                	add    %al,(%rax)
  40a364:	00 00                	add    %al,(%rax)
  40a366:	00 00                	add    %al,(%rax)
  40a368:	00 01                	add    %al,(%rcx)
  40a36a:	00 00                	add    %al,(%rax)
  40a36c:	47                   	rex.RXB
  40a36d:	41 24 05             	rex.B and $0x5,%al
  40a370:	72 75                	jb     40a3e7 <_end+0x32f7>
  40a372:	6e                   	outsb  %ds:(%rsi),(%dx)
  40a373:	6e                   	outsb  %ds:(%rsi),(%dx)
  40a374:	69 6e 67 20 67 63 63 	imul   $0x63636720,0x67(%rsi),%ebp
  40a37b:	20 31                	and    %dh,(%rcx)
  40a37d:	31 2e                	xor    %ebp,(%rsi)
  40a37f:	34 2e                	xor    $0x2e,%al
  40a381:	31 20                	xor    %esp,(%rax)
  40a383:	32 30                	xor    (%rax),%dh
  40a385:	32 33                	xor    (%rbx),%dh
  40a387:	30 36                	xor    %dh,(%rsi)
  40a389:	30 35 00 20 00 00    	xor    %dh,0x2000(%rip)        # 40c38f <_end+0x529f>
  40a38f:	00 00                	add    %al,(%rax)
  40a391:	00 00                	add    %al,(%rax)
  40a393:	00 00                	add    %al,(%rax)
  40a395:	01 00                	add    %eax,(%rax)
  40a397:	00 47 41             	add    %al,0x41(%rdi)
  40a39a:	24 05                	and    $0x5,%al
  40a39c:	61                   	(bad)  
  40a39d:	6e                   	outsb  %ds:(%rsi),(%dx)
  40a39e:	6e                   	outsb  %ds:(%rsi),(%dx)
  40a39f:	6f                   	outsl  %ds:(%rsi),(%dx)
  40a3a0:	62                   	(bad)  
  40a3a1:	69 6e 20 67 63 63 20 	imul   $0x20636367,0x20(%rsi),%ebp
  40a3a8:	31 31                	xor    %esi,(%rcx)
  40a3aa:	2e 33 2e             	cs xor (%rsi),%ebp
  40a3ad:	31 20                	xor    %esp,(%rax)
  40a3af:	32 30                	xor    (%rax),%dh
  40a3b1:	32 32                	xor    (%rdx),%dh
  40a3b3:	31 31                	xor    %esi,(%rcx)
  40a3b5:	32 31                	xor    (%rcx),%dh
  40a3b7:	00 19                	add    %bl,(%rcx)
	...
  40a3c1:	01 00                	add    %eax,(%rax)
  40a3c3:	00 47 41             	add    %al,0x41(%rdi)
  40a3c6:	24 05                	and    $0x5,%al
  40a3c8:	70 6c                	jo     40a436 <_end+0x3346>
  40a3ca:	75 67                	jne    40a433 <_end+0x3343>
  40a3cc:	69 6e 20 6e 61 6d 65 	imul   $0x656d616e,0x20(%rsi),%ebp
  40a3d3:	3a 20                	cmp    (%rax),%ah
  40a3d5:	61                   	(bad)  
  40a3d6:	6e                   	outsb  %ds:(%rsi),(%dx)
  40a3d7:	6e                   	outsb  %ds:(%rsi),(%dx)
  40a3d8:	6f                   	outsl  %ds:(%rsi),(%dx)
  40a3d9:	62                   	(bad)  
  40a3da:	69 6e 00 00 00 00 0b 	imul   $0xb000000,0x0(%rsi),%ebp
	...
  40a3e9:	01 00                	add    %eax,(%rax)
  40a3eb:	00 47 41             	add    %al,0x41(%rdi)
  40a3ee:	2a 47 4f             	sub    0x4f(%rdi),%al
  40a3f1:	57                   	push   %rdi
  40a3f2:	00 6a 05             	add    %ch,0x5(%rdx)
  40a3f5:	22 00                	and    (%rax),%al
  40a3f7:	00 06                	add    %al,(%rsi)
	...
  40a401:	01 00                	add    %eax,(%rax)
  40a403:	00 47 41             	add    %al,0x41(%rdi)
  40a406:	2a 02                	sub    (%rdx),%al
  40a408:	03 00                	add    (%rax),%eax
  40a40a:	00 00                	add    %al,(%rax)
  40a40c:	0f 00 00             	sldt   (%rax)
  40a40f:	00 00                	add    %al,(%rax)
  40a411:	00 00                	add    %al,(%rax)
  40a413:	00 00                	add    %al,(%rax)
  40a415:	01 00                	add    %eax,(%rax)
  40a417:	00 47 41             	add    %al,0x41(%rdi)
  40a41a:	2b 73 74             	sub    0x74(%rbx),%esi
  40a41d:	61                   	(bad)  
  40a41e:	63 6b 5f             	movsxd 0x5f(%rbx),%ebp
  40a421:	63 6c 61 73          	movsxd 0x73(%rcx,%riz,2),%ebp
  40a425:	68 00 00 13 00       	push   $0x130000
  40a42a:	00 00                	add    %al,(%rax)
  40a42c:	00 00                	add    %al,(%rax)
  40a42e:	00 00                	add    %al,(%rax)
  40a430:	00 01                	add    %al,(%rcx)
  40a432:	00 00                	add    %al,(%rax)
  40a434:	47                   	rex.RXB
  40a435:	41 2a 63 66          	sub    0x66(%r11),%spl
  40a439:	5f                   	pop    %rdi
  40a43a:	70 72                	jo     40a4ae <_end+0x33be>
  40a43c:	6f                   	outsl  %ds:(%rsi),(%dx)
  40a43d:	74 65                	je     40a4a4 <_end+0x33b4>
  40a43f:	63 74 69 6f          	movsxd 0x6f(%rcx,%rbp,2),%esi
  40a443:	6e                   	outsb  %ds:(%rsi),(%dx)
  40a444:	00 08                	add    %cl,(%rax)
  40a446:	00 00                	add    %al,(%rax)
  40a448:	0d 00 00 00 00       	or     $0x0,%eax
  40a44d:	00 00                	add    %al,(%rax)
  40a44f:	00 00                	add    %al,(%rax)
  40a451:	01 00                	add    %eax,(%rax)
  40a453:	00 47 41             	add    %al,0x41(%rdi)
  40a456:	2a 46 4f             	sub    0x4f(%rsi),%al
  40a459:	52                   	push   %rdx
  40a45a:	54                   	push   %rsp
  40a45b:	49                   	rex.WB
  40a45c:	46 59                	rex.RX pop %rcx
  40a45e:	00 ff                	add    %bh,%bh
  40a460:	00 00                	add    %al,(%rax)
  40a462:	00 00                	add    %al,(%rax)
  40a464:	16                   	(bad)  
	...
  40a46d:	01 00                	add    %eax,(%rax)
  40a46f:	00 47 41             	add    %al,0x41(%rdi)
  40a472:	2b 47 4c             	sub    0x4c(%rdi),%eax
  40a475:	49                   	rex.WB
  40a476:	42                   	rex.X
  40a477:	43 58                	rex.XB pop %r8
  40a479:	58                   	pop    %rax
  40a47a:	5f                   	pop    %rdi
  40a47b:	41 53                	push   %r11
  40a47d:	53                   	push   %rbx
  40a47e:	45 52                	rex.RB push %r10
  40a480:	54                   	push   %rsp
  40a481:	49                   	rex.WB
  40a482:	4f                   	rex.WRXB
  40a483:	4e 53                	rex.WRX push %rbx
  40a485:	00 00                	add    %al,(%rax)
  40a487:	00 06                	add    %al,(%rsi)
	...
  40a491:	01 00                	add    %eax,(%rax)
  40a493:	00 47 41             	add    %al,0x41(%rdi)
  40a496:	2a 07                	sub    (%rdi),%al
  40a498:	03 00                	add    (%rax),%eax
  40a49a:	00 00                	add    %al,(%rax)
  40a49c:	05 00 00 00 00       	add    $0x0,%eax
  40a4a1:	00 00                	add    %al,(%rax)
  40a4a3:	00 00                	add    %al,(%rax)
  40a4a5:	01 00                	add    %eax,(%rax)
  40a4a7:	00 47 41             	add    %al,0x41(%rdi)
  40a4aa:	21 08                	and    %ecx,(%rax)
  40a4ac:	00 00                	add    %al,(%rax)
  40a4ae:	00 00                	add    %al,(%rax)
  40a4b0:	16                   	(bad)  
	...
  40a4b9:	01 00                	add    %eax,(%rax)
  40a4bb:	00 47 41             	add    %al,0x41(%rdi)
  40a4be:	2b 6f 6d             	sub    0x6d(%rdi),%ebp
  40a4c1:	69 74 5f 66 72 61 6d 	imul   $0x656d6172,0x66(%rdi,%rbx,2),%esi
  40a4c8:	65 
  40a4c9:	5f                   	pop    %rdi
  40a4ca:	70 6f                	jo     40a53b <_end+0x344b>
  40a4cc:	69 6e 74 65 72 00 00 	imul   $0x7265,0x74(%rsi),%ebp
  40a4d3:	00 09                	add    %cl,(%rcx)
	...
  40a4dd:	01 00                	add    %eax,(%rax)
  40a4df:	00 47 41             	add    %al,0x41(%rdi)
  40a4e2:	2a 06                	sub    (%rsi),%al
  40a4e4:	12 00                	adc    (%rax),%al
  40a4e6:	00 08                	add    %cl,(%rax)
  40a4e8:	00 00                	add    %al,(%rax)
  40a4ea:	00 00                	add    %al,(%rax)
  40a4ec:	11 00                	adc    %eax,(%rax)
  40a4ee:	00 00                	add    %al,(%rax)
  40a4f0:	00 00                	add    %al,(%rax)
  40a4f2:	00 00                	add    %al,(%rax)
  40a4f4:	00 01                	add    %al,(%rcx)
  40a4f6:	00 00                	add    %al,(%rax)
  40a4f8:	47                   	rex.RXB
  40a4f9:	41 21 73 74          	and    %esi,0x74(%r11)
  40a4fd:	61                   	(bad)  
  40a4fe:	63 6b 5f             	movsxd 0x5f(%rbx),%ebp
  40a501:	72 65                	jb     40a568 <_end+0x3478>
  40a503:	61                   	(bad)  
  40a504:	6c                   	insb   (%dx),%es:(%rdi)
  40a505:	69 67 6e 00 00 00 00 	imul   $0x0,0x6e(%rdi),%esp
  40a50c:	0d 00 00 00 10       	or     $0x10000000,%eax
  40a511:	00 00                	add    %al,(%rax)
  40a513:	00 01                	add    %al,(%rcx)
  40a515:	01 00                	add    %eax,(%rax)
  40a517:	00 47 41             	add    %al,0x41(%rdi)
  40a51a:	2a 46 4f             	sub    0x4f(%rsi),%al
  40a51d:	52                   	push   %rdx
  40a51e:	54                   	push   %rsp
  40a51f:	49                   	rex.WB
  40a520:	46 59                	rex.RX pop %rcx
  40a522:	00 ff                	add    %bh,%bh
  40a524:	00 00                	add    %al,(%rax)
  40a526:	00 00                	add    %al,(%rax)
  40a528:	e0 11                	loopne 40a53b <_end+0x344b>
  40a52a:	40 00 00             	rex add %al,(%rax)
  40a52d:	00 00                	add    %al,(%rax)
  40a52f:	00 e5                	add    %ah,%ch
  40a531:	11 40 00             	adc    %eax,0x0(%rax)
  40a534:	00 00                	add    %al,(%rax)
  40a536:	00 00                	add    %al,(%rax)
  40a538:	16                   	(bad)  
  40a539:	00 00                	add    %al,(%rax)
  40a53b:	00 10                	add    %dl,(%rax)
  40a53d:	00 00                	add    %al,(%rax)
  40a53f:	00 01                	add    %al,(%rcx)
  40a541:	01 00                	add    %eax,(%rax)
  40a543:	00 47 41             	add    %al,0x41(%rdi)
  40a546:	2b 47 4c             	sub    0x4c(%rdi),%eax
  40a549:	49                   	rex.WB
  40a54a:	42                   	rex.X
  40a54b:	43 58                	rex.XB pop %r8
  40a54d:	58                   	pop    %rax
  40a54e:	5f                   	pop    %rdi
  40a54f:	41 53                	push   %r11
  40a551:	53                   	push   %rbx
  40a552:	45 52                	rex.RB push %r10
  40a554:	54                   	push   %rsp
  40a555:	49                   	rex.WB
  40a556:	4f                   	rex.WRXB
  40a557:	4e 53                	rex.WRX push %rbx
  40a559:	00 00                	add    %al,(%rax)
  40a55b:	00 e0                	add    %ah,%al
  40a55d:	11 40 00             	adc    %eax,0x0(%rax)
  40a560:	00 00                	add    %al,(%rax)
  40a562:	00 00                	add    %al,(%rax)
  40a564:	e5 11                	in     $0x11,%eax
  40a566:	40 00 00             	rex add %al,(%rax)
  40a569:	00 00                	add    %al,(%rax)
  40a56b:	00 0b                	add    %cl,(%rbx)
  40a56d:	00 00                	add    %al,(%rax)
  40a56f:	00 10                	add    %dl,(%rax)
  40a571:	00 00                	add    %al,(%rax)
  40a573:	00 00                	add    %al,(%rax)
  40a575:	01 00                	add    %eax,(%rax)
  40a577:	00 47 41             	add    %al,0x41(%rdi)
  40a57a:	24 01                	and    $0x1,%al
  40a57c:	33 70 31             	xor    0x31(%rax),%esi
  40a57f:	30 39                	xor    %bh,(%rcx)
  40a581:	33 00                	xor    (%rax),%eax
  40a583:	00 b0 11 40 00 00    	add    %dh,0x4011(%rax)
  40a589:	00 00                	add    %al,(%rax)
  40a58b:	00 b0 11 40 00 00    	add    %dh,0x4011(%rax)
  40a591:	00 00                	add    %al,(%rax)
  40a593:	00 20                	add    %ah,(%rax)
	...
  40a59d:	01 00                	add    %eax,(%rax)
  40a59f:	00 47 41             	add    %al,0x41(%rdi)
  40a5a2:	24 05                	and    $0x5,%al
  40a5a4:	72 75                	jb     40a61b <_end+0x352b>
  40a5a6:	6e                   	outsb  %ds:(%rsi),(%dx)
  40a5a7:	6e                   	outsb  %ds:(%rsi),(%dx)
  40a5a8:	69 6e 67 20 67 63 63 	imul   $0x63636720,0x67(%rsi),%ebp
  40a5af:	20 31                	and    %dh,(%rcx)
  40a5b1:	31 2e                	xor    %ebp,(%rsi)
  40a5b3:	34 2e                	xor    $0x2e,%al
  40a5b5:	31 20                	xor    %esp,(%rax)
  40a5b7:	32 30                	xor    (%rax),%dh
  40a5b9:	32 33                	xor    (%rbx),%dh
  40a5bb:	30 36                	xor    %dh,(%rsi)
  40a5bd:	30 35 00 20 00 00    	xor    %dh,0x2000(%rip)        # 40c5c3 <_end+0x54d3>
  40a5c3:	00 00                	add    %al,(%rax)
  40a5c5:	00 00                	add    %al,(%rax)
  40a5c7:	00 00                	add    %al,(%rax)
  40a5c9:	01 00                	add    %eax,(%rax)
  40a5cb:	00 47 41             	add    %al,0x41(%rdi)
  40a5ce:	24 05                	and    $0x5,%al
  40a5d0:	61                   	(bad)  
  40a5d1:	6e                   	outsb  %ds:(%rsi),(%dx)
  40a5d2:	6e                   	outsb  %ds:(%rsi),(%dx)
  40a5d3:	6f                   	outsl  %ds:(%rsi),(%dx)
  40a5d4:	62                   	(bad)  
  40a5d5:	69 6e 20 67 63 63 20 	imul   $0x20636367,0x20(%rsi),%ebp
  40a5dc:	31 31                	xor    %esi,(%rcx)
  40a5de:	2e 33 2e             	cs xor (%rsi),%ebp
  40a5e1:	31 20                	xor    %esp,(%rax)
  40a5e3:	32 30                	xor    (%rax),%dh
  40a5e5:	32 32                	xor    (%rdx),%dh
  40a5e7:	31 31                	xor    %esi,(%rcx)
  40a5e9:	32 31                	xor    (%rcx),%dh
  40a5eb:	00 19                	add    %bl,(%rcx)
	...
  40a5f5:	01 00                	add    %eax,(%rax)
  40a5f7:	00 47 41             	add    %al,0x41(%rdi)
  40a5fa:	24 05                	and    $0x5,%al
  40a5fc:	70 6c                	jo     40a66a <_end+0x357a>
  40a5fe:	75 67                	jne    40a667 <_end+0x3577>
  40a600:	69 6e 20 6e 61 6d 65 	imul   $0x656d616e,0x20(%rsi),%ebp
  40a607:	3a 20                	cmp    (%rax),%ah
  40a609:	61                   	(bad)  
  40a60a:	6e                   	outsb  %ds:(%rsi),(%dx)
  40a60b:	6e                   	outsb  %ds:(%rsi),(%dx)
  40a60c:	6f                   	outsl  %ds:(%rsi),(%dx)
  40a60d:	62                   	(bad)  
  40a60e:	69 6e 00 00 00 00 0b 	imul   $0xb000000,0x0(%rsi),%ebp
	...
  40a61d:	01 00                	add    %eax,(%rax)
  40a61f:	00 47 41             	add    %al,0x41(%rdi)
  40a622:	2a 47 4f             	sub    0x4f(%rdi),%al
  40a625:	57                   	push   %rdi
  40a626:	00 6a 05             	add    %ch,0x5(%rdx)
  40a629:	22 00                	and    (%rax),%al
  40a62b:	00 06                	add    %al,(%rsi)
	...
  40a635:	01 00                	add    %eax,(%rax)
  40a637:	00 47 41             	add    %al,0x41(%rdi)
  40a63a:	2a 02                	sub    (%rdx),%al
  40a63c:	03 00                	add    (%rax),%eax
  40a63e:	00 00                	add    %al,(%rax)
  40a640:	0f 00 00             	sldt   (%rax)
  40a643:	00 00                	add    %al,(%rax)
  40a645:	00 00                	add    %al,(%rax)
  40a647:	00 00                	add    %al,(%rax)
  40a649:	01 00                	add    %eax,(%rax)
  40a64b:	00 47 41             	add    %al,0x41(%rdi)
  40a64e:	2b 73 74             	sub    0x74(%rbx),%esi
  40a651:	61                   	(bad)  
  40a652:	63 6b 5f             	movsxd 0x5f(%rbx),%ebp
  40a655:	63 6c 61 73          	movsxd 0x73(%rcx,%riz,2),%ebp
  40a659:	68 00 00 13 00       	push   $0x130000
  40a65e:	00 00                	add    %al,(%rax)
  40a660:	00 00                	add    %al,(%rax)
  40a662:	00 00                	add    %al,(%rax)
  40a664:	00 01                	add    %al,(%rcx)
  40a666:	00 00                	add    %al,(%rax)
  40a668:	47                   	rex.RXB
  40a669:	41 2a 63 66          	sub    0x66(%r11),%spl
  40a66d:	5f                   	pop    %rdi
  40a66e:	70 72                	jo     40a6e2 <_end+0x35f2>
  40a670:	6f                   	outsl  %ds:(%rsi),(%dx)
  40a671:	74 65                	je     40a6d8 <_end+0x35e8>
  40a673:	63 74 69 6f          	movsxd 0x6f(%rcx,%rbp,2),%esi
  40a677:	6e                   	outsb  %ds:(%rsi),(%dx)
  40a678:	00 08                	add    %cl,(%rax)
  40a67a:	00 00                	add    %al,(%rax)
  40a67c:	0d 00 00 00 00       	or     $0x0,%eax
  40a681:	00 00                	add    %al,(%rax)
  40a683:	00 00                	add    %al,(%rax)
  40a685:	01 00                	add    %eax,(%rax)
  40a687:	00 47 41             	add    %al,0x41(%rdi)
  40a68a:	2a 46 4f             	sub    0x4f(%rsi),%al
  40a68d:	52                   	push   %rdx
  40a68e:	54                   	push   %rsp
  40a68f:	49                   	rex.WB
  40a690:	46 59                	rex.RX pop %rcx
  40a692:	00 ff                	add    %bh,%bh
  40a694:	00 00                	add    %al,(%rax)
  40a696:	00 00                	add    %al,(%rax)
  40a698:	16                   	(bad)  
	...
  40a6a1:	01 00                	add    %eax,(%rax)
  40a6a3:	00 47 41             	add    %al,0x41(%rdi)
  40a6a6:	2b 47 4c             	sub    0x4c(%rdi),%eax
  40a6a9:	49                   	rex.WB
  40a6aa:	42                   	rex.X
  40a6ab:	43 58                	rex.XB pop %r8
  40a6ad:	58                   	pop    %rax
  40a6ae:	5f                   	pop    %rdi
  40a6af:	41 53                	push   %r11
  40a6b1:	53                   	push   %rbx
  40a6b2:	45 52                	rex.RB push %r10
  40a6b4:	54                   	push   %rsp
  40a6b5:	49                   	rex.WB
  40a6b6:	4f                   	rex.WRXB
  40a6b7:	4e 53                	rex.WRX push %rbx
  40a6b9:	00 00                	add    %al,(%rax)
  40a6bb:	00 06                	add    %al,(%rsi)
	...
  40a6c5:	01 00                	add    %eax,(%rax)
  40a6c7:	00 47 41             	add    %al,0x41(%rdi)
  40a6ca:	2a 07                	sub    (%rdi),%al
  40a6cc:	03 00                	add    (%rax),%eax
  40a6ce:	00 00                	add    %al,(%rax)
  40a6d0:	05 00 00 00 00       	add    $0x0,%eax
  40a6d5:	00 00                	add    %al,(%rax)
  40a6d7:	00 00                	add    %al,(%rax)
  40a6d9:	01 00                	add    %eax,(%rax)
  40a6db:	00 47 41             	add    %al,0x41(%rdi)
  40a6de:	21 08                	and    %ecx,(%rax)
  40a6e0:	00 00                	add    %al,(%rax)
  40a6e2:	00 00                	add    %al,(%rax)
  40a6e4:	16                   	(bad)  
	...
  40a6ed:	01 00                	add    %eax,(%rax)
  40a6ef:	00 47 41             	add    %al,0x41(%rdi)
  40a6f2:	2b 6f 6d             	sub    0x6d(%rdi),%ebp
  40a6f5:	69 74 5f 66 72 61 6d 	imul   $0x656d6172,0x66(%rdi,%rbx,2),%esi
  40a6fc:	65 
  40a6fd:	5f                   	pop    %rdi
  40a6fe:	70 6f                	jo     40a76f <_end+0x367f>
  40a700:	69 6e 74 65 72 00 00 	imul   $0x7265,0x74(%rsi),%ebp
  40a707:	00 09                	add    %cl,(%rcx)
	...
  40a711:	01 00                	add    %eax,(%rax)
  40a713:	00 47 41             	add    %al,0x41(%rdi)
  40a716:	2a 06                	sub    (%rsi),%al
  40a718:	12 00                	adc    (%rax),%al
  40a71a:	00 08                	add    %cl,(%rax)
  40a71c:	00 00                	add    %al,(%rax)
  40a71e:	00 00                	add    %al,(%rax)
  40a720:	11 00                	adc    %eax,(%rax)
  40a722:	00 00                	add    %al,(%rax)
  40a724:	00 00                	add    %al,(%rax)
  40a726:	00 00                	add    %al,(%rax)
  40a728:	00 01                	add    %al,(%rcx)
  40a72a:	00 00                	add    %al,(%rax)
  40a72c:	47                   	rex.RXB
  40a72d:	41 21 73 74          	and    %esi,0x74(%r11)
  40a731:	61                   	(bad)  
  40a732:	63 6b 5f             	movsxd 0x5f(%rbx),%ebp
  40a735:	72 65                	jb     40a79c <_end+0x36ac>
  40a737:	61                   	(bad)  
  40a738:	6c                   	insb   (%dx),%es:(%rdi)
  40a739:	69 67 6e 00 00 00 00 	imul   $0x0,0x6e(%rdi),%esp
  40a740:	0b 00                	or     (%rax),%eax
  40a742:	00 00                	add    %al,(%rax)
  40a744:	10 00                	adc    %al,(%rax)
  40a746:	00 00                	add    %al,(%rax)
  40a748:	00 01                	add    %al,(%rcx)
  40a74a:	00 00                	add    %al,(%rax)
  40a74c:	47                   	rex.RXB
  40a74d:	41 24 01             	rex.B and $0x1,%al
  40a750:	33 70 31             	xor    0x31(%rax),%esi
  40a753:	30 39                	xor    %bh,(%rcx)
  40a755:	33 00                	xor    (%rax),%eax
  40a757:	00 b0 11 40 00 00    	add    %dh,0x4011(%rax)
  40a75d:	00 00                	add    %al,(%rax)
  40a75f:	00 b0 11 40 00 00    	add    %dh,0x4011(%rax)
  40a765:	00 00                	add    %al,(%rax)
  40a767:	00 20                	add    %ah,(%rax)
	...
  40a771:	01 00                	add    %eax,(%rax)
  40a773:	00 47 41             	add    %al,0x41(%rdi)
  40a776:	24 05                	and    $0x5,%al
  40a778:	72 75                	jb     40a7ef <_end+0x36ff>
  40a77a:	6e                   	outsb  %ds:(%rsi),(%dx)
  40a77b:	6e                   	outsb  %ds:(%rsi),(%dx)
  40a77c:	69 6e 67 20 67 63 63 	imul   $0x63636720,0x67(%rsi),%ebp
  40a783:	20 31                	and    %dh,(%rcx)
  40a785:	31 2e                	xor    %ebp,(%rsi)
  40a787:	34 2e                	xor    $0x2e,%al
  40a789:	31 20                	xor    %esp,(%rax)
  40a78b:	32 30                	xor    (%rax),%dh
  40a78d:	32 33                	xor    (%rbx),%dh
  40a78f:	30 36                	xor    %dh,(%rsi)
  40a791:	30 35 00 20 00 00    	xor    %dh,0x2000(%rip)        # 40c797 <_end+0x56a7>
  40a797:	00 00                	add    %al,(%rax)
  40a799:	00 00                	add    %al,(%rax)
  40a79b:	00 00                	add    %al,(%rax)
  40a79d:	01 00                	add    %eax,(%rax)
  40a79f:	00 47 41             	add    %al,0x41(%rdi)
  40a7a2:	24 05                	and    $0x5,%al
  40a7a4:	61                   	(bad)  
  40a7a5:	6e                   	outsb  %ds:(%rsi),(%dx)
  40a7a6:	6e                   	outsb  %ds:(%rsi),(%dx)
  40a7a7:	6f                   	outsl  %ds:(%rsi),(%dx)
  40a7a8:	62                   	(bad)  
  40a7a9:	69 6e 20 67 63 63 20 	imul   $0x20636367,0x20(%rsi),%ebp
  40a7b0:	31 31                	xor    %esi,(%rcx)
  40a7b2:	2e 33 2e             	cs xor (%rsi),%ebp
  40a7b5:	31 20                	xor    %esp,(%rax)
  40a7b7:	32 30                	xor    (%rax),%dh
  40a7b9:	32 32                	xor    (%rdx),%dh
  40a7bb:	31 31                	xor    %esi,(%rcx)
  40a7bd:	32 31                	xor    (%rcx),%dh
  40a7bf:	00 19                	add    %bl,(%rcx)
	...
  40a7c9:	01 00                	add    %eax,(%rax)
  40a7cb:	00 47 41             	add    %al,0x41(%rdi)
  40a7ce:	24 05                	and    $0x5,%al
  40a7d0:	70 6c                	jo     40a83e <_end+0x374e>
  40a7d2:	75 67                	jne    40a83b <_end+0x374b>
  40a7d4:	69 6e 20 6e 61 6d 65 	imul   $0x656d616e,0x20(%rsi),%ebp
  40a7db:	3a 20                	cmp    (%rax),%ah
  40a7dd:	61                   	(bad)  
  40a7de:	6e                   	outsb  %ds:(%rsi),(%dx)
  40a7df:	6e                   	outsb  %ds:(%rsi),(%dx)
  40a7e0:	6f                   	outsl  %ds:(%rsi),(%dx)
  40a7e1:	62                   	(bad)  
  40a7e2:	69 6e 00 00 00 00 0b 	imul   $0xb000000,0x0(%rsi),%ebp
	...
  40a7f1:	01 00                	add    %eax,(%rax)
  40a7f3:	00 47 41             	add    %al,0x41(%rdi)
  40a7f6:	2a 47 4f             	sub    0x4f(%rdi),%al
  40a7f9:	57                   	push   %rdi
  40a7fa:	00 6a 05             	add    %ch,0x5(%rdx)
  40a7fd:	22 00                	and    (%rax),%al
  40a7ff:	00 06                	add    %al,(%rsi)
	...
  40a809:	01 00                	add    %eax,(%rax)
  40a80b:	00 47 41             	add    %al,0x41(%rdi)
  40a80e:	2a 02                	sub    (%rdx),%al
  40a810:	03 00                	add    (%rax),%eax
  40a812:	00 00                	add    %al,(%rax)
  40a814:	0f 00 00             	sldt   (%rax)
  40a817:	00 00                	add    %al,(%rax)
  40a819:	00 00                	add    %al,(%rax)
  40a81b:	00 00                	add    %al,(%rax)
  40a81d:	01 00                	add    %eax,(%rax)
  40a81f:	00 47 41             	add    %al,0x41(%rdi)
  40a822:	2b 73 74             	sub    0x74(%rbx),%esi
  40a825:	61                   	(bad)  
  40a826:	63 6b 5f             	movsxd 0x5f(%rbx),%ebp
  40a829:	63 6c 61 73          	movsxd 0x73(%rcx,%riz,2),%ebp
  40a82d:	68 00 00 13 00       	push   $0x130000
  40a832:	00 00                	add    %al,(%rax)
  40a834:	00 00                	add    %al,(%rax)
  40a836:	00 00                	add    %al,(%rax)
  40a838:	00 01                	add    %al,(%rcx)
  40a83a:	00 00                	add    %al,(%rax)
  40a83c:	47                   	rex.RXB
  40a83d:	41 2a 63 66          	sub    0x66(%r11),%spl
  40a841:	5f                   	pop    %rdi
  40a842:	70 72                	jo     40a8b6 <_end+0x37c6>
  40a844:	6f                   	outsl  %ds:(%rsi),(%dx)
  40a845:	74 65                	je     40a8ac <_end+0x37bc>
  40a847:	63 74 69 6f          	movsxd 0x6f(%rcx,%rbp,2),%esi
  40a84b:	6e                   	outsb  %ds:(%rsi),(%dx)
  40a84c:	00 08                	add    %cl,(%rax)
  40a84e:	00 00                	add    %al,(%rax)
  40a850:	0d 00 00 00 00       	or     $0x0,%eax
  40a855:	00 00                	add    %al,(%rax)
  40a857:	00 00                	add    %al,(%rax)
  40a859:	01 00                	add    %eax,(%rax)
  40a85b:	00 47 41             	add    %al,0x41(%rdi)
  40a85e:	2a 46 4f             	sub    0x4f(%rsi),%al
  40a861:	52                   	push   %rdx
  40a862:	54                   	push   %rsp
  40a863:	49                   	rex.WB
  40a864:	46 59                	rex.RX pop %rcx
  40a866:	00 ff                	add    %bh,%bh
  40a868:	00 00                	add    %al,(%rax)
  40a86a:	00 00                	add    %al,(%rax)
  40a86c:	16                   	(bad)  
	...
  40a875:	01 00                	add    %eax,(%rax)
  40a877:	00 47 41             	add    %al,0x41(%rdi)
  40a87a:	2b 47 4c             	sub    0x4c(%rdi),%eax
  40a87d:	49                   	rex.WB
  40a87e:	42                   	rex.X
  40a87f:	43 58                	rex.XB pop %r8
  40a881:	58                   	pop    %rax
  40a882:	5f                   	pop    %rdi
  40a883:	41 53                	push   %r11
  40a885:	53                   	push   %rbx
  40a886:	45 52                	rex.RB push %r10
  40a888:	54                   	push   %rsp
  40a889:	49                   	rex.WB
  40a88a:	4f                   	rex.WRXB
  40a88b:	4e 53                	rex.WRX push %rbx
  40a88d:	00 00                	add    %al,(%rax)
  40a88f:	00 06                	add    %al,(%rsi)
	...
  40a899:	01 00                	add    %eax,(%rax)
  40a89b:	00 47 41             	add    %al,0x41(%rdi)
  40a89e:	2a 07                	sub    (%rdi),%al
  40a8a0:	03 00                	add    (%rax),%eax
  40a8a2:	00 00                	add    %al,(%rax)
  40a8a4:	05 00 00 00 00       	add    $0x0,%eax
  40a8a9:	00 00                	add    %al,(%rax)
  40a8ab:	00 00                	add    %al,(%rax)
  40a8ad:	01 00                	add    %eax,(%rax)
  40a8af:	00 47 41             	add    %al,0x41(%rdi)
  40a8b2:	21 08                	and    %ecx,(%rax)
  40a8b4:	00 00                	add    %al,(%rax)
  40a8b6:	00 00                	add    %al,(%rax)
  40a8b8:	16                   	(bad)  
	...
  40a8c1:	01 00                	add    %eax,(%rax)
  40a8c3:	00 47 41             	add    %al,0x41(%rdi)
  40a8c6:	2b 6f 6d             	sub    0x6d(%rdi),%ebp
  40a8c9:	69 74 5f 66 72 61 6d 	imul   $0x656d6172,0x66(%rdi,%rbx,2),%esi
  40a8d0:	65 
  40a8d1:	5f                   	pop    %rdi
  40a8d2:	70 6f                	jo     40a943 <_end+0x3853>
  40a8d4:	69 6e 74 65 72 00 00 	imul   $0x7265,0x74(%rsi),%ebp
  40a8db:	00 09                	add    %cl,(%rcx)
	...
  40a8e5:	01 00                	add    %eax,(%rax)
  40a8e7:	00 47 41             	add    %al,0x41(%rdi)
  40a8ea:	2a 06                	sub    (%rsi),%al
  40a8ec:	12 00                	adc    (%rax),%al
  40a8ee:	00 08                	add    %cl,(%rax)
  40a8f0:	00 00                	add    %al,(%rax)
  40a8f2:	00 00                	add    %al,(%rax)
  40a8f4:	11 00                	adc    %eax,(%rax)
  40a8f6:	00 00                	add    %al,(%rax)
  40a8f8:	00 00                	add    %al,(%rax)
  40a8fa:	00 00                	add    %al,(%rax)
  40a8fc:	00 01                	add    %al,(%rcx)
  40a8fe:	00 00                	add    %al,(%rax)
  40a900:	47                   	rex.RXB
  40a901:	41 21 73 74          	and    %esi,0x74(%r11)
  40a905:	61                   	(bad)  
  40a906:	63 6b 5f             	movsxd 0x5f(%rbx),%ebp
  40a909:	72 65                	jb     40a970 <_end+0x3880>
  40a90b:	61                   	(bad)  
  40a90c:	6c                   	insb   (%dx),%es:(%rdi)
  40a90d:	69 67 6e 00 00 00 00 	imul   $0x0,0x6e(%rdi),%esp
  40a914:	0b 00                	or     (%rax),%eax
  40a916:	00 00                	add    %al,(%rax)
  40a918:	10 00                	adc    %al,(%rax)
  40a91a:	00 00                	add    %al,(%rax)
  40a91c:	00 01                	add    %al,(%rcx)
  40a91e:	00 00                	add    %al,(%rax)
  40a920:	47                   	rex.RXB
  40a921:	41 24 01             	rex.B and $0x1,%al
  40a924:	33 70 31             	xor    0x31(%rax),%esi
  40a927:	30 39                	xor    %bh,(%rcx)
  40a929:	33 00                	xor    (%rax),%eax
  40a92b:	00 b0 11 40 00 00    	add    %dh,0x4011(%rax)
  40a931:	00 00                	add    %al,(%rax)
  40a933:	00 b0 11 40 00 00    	add    %dh,0x4011(%rax)
  40a939:	00 00                	add    %al,(%rax)
  40a93b:	00 20                	add    %ah,(%rax)
	...
  40a945:	01 00                	add    %eax,(%rax)
  40a947:	00 47 41             	add    %al,0x41(%rdi)
  40a94a:	24 05                	and    $0x5,%al
  40a94c:	72 75                	jb     40a9c3 <_end+0x38d3>
  40a94e:	6e                   	outsb  %ds:(%rsi),(%dx)
  40a94f:	6e                   	outsb  %ds:(%rsi),(%dx)
  40a950:	69 6e 67 20 67 63 63 	imul   $0x63636720,0x67(%rsi),%ebp
  40a957:	20 31                	and    %dh,(%rcx)
  40a959:	31 2e                	xor    %ebp,(%rsi)
  40a95b:	34 2e                	xor    $0x2e,%al
  40a95d:	31 20                	xor    %esp,(%rax)
  40a95f:	32 30                	xor    (%rax),%dh
  40a961:	32 33                	xor    (%rbx),%dh
  40a963:	30 36                	xor    %dh,(%rsi)
  40a965:	30 35 00 20 00 00    	xor    %dh,0x2000(%rip)        # 40c96b <_end+0x587b>
  40a96b:	00 00                	add    %al,(%rax)
  40a96d:	00 00                	add    %al,(%rax)
  40a96f:	00 00                	add    %al,(%rax)
  40a971:	01 00                	add    %eax,(%rax)
  40a973:	00 47 41             	add    %al,0x41(%rdi)
  40a976:	24 05                	and    $0x5,%al
  40a978:	61                   	(bad)  
  40a979:	6e                   	outsb  %ds:(%rsi),(%dx)
  40a97a:	6e                   	outsb  %ds:(%rsi),(%dx)
  40a97b:	6f                   	outsl  %ds:(%rsi),(%dx)
  40a97c:	62                   	(bad)  
  40a97d:	69 6e 20 67 63 63 20 	imul   $0x20636367,0x20(%rsi),%ebp
  40a984:	31 31                	xor    %esi,(%rcx)
  40a986:	2e 33 2e             	cs xor (%rsi),%ebp
  40a989:	31 20                	xor    %esp,(%rax)
  40a98b:	32 30                	xor    (%rax),%dh
  40a98d:	32 32                	xor    (%rdx),%dh
  40a98f:	31 31                	xor    %esi,(%rcx)
  40a991:	32 31                	xor    (%rcx),%dh
  40a993:	00 19                	add    %bl,(%rcx)
	...
  40a99d:	01 00                	add    %eax,(%rax)
  40a99f:	00 47 41             	add    %al,0x41(%rdi)
  40a9a2:	24 05                	and    $0x5,%al
  40a9a4:	70 6c                	jo     40aa12 <_end+0x3922>
  40a9a6:	75 67                	jne    40aa0f <_end+0x391f>
  40a9a8:	69 6e 20 6e 61 6d 65 	imul   $0x656d616e,0x20(%rsi),%ebp
  40a9af:	3a 20                	cmp    (%rax),%ah
  40a9b1:	61                   	(bad)  
  40a9b2:	6e                   	outsb  %ds:(%rsi),(%dx)
  40a9b3:	6e                   	outsb  %ds:(%rsi),(%dx)
  40a9b4:	6f                   	outsl  %ds:(%rsi),(%dx)
  40a9b5:	62                   	(bad)  
  40a9b6:	69 6e 00 00 00 00 0b 	imul   $0xb000000,0x0(%rsi),%ebp
	...
  40a9c5:	01 00                	add    %eax,(%rax)
  40a9c7:	00 47 41             	add    %al,0x41(%rdi)
  40a9ca:	2a 47 4f             	sub    0x4f(%rdi),%al
  40a9cd:	57                   	push   %rdi
  40a9ce:	00 6a 05             	add    %ch,0x5(%rdx)
  40a9d1:	22 00                	and    (%rax),%al
  40a9d3:	00 06                	add    %al,(%rsi)
	...
  40a9dd:	01 00                	add    %eax,(%rax)
  40a9df:	00 47 41             	add    %al,0x41(%rdi)
  40a9e2:	2a 02                	sub    (%rdx),%al
  40a9e4:	03 00                	add    (%rax),%eax
  40a9e6:	00 00                	add    %al,(%rax)
  40a9e8:	0f 00 00             	sldt   (%rax)
  40a9eb:	00 00                	add    %al,(%rax)
  40a9ed:	00 00                	add    %al,(%rax)
  40a9ef:	00 00                	add    %al,(%rax)
  40a9f1:	01 00                	add    %eax,(%rax)
  40a9f3:	00 47 41             	add    %al,0x41(%rdi)
  40a9f6:	2b 73 74             	sub    0x74(%rbx),%esi
  40a9f9:	61                   	(bad)  
  40a9fa:	63 6b 5f             	movsxd 0x5f(%rbx),%ebp
  40a9fd:	63 6c 61 73          	movsxd 0x73(%rcx,%riz,2),%ebp
  40aa01:	68 00 00 13 00       	push   $0x130000
  40aa06:	00 00                	add    %al,(%rax)
  40aa08:	00 00                	add    %al,(%rax)
  40aa0a:	00 00                	add    %al,(%rax)
  40aa0c:	00 01                	add    %al,(%rcx)
  40aa0e:	00 00                	add    %al,(%rax)
  40aa10:	47                   	rex.RXB
  40aa11:	41 2a 63 66          	sub    0x66(%r11),%spl
  40aa15:	5f                   	pop    %rdi
  40aa16:	70 72                	jo     40aa8a <_end+0x399a>
  40aa18:	6f                   	outsl  %ds:(%rsi),(%dx)
  40aa19:	74 65                	je     40aa80 <_end+0x3990>
  40aa1b:	63 74 69 6f          	movsxd 0x6f(%rcx,%rbp,2),%esi
  40aa1f:	6e                   	outsb  %ds:(%rsi),(%dx)
  40aa20:	00 08                	add    %cl,(%rax)
  40aa22:	00 00                	add    %al,(%rax)
  40aa24:	0d 00 00 00 00       	or     $0x0,%eax
  40aa29:	00 00                	add    %al,(%rax)
  40aa2b:	00 00                	add    %al,(%rax)
  40aa2d:	01 00                	add    %eax,(%rax)
  40aa2f:	00 47 41             	add    %al,0x41(%rdi)
  40aa32:	2a 46 4f             	sub    0x4f(%rsi),%al
  40aa35:	52                   	push   %rdx
  40aa36:	54                   	push   %rsp
  40aa37:	49                   	rex.WB
  40aa38:	46 59                	rex.RX pop %rcx
  40aa3a:	00 ff                	add    %bh,%bh
  40aa3c:	00 00                	add    %al,(%rax)
  40aa3e:	00 00                	add    %al,(%rax)
  40aa40:	16                   	(bad)  
	...
  40aa49:	01 00                	add    %eax,(%rax)
  40aa4b:	00 47 41             	add    %al,0x41(%rdi)
  40aa4e:	2b 47 4c             	sub    0x4c(%rdi),%eax
  40aa51:	49                   	rex.WB
  40aa52:	42                   	rex.X
  40aa53:	43 58                	rex.XB pop %r8
  40aa55:	58                   	pop    %rax
  40aa56:	5f                   	pop    %rdi
  40aa57:	41 53                	push   %r11
  40aa59:	53                   	push   %rbx
  40aa5a:	45 52                	rex.RB push %r10
  40aa5c:	54                   	push   %rsp
  40aa5d:	49                   	rex.WB
  40aa5e:	4f                   	rex.WRXB
  40aa5f:	4e 53                	rex.WRX push %rbx
  40aa61:	00 00                	add    %al,(%rax)
  40aa63:	00 06                	add    %al,(%rsi)
	...
  40aa6d:	01 00                	add    %eax,(%rax)
  40aa6f:	00 47 41             	add    %al,0x41(%rdi)
  40aa72:	2a 07                	sub    (%rdi),%al
  40aa74:	03 00                	add    (%rax),%eax
  40aa76:	00 00                	add    %al,(%rax)
  40aa78:	05 00 00 00 00       	add    $0x0,%eax
  40aa7d:	00 00                	add    %al,(%rax)
  40aa7f:	00 00                	add    %al,(%rax)
  40aa81:	01 00                	add    %eax,(%rax)
  40aa83:	00 47 41             	add    %al,0x41(%rdi)
  40aa86:	21 08                	and    %ecx,(%rax)
  40aa88:	00 00                	add    %al,(%rax)
  40aa8a:	00 00                	add    %al,(%rax)
  40aa8c:	16                   	(bad)  
	...
  40aa95:	01 00                	add    %eax,(%rax)
  40aa97:	00 47 41             	add    %al,0x41(%rdi)
  40aa9a:	2b 6f 6d             	sub    0x6d(%rdi),%ebp
  40aa9d:	69 74 5f 66 72 61 6d 	imul   $0x656d6172,0x66(%rdi,%rbx,2),%esi
  40aaa4:	65 
  40aaa5:	5f                   	pop    %rdi
  40aaa6:	70 6f                	jo     40ab17 <_end+0x3a27>
  40aaa8:	69 6e 74 65 72 00 00 	imul   $0x7265,0x74(%rsi),%ebp
  40aaaf:	00 09                	add    %cl,(%rcx)
	...
  40aab9:	01 00                	add    %eax,(%rax)
  40aabb:	00 47 41             	add    %al,0x41(%rdi)
  40aabe:	2a 06                	sub    (%rsi),%al
  40aac0:	12 00                	adc    (%rax),%al
  40aac2:	00 08                	add    %cl,(%rax)
  40aac4:	00 00                	add    %al,(%rax)
  40aac6:	00 00                	add    %al,(%rax)
  40aac8:	11 00                	adc    %eax,(%rax)
  40aaca:	00 00                	add    %al,(%rax)
  40aacc:	00 00                	add    %al,(%rax)
  40aace:	00 00                	add    %al,(%rax)
  40aad0:	00 01                	add    %al,(%rcx)
  40aad2:	00 00                	add    %al,(%rax)
  40aad4:	47                   	rex.RXB
  40aad5:	41 21 73 74          	and    %esi,0x74(%r11)
  40aad9:	61                   	(bad)  
  40aada:	63 6b 5f             	movsxd 0x5f(%rbx),%ebp
  40aadd:	72 65                	jb     40ab44 <_end+0x3a54>
  40aadf:	61                   	(bad)  
  40aae0:	6c                   	insb   (%dx),%es:(%rdi)
  40aae1:	69 67 6e 00 00 00 00 	imul   $0x0,0x6e(%rdi),%esp
  40aae8:	0b 00                	or     (%rax),%eax
  40aaea:	00 00                	add    %al,(%rax)
  40aaec:	10 00                	adc    %al,(%rax)
  40aaee:	00 00                	add    %al,(%rax)
  40aaf0:	00 01                	add    %al,(%rcx)
  40aaf2:	00 00                	add    %al,(%rax)
  40aaf4:	47                   	rex.RXB
  40aaf5:	41 24 01             	rex.B and $0x1,%al
  40aaf8:	33 70 31             	xor    0x31(%rax),%esi
  40aafb:	30 39                	xor    %bh,(%rcx)
  40aafd:	33 00                	xor    (%rax),%eax
  40aaff:	00 b0 11 40 00 00    	add    %dh,0x4011(%rax)
  40ab05:	00 00                	add    %al,(%rax)
  40ab07:	00 b0 11 40 00 00    	add    %dh,0x4011(%rax)
  40ab0d:	00 00                	add    %al,(%rax)
  40ab0f:	00 20                	add    %ah,(%rax)
	...
  40ab19:	01 00                	add    %eax,(%rax)
  40ab1b:	00 47 41             	add    %al,0x41(%rdi)
  40ab1e:	24 05                	and    $0x5,%al
  40ab20:	72 75                	jb     40ab97 <_end+0x3aa7>
  40ab22:	6e                   	outsb  %ds:(%rsi),(%dx)
  40ab23:	6e                   	outsb  %ds:(%rsi),(%dx)
  40ab24:	69 6e 67 20 67 63 63 	imul   $0x63636720,0x67(%rsi),%ebp
  40ab2b:	20 31                	and    %dh,(%rcx)
  40ab2d:	31 2e                	xor    %ebp,(%rsi)
  40ab2f:	34 2e                	xor    $0x2e,%al
  40ab31:	31 20                	xor    %esp,(%rax)
  40ab33:	32 30                	xor    (%rax),%dh
  40ab35:	32 33                	xor    (%rbx),%dh
  40ab37:	30 36                	xor    %dh,(%rsi)
  40ab39:	30 35 00 20 00 00    	xor    %dh,0x2000(%rip)        # 40cb3f <_end+0x5a4f>
  40ab3f:	00 00                	add    %al,(%rax)
  40ab41:	00 00                	add    %al,(%rax)
  40ab43:	00 00                	add    %al,(%rax)
  40ab45:	01 00                	add    %eax,(%rax)
  40ab47:	00 47 41             	add    %al,0x41(%rdi)
  40ab4a:	24 05                	and    $0x5,%al
  40ab4c:	61                   	(bad)  
  40ab4d:	6e                   	outsb  %ds:(%rsi),(%dx)
  40ab4e:	6e                   	outsb  %ds:(%rsi),(%dx)
  40ab4f:	6f                   	outsl  %ds:(%rsi),(%dx)
  40ab50:	62                   	(bad)  
  40ab51:	69 6e 20 67 63 63 20 	imul   $0x20636367,0x20(%rsi),%ebp
  40ab58:	31 31                	xor    %esi,(%rcx)
  40ab5a:	2e 33 2e             	cs xor (%rsi),%ebp
  40ab5d:	31 20                	xor    %esp,(%rax)
  40ab5f:	32 30                	xor    (%rax),%dh
  40ab61:	32 32                	xor    (%rdx),%dh
  40ab63:	31 31                	xor    %esi,(%rcx)
  40ab65:	32 31                	xor    (%rcx),%dh
  40ab67:	00 19                	add    %bl,(%rcx)
	...
  40ab71:	01 00                	add    %eax,(%rax)
  40ab73:	00 47 41             	add    %al,0x41(%rdi)
  40ab76:	24 05                	and    $0x5,%al
  40ab78:	70 6c                	jo     40abe6 <_end+0x3af6>
  40ab7a:	75 67                	jne    40abe3 <_end+0x3af3>
  40ab7c:	69 6e 20 6e 61 6d 65 	imul   $0x656d616e,0x20(%rsi),%ebp
  40ab83:	3a 20                	cmp    (%rax),%ah
  40ab85:	61                   	(bad)  
  40ab86:	6e                   	outsb  %ds:(%rsi),(%dx)
  40ab87:	6e                   	outsb  %ds:(%rsi),(%dx)
  40ab88:	6f                   	outsl  %ds:(%rsi),(%dx)
  40ab89:	62                   	(bad)  
  40ab8a:	69 6e 00 00 00 00 0b 	imul   $0xb000000,0x0(%rsi),%ebp
	...
  40ab99:	01 00                	add    %eax,(%rax)
  40ab9b:	00 47 41             	add    %al,0x41(%rdi)
  40ab9e:	2a 47 4f             	sub    0x4f(%rdi),%al
  40aba1:	57                   	push   %rdi
  40aba2:	00 6a 05             	add    %ch,0x5(%rdx)
  40aba5:	22 00                	and    (%rax),%al
  40aba7:	00 06                	add    %al,(%rsi)
	...
  40abb1:	01 00                	add    %eax,(%rax)
  40abb3:	00 47 41             	add    %al,0x41(%rdi)
  40abb6:	2a 02                	sub    (%rdx),%al
  40abb8:	03 00                	add    (%rax),%eax
  40abba:	00 00                	add    %al,(%rax)
  40abbc:	0f 00 00             	sldt   (%rax)
  40abbf:	00 00                	add    %al,(%rax)
  40abc1:	00 00                	add    %al,(%rax)
  40abc3:	00 00                	add    %al,(%rax)
  40abc5:	01 00                	add    %eax,(%rax)
  40abc7:	00 47 41             	add    %al,0x41(%rdi)
  40abca:	2b 73 74             	sub    0x74(%rbx),%esi
  40abcd:	61                   	(bad)  
  40abce:	63 6b 5f             	movsxd 0x5f(%rbx),%ebp
  40abd1:	63 6c 61 73          	movsxd 0x73(%rcx,%riz,2),%ebp
  40abd5:	68 00 00 13 00       	push   $0x130000
  40abda:	00 00                	add    %al,(%rax)
  40abdc:	00 00                	add    %al,(%rax)
  40abde:	00 00                	add    %al,(%rax)
  40abe0:	00 01                	add    %al,(%rcx)
  40abe2:	00 00                	add    %al,(%rax)
  40abe4:	47                   	rex.RXB
  40abe5:	41 2a 63 66          	sub    0x66(%r11),%spl
  40abe9:	5f                   	pop    %rdi
  40abea:	70 72                	jo     40ac5e <_end+0x3b6e>
  40abec:	6f                   	outsl  %ds:(%rsi),(%dx)
  40abed:	74 65                	je     40ac54 <_end+0x3b64>
  40abef:	63 74 69 6f          	movsxd 0x6f(%rcx,%rbp,2),%esi
  40abf3:	6e                   	outsb  %ds:(%rsi),(%dx)
  40abf4:	00 08                	add    %cl,(%rax)
  40abf6:	00 00                	add    %al,(%rax)
  40abf8:	0d 00 00 00 00       	or     $0x0,%eax
  40abfd:	00 00                	add    %al,(%rax)
  40abff:	00 00                	add    %al,(%rax)
  40ac01:	01 00                	add    %eax,(%rax)
  40ac03:	00 47 41             	add    %al,0x41(%rdi)
  40ac06:	2a 46 4f             	sub    0x4f(%rsi),%al
  40ac09:	52                   	push   %rdx
  40ac0a:	54                   	push   %rsp
  40ac0b:	49                   	rex.WB
  40ac0c:	46 59                	rex.RX pop %rcx
  40ac0e:	00 ff                	add    %bh,%bh
  40ac10:	00 00                	add    %al,(%rax)
  40ac12:	00 00                	add    %al,(%rax)
  40ac14:	16                   	(bad)  
	...
  40ac1d:	01 00                	add    %eax,(%rax)
  40ac1f:	00 47 41             	add    %al,0x41(%rdi)
  40ac22:	2b 47 4c             	sub    0x4c(%rdi),%eax
  40ac25:	49                   	rex.WB
  40ac26:	42                   	rex.X
  40ac27:	43 58                	rex.XB pop %r8
  40ac29:	58                   	pop    %rax
  40ac2a:	5f                   	pop    %rdi
  40ac2b:	41 53                	push   %r11
  40ac2d:	53                   	push   %rbx
  40ac2e:	45 52                	rex.RB push %r10
  40ac30:	54                   	push   %rsp
  40ac31:	49                   	rex.WB
  40ac32:	4f                   	rex.WRXB
  40ac33:	4e 53                	rex.WRX push %rbx
  40ac35:	00 00                	add    %al,(%rax)
  40ac37:	00 06                	add    %al,(%rsi)
	...
  40ac41:	01 00                	add    %eax,(%rax)
  40ac43:	00 47 41             	add    %al,0x41(%rdi)
  40ac46:	2a 07                	sub    (%rdi),%al
  40ac48:	03 00                	add    (%rax),%eax
  40ac4a:	00 00                	add    %al,(%rax)
  40ac4c:	05 00 00 00 00       	add    $0x0,%eax
  40ac51:	00 00                	add    %al,(%rax)
  40ac53:	00 00                	add    %al,(%rax)
  40ac55:	01 00                	add    %eax,(%rax)
  40ac57:	00 47 41             	add    %al,0x41(%rdi)
  40ac5a:	21 08                	and    %ecx,(%rax)
  40ac5c:	00 00                	add    %al,(%rax)
  40ac5e:	00 00                	add    %al,(%rax)
  40ac60:	16                   	(bad)  
	...
  40ac69:	01 00                	add    %eax,(%rax)
  40ac6b:	00 47 41             	add    %al,0x41(%rdi)
  40ac6e:	2b 6f 6d             	sub    0x6d(%rdi),%ebp
  40ac71:	69 74 5f 66 72 61 6d 	imul   $0x656d6172,0x66(%rdi,%rbx,2),%esi
  40ac78:	65 
  40ac79:	5f                   	pop    %rdi
  40ac7a:	70 6f                	jo     40aceb <_end+0x3bfb>
  40ac7c:	69 6e 74 65 72 00 00 	imul   $0x7265,0x74(%rsi),%ebp
  40ac83:	00 09                	add    %cl,(%rcx)
	...
  40ac8d:	01 00                	add    %eax,(%rax)
  40ac8f:	00 47 41             	add    %al,0x41(%rdi)
  40ac92:	2a 06                	sub    (%rsi),%al
  40ac94:	12 00                	adc    (%rax),%al
  40ac96:	00 08                	add    %cl,(%rax)
  40ac98:	00 00                	add    %al,(%rax)
  40ac9a:	00 00                	add    %al,(%rax)
  40ac9c:	11 00                	adc    %eax,(%rax)
  40ac9e:	00 00                	add    %al,(%rax)
  40aca0:	00 00                	add    %al,(%rax)
  40aca2:	00 00                	add    %al,(%rax)
  40aca4:	00 01                	add    %al,(%rcx)
  40aca6:	00 00                	add    %al,(%rax)
  40aca8:	47                   	rex.RXB
  40aca9:	41 21 73 74          	and    %esi,0x74(%r11)
  40acad:	61                   	(bad)  
  40acae:	63 6b 5f             	movsxd 0x5f(%rbx),%ebp
  40acb1:	72 65                	jb     40ad18 <_end+0x3c28>
  40acb3:	61                   	(bad)  
  40acb4:	6c                   	insb   (%dx),%es:(%rdi)
  40acb5:	69 67 6e 00 00 00 00 	imul   $0x0,0x6e(%rdi),%esp
  40acbc:	08 00                	or     %al,(%rax)
  40acbe:	00 00                	add    %al,(%rax)
  40acc0:	10 00                	adc    %al,(%rax)
  40acc2:	00 00                	add    %al,(%rax)
  40acc4:	00 01                	add    %al,(%rcx)
  40acc6:	00 00                	add    %al,(%rax)
  40acc8:	47                   	rex.RXB
  40acc9:	41 24 01             	rex.B and $0x1,%al
  40accc:	33 61 31             	xor    0x31(%rcx),%esp
  40accf:	00 b0 11 40 00 00    	add    %dh,0x4011(%rax)
  40acd5:	00 00                	add    %al,(%rax)
  40acd7:	00 d6                	add    %dl,%dh
  40acd9:	11 40 00             	adc    %eax,0x0(%rax)
  40acdc:	00 00                	add    %al,(%rax)
  40acde:	00 00                	add    %al,(%rax)
  40ace0:	08 00                	or     %al,(%rax)
  40ace2:	00 00                	add    %al,(%rax)
  40ace4:	10 00                	adc    %al,(%rax)
  40ace6:	00 00                	add    %al,(%rax)
  40ace8:	00 01                	add    %al,(%rcx)
  40acea:	00 00                	add    %al,(%rax)
  40acec:	47                   	rex.RXB
  40aced:	41 24 01             	rex.B and $0x1,%al
  40acf0:	33 61 31             	xor    0x31(%rcx),%esp
  40acf3:	00 e5                	add    %ah,%ch
  40acf5:	11 40 00             	adc    %eax,0x0(%rax)
  40acf8:	00 00                	add    %al,(%rax)
  40acfa:	00 00                	add    %al,(%rax)
  40acfc:	e5 11                	in     $0x11,%eax
  40acfe:	40 00 00             	rex add %al,(%rax)
  40ad01:	00 00                	add    %al,(%rax)
  40ad03:	00 08                	add    %cl,(%rax)
  40ad05:	00 00                	add    %al,(%rax)
  40ad07:	00 10                	add    %dl,(%rax)
  40ad09:	00 00                	add    %al,(%rax)
  40ad0b:	00 00                	add    %al,(%rax)
  40ad0d:	01 00                	add    %eax,(%rax)
  40ad0f:	00 47 41             	add    %al,0x41(%rdi)
  40ad12:	24 01                	and    $0x1,%al
  40ad14:	33 61 31             	xor    0x31(%rcx),%esp
  40ad17:	00 00                	add    %al,(%rax)
  40ad19:	10 40 00             	adc    %al,0x0(%rax)
  40ad1c:	00 00                	add    %al,(%rax)
  40ad1e:	00 00                	add    %al,(%rax)
  40ad20:	16                   	(bad)  
  40ad21:	10 40 00             	adc    %al,0x0(%rax)
  40ad24:	00 00                	add    %al,(%rax)
  40ad26:	00 00                	add    %al,(%rax)
  40ad28:	08 00                	or     %al,(%rax)
  40ad2a:	00 00                	add    %al,(%rax)
  40ad2c:	10 00                	adc    %al,(%rax)
  40ad2e:	00 00                	add    %al,(%rax)
  40ad30:	00 01                	add    %al,(%rcx)
  40ad32:	00 00                	add    %al,(%rax)
  40ad34:	47                   	rex.RXB
  40ad35:	41 24 01             	rex.B and $0x1,%al
  40ad38:	33 61 31             	xor    0x31(%rcx),%esp
  40ad3b:	00 14 35 40 00 00 00 	add    %dl,0x40(,%rsi,1)
  40ad42:	00 00                	add    %al,(%rax)
  40ad44:	1c 35                	sbb    $0x35,%al
  40ad46:	40 00 00             	rex add %al,(%rax)
  40ad49:	00 00                	add    %al,(%rax)
  40ad4b:	00 08                	add    %cl,(%rax)
  40ad4d:	00 00                	add    %al,(%rax)
  40ad4f:	00 10                	add    %dl,(%rax)
  40ad51:	00 00                	add    %al,(%rax)
  40ad53:	00 00                	add    %al,(%rax)
  40ad55:	01 00                	add    %eax,(%rax)
  40ad57:	00 47 41             	add    %al,0x41(%rdi)
  40ad5a:	24 01                	and    $0x1,%al
  40ad5c:	33 61 31             	xor    0x31(%rcx),%esp
  40ad5f:	00 f0                	add    %dh,%al
  40ad61:	11 40 00             	adc    %eax,0x0(%rax)
  40ad64:	00 00                	add    %al,(%rax)
  40ad66:	00 00                	add    %al,(%rax)
  40ad68:	96                   	xchg   %eax,%esi
  40ad69:	12 40 00             	adc    0x0(%rax),%al
  40ad6c:	00 00                	add    %al,(%rax)
  40ad6e:	00 00                	add    %al,(%rax)
  40ad70:	08 00                	or     %al,(%rax)
  40ad72:	00 00                	add    %al,(%rax)
  40ad74:	10 00                	adc    %al,(%rax)
  40ad76:	00 00                	add    %al,(%rax)
  40ad78:	00 01                	add    %al,(%rcx)
  40ad7a:	00 00                	add    %al,(%rax)
  40ad7c:	47                   	rex.RXB
  40ad7d:	41 24 01             	rex.B and $0x1,%al
  40ad80:	33 61 31             	xor    0x31(%rcx),%esp
  40ad83:	00 11                	add    %dl,(%rcx)
  40ad85:	35 40 00 00 00       	xor    $0x40,%eax
  40ad8a:	00 00                	add    %al,(%rax)
  40ad8c:	11 35 40 00 00 00    	adc    %esi,0x40(%rip)        # 40add2 <_end+0x3ce2>
  40ad92:	00 00                	add    %al,(%rax)
  40ad94:	08 00                	or     %al,(%rax)
  40ad96:	00 00                	add    %al,(%rax)
  40ad98:	10 00                	adc    %al,(%rax)
  40ad9a:	00 00                	add    %al,(%rax)
  40ad9c:	00 01                	add    %al,(%rcx)
  40ad9e:	00 00                	add    %al,(%rax)
  40ada0:	47                   	rex.RXB
  40ada1:	41 24 01             	rex.B and $0x1,%al
  40ada4:	33 61 31             	xor    0x31(%rcx),%esp
  40ada7:	00 11                	add    %dl,(%rcx)
  40ada9:	35 40 00 00 00       	xor    $0x40,%eax
  40adae:	00 00                	add    %al,(%rax)
  40adb0:	11 35 40 00 00 00    	adc    %esi,0x40(%rip)        # 40adf6 <_end+0x3d06>
  40adb6:	00 00                	add    %al,(%rax)
  40adb8:	08 00                	or     %al,(%rax)
  40adba:	00 00                	add    %al,(%rax)
  40adbc:	10 00                	adc    %al,(%rax)
  40adbe:	00 00                	add    %al,(%rax)
  40adc0:	00 01                	add    %al,(%rcx)
  40adc2:	00 00                	add    %al,(%rax)
  40adc4:	47                   	rex.RXB
  40adc5:	41 24 01             	rex.B and $0x1,%al
  40adc8:	33 61 31             	xor    0x31(%rcx),%esp
  40adcb:	00 16                	add    %dl,(%rsi)
  40adcd:	10 40 00             	adc    %al,0x0(%rax)
  40add0:	00 00                	add    %al,(%rax)
  40add2:	00 00                	add    %al,(%rax)
  40add4:	1b 10                	sbb    (%rax),%edx
  40add6:	40 00 00             	rex add %al,(%rax)
  40add9:	00 00                	add    %al,(%rax)
  40addb:	00 08                	add    %cl,(%rax)
  40addd:	00 00                	add    %al,(%rax)
  40addf:	00 10                	add    %dl,(%rax)
  40ade1:	00 00                	add    %al,(%rax)
  40ade3:	00 00                	add    %al,(%rax)
  40ade5:	01 00                	add    %eax,(%rax)
  40ade7:	00 47 41             	add    %al,0x41(%rdi)
  40adea:	24 01                	and    $0x1,%al
  40adec:	33 61 31             	xor    0x31(%rcx),%esp
  40adef:	00 1c 35 40 00 00 00 	add    %bl,0x40(,%rsi,1)
  40adf6:	00 00                	add    %al,(%rax)
  40adf8:	21 35 40 00 00 00    	and    %esi,0x40(%rip)        # 40ae3e <_end+0x3d4e>
	...
