
chal:     file format elf64-x86-64


Disassembly of section .init:

0000000000401000 <_init>:
  401000:	f3 0f 1e fa          	endbr64 
  401004:	48 83 ec 08          	sub    $0x8,%rsp
  401008:	48 8b 05 d1 5f 00 00 	mov    0x5fd1(%rip),%rax        # 406fe0 <__gmon_start__@Base>
  40100f:	48 85 c0             	test   %rax,%rax
  401012:	74 02                	je     401016 <_init+0x16>
  401014:	ff d0                	call   *%rax
  401016:	48 83 c4 08          	add    $0x8,%rsp
  40101a:	c3                   	ret    

Disassembly of section .plt:

0000000000401020 <setvbuf@plt-0x10>:
  401020:	ff 35 ca 5f 00 00    	push   0x5fca(%rip)        # 406ff0 <_GLOBAL_OFFSET_TABLE_+0x8>
  401026:	ff 25 cc 5f 00 00    	jmp    *0x5fcc(%rip)        # 406ff8 <_GLOBAL_OFFSET_TABLE_+0x10>
  40102c:	0f 1f 40 00          	nopl   0x0(%rax)

0000000000401030 <setvbuf@plt>:
  401030:	ff 25 ca 5f 00 00    	jmp    *0x5fca(%rip)        # 407000 <setvbuf@GLIBC_2.2.5>
  401036:	68 00 00 00 00       	push   $0x0
  40103b:	e9 e0 ff ff ff       	jmp    401020 <_init+0x20>

0000000000401040 <printf@plt>:
  401040:	ff 25 c2 5f 00 00    	jmp    *0x5fc2(%rip)        # 407008 <printf@GLIBC_2.2.5>
  401046:	68 01 00 00 00       	push   $0x1
  40104b:	e9 d0 ff ff ff       	jmp    401020 <_init+0x20>

0000000000401050 <rand@plt>:
  401050:	ff 25 ba 5f 00 00    	jmp    *0x5fba(%rip)        # 407010 <rand@GLIBC_2.2.5>
  401056:	68 02 00 00 00       	push   $0x2
  40105b:	e9 c0 ff ff ff       	jmp    401020 <_init+0x20>

0000000000401060 <_ZSt17__throw_bad_allocv@plt>:
  401060:	ff 25 b2 5f 00 00    	jmp    *0x5fb2(%rip)        # 407018 <_ZSt17__throw_bad_allocv@GLIBCXX_3.4>
  401066:	68 03 00 00 00       	push   $0x3
  40106b:	e9 b0 ff ff ff       	jmp    401020 <_init+0x20>

0000000000401070 <__cxa_begin_catch@plt>:
  401070:	ff 25 aa 5f 00 00    	jmp    *0x5faa(%rip)        # 407020 <__cxa_begin_catch@CXXABI_1.3>
  401076:	68 04 00 00 00       	push   $0x4
  40107b:	e9 a0 ff ff ff       	jmp    401020 <_init+0x20>

0000000000401080 <strlen@plt>:
  401080:	ff 25 a2 5f 00 00    	jmp    *0x5fa2(%rip)        # 407028 <strlen@GLIBC_2.2.5>
  401086:	68 05 00 00 00       	push   $0x5
  40108b:	e9 90 ff ff ff       	jmp    401020 <_init+0x20>

0000000000401090 <_ZSt20__throw_length_errorPKc@plt>:
  401090:	ff 25 9a 5f 00 00    	jmp    *0x5f9a(%rip)        # 407030 <_ZSt20__throw_length_errorPKc@GLIBCXX_3.4>
  401096:	68 06 00 00 00       	push   $0x6
  40109b:	e9 80 ff ff ff       	jmp    401020 <_init+0x20>

00000000004010a0 <_ZSt28__throw_bad_array_new_lengthv@plt>:
  4010a0:	ff 25 92 5f 00 00    	jmp    *0x5f92(%rip)        # 407038 <_ZSt28__throw_bad_array_new_lengthv@GLIBCXX_3.4.29>
  4010a6:	68 07 00 00 00       	push   $0x7
  4010ab:	e9 70 ff ff ff       	jmp    401020 <_init+0x20>

00000000004010b0 <__cxa_atexit@plt>:
  4010b0:	ff 25 8a 5f 00 00    	jmp    *0x5f8a(%rip)        # 407040 <__cxa_atexit@GLIBC_2.2.5>
  4010b6:	68 08 00 00 00       	push   $0x8
  4010bb:	e9 60 ff ff ff       	jmp    401020 <_init+0x20>

00000000004010c0 <time@plt>:
  4010c0:	ff 25 82 5f 00 00    	jmp    *0x5f82(%rip)        # 407048 <time@GLIBC_2.2.5>
  4010c6:	68 09 00 00 00       	push   $0x9
  4010cb:	e9 50 ff ff ff       	jmp    401020 <_init+0x20>

00000000004010d0 <_ZdlPv@plt>:
  4010d0:	ff 25 7a 5f 00 00    	jmp    *0x5f7a(%rip)        # 407050 <_ZdlPv@GLIBCXX_3.4>
  4010d6:	68 0a 00 00 00       	push   $0xa
  4010db:	e9 40 ff ff ff       	jmp    401020 <_init+0x20>

00000000004010e0 <srand@plt>:
  4010e0:	ff 25 72 5f 00 00    	jmp    *0x5f72(%rip)        # 407058 <srand@GLIBC_2.2.5>
  4010e6:	68 0b 00 00 00       	push   $0xb
  4010eb:	e9 30 ff ff ff       	jmp    401020 <_init+0x20>

00000000004010f0 <_Znwm@plt>:
  4010f0:	ff 25 6a 5f 00 00    	jmp    *0x5f6a(%rip)        # 407060 <_Znwm@GLIBCXX_3.4>
  4010f6:	68 0c 00 00 00       	push   $0xc
  4010fb:	e9 20 ff ff ff       	jmp    401020 <_init+0x20>

0000000000401100 <free@plt>:
  401100:	ff 25 62 5f 00 00    	jmp    *0x5f62(%rip)        # 407068 <free@GLIBC_2.2.5>
  401106:	68 0d 00 00 00       	push   $0xd
  40110b:	e9 10 ff ff ff       	jmp    401020 <_init+0x20>

0000000000401110 <getline@plt>:
  401110:	ff 25 5a 5f 00 00    	jmp    *0x5f5a(%rip)        # 407070 <getline@GLIBC_2.2.5>
  401116:	68 0e 00 00 00       	push   $0xe
  40111b:	e9 00 ff ff ff       	jmp    401020 <_init+0x20>

0000000000401120 <putchar@plt>:
  401120:	ff 25 52 5f 00 00    	jmp    *0x5f52(%rip)        # 407078 <putchar@GLIBC_2.2.5>
  401126:	68 0f 00 00 00       	push   $0xf
  40112b:	e9 f0 fe ff ff       	jmp    401020 <_init+0x20>

0000000000401130 <__cxa_rethrow@plt>:
  401130:	ff 25 4a 5f 00 00    	jmp    *0x5f4a(%rip)        # 407080 <__cxa_rethrow@CXXABI_1.3>
  401136:	68 10 00 00 00       	push   $0x10
  40113b:	e9 e0 fe ff ff       	jmp    401020 <_init+0x20>

0000000000401140 <_ZNSt8ios_base4InitC1Ev@plt>:
  401140:	ff 25 42 5f 00 00    	jmp    *0x5f42(%rip)        # 407088 <_ZNSt8ios_base4InitC1Ev@GLIBCXX_3.4>
  401146:	68 11 00 00 00       	push   $0x11
  40114b:	e9 d0 fe ff ff       	jmp    401020 <_init+0x20>

0000000000401150 <puts@plt>:
  401150:	ff 25 3a 5f 00 00    	jmp    *0x5f3a(%rip)        # 407090 <puts@GLIBC_2.2.5>
  401156:	68 12 00 00 00       	push   $0x12
  40115b:	e9 c0 fe ff ff       	jmp    401020 <_init+0x20>

0000000000401160 <__cxa_end_catch@plt>:
  401160:	ff 25 32 5f 00 00    	jmp    *0x5f32(%rip)        # 407098 <__cxa_end_catch@CXXABI_1.3>
  401166:	68 13 00 00 00       	push   $0x13
  40116b:	e9 b0 fe ff ff       	jmp    401020 <_init+0x20>

0000000000401170 <__gxx_personality_v0@plt>:
  401170:	ff 25 2a 5f 00 00    	jmp    *0x5f2a(%rip)        # 4070a0 <__gxx_personality_v0@CXXABI_1.3>
  401176:	68 14 00 00 00       	push   $0x14
  40117b:	e9 a0 fe ff ff       	jmp    401020 <_init+0x20>

0000000000401180 <_Unwind_Resume@plt>:
  401180:	ff 25 22 5f 00 00    	jmp    *0x5f22(%rip)        # 4070a8 <_Unwind_Resume@GCC_3.0>
  401186:	68 15 00 00 00       	push   $0x15
  40118b:	e9 90 fe ff ff       	jmp    401020 <_init+0x20>

0000000000401190 <alarm@plt>:
  401190:	ff 25 1a 5f 00 00    	jmp    *0x5f1a(%rip)        # 4070b0 <alarm@GLIBC_2.2.5>
  401196:	68 16 00 00 00       	push   $0x16
  40119b:	e9 80 fe ff ff       	jmp    401020 <_init+0x20>

00000000004011a0 <_ZNSt8ios_base4InitD1Ev@plt>:
  4011a0:	ff 25 12 5f 00 00    	jmp    *0x5f12(%rip)        # 4070b8 <_ZNSt8ios_base4InitD1Ev@GLIBCXX_3.4>
  4011a6:	68 17 00 00 00       	push   $0x17
  4011ab:	e9 70 fe ff ff       	jmp    401020 <_init+0x20>

Disassembly of section .text:

00000000004011b0 <_start>:
  4011b0:	f3 0f 1e fa          	endbr64 
  4011b4:	31 ed                	xor    %ebp,%ebp
  4011b6:	49 89 d1             	mov    %rdx,%r9
  4011b9:	5e                   	pop    %rsi
  4011ba:	48 89 e2             	mov    %rsp,%rdx
  4011bd:	48 83 e4 f0          	and    $0xfffffffffffffff0,%rsp
  4011c1:	50                   	push   %rax
  4011c2:	54                   	push   %rsp
  4011c3:	45 31 c0             	xor    %r8d,%r8d
  4011c6:	31 c9                	xor    %ecx,%ecx
  4011c8:	48 c7 c7 96 12 40 00 	mov    $0x401296,%rdi
  4011cf:	ff 15 03 5e 00 00    	call   *0x5e03(%rip)        # 406fd8 <__libc_start_main@GLIBC_2.34>
  4011d5:	f4                   	hlt    

00000000004011d6 <.annobin_abi_note.c>:
  4011d6:	66 2e 0f 1f 84 00 00 	cs nopw 0x0(%rax,%rax,1)
  4011dd:	00 00 00 

00000000004011e0 <_dl_relocate_static_pie>:
  4011e0:	f3 0f 1e fa          	endbr64 
  4011e4:	c3                   	ret    

00000000004011e5 <.annobin__dl_relocate_static_pie.end>:
  4011e5:	66 2e 0f 1f 84 00 00 	cs nopw 0x0(%rax,%rax,1)
  4011ec:	00 00 00 
  4011ef:	90                   	nop

00000000004011f0 <deregister_tm_clones>:
  4011f0:	b8 d0 70 40 00       	mov    $0x4070d0,%eax
  4011f5:	48 3d d0 70 40 00    	cmp    $0x4070d0,%rax
  4011fb:	74 13                	je     401210 <deregister_tm_clones+0x20>
  4011fd:	b8 00 00 00 00       	mov    $0x0,%eax
  401202:	48 85 c0             	test   %rax,%rax
  401205:	74 09                	je     401210 <deregister_tm_clones+0x20>
  401207:	bf d0 70 40 00       	mov    $0x4070d0,%edi
  40120c:	ff e0                	jmp    *%rax
  40120e:	66 90                	xchg   %ax,%ax
  401210:	c3                   	ret    
  401211:	66 66 2e 0f 1f 84 00 	data16 cs nopw 0x0(%rax,%rax,1)
  401218:	00 00 00 00 
  40121c:	0f 1f 40 00          	nopl   0x0(%rax)

0000000000401220 <register_tm_clones>:
  401220:	be d0 70 40 00       	mov    $0x4070d0,%esi
  401225:	48 81 ee d0 70 40 00 	sub    $0x4070d0,%rsi
  40122c:	48 89 f0             	mov    %rsi,%rax
  40122f:	48 c1 ee 3f          	shr    $0x3f,%rsi
  401233:	48 c1 f8 03          	sar    $0x3,%rax
  401237:	48 01 c6             	add    %rax,%rsi
  40123a:	48 d1 fe             	sar    %rsi
  40123d:	74 11                	je     401250 <register_tm_clones+0x30>
  40123f:	b8 00 00 00 00       	mov    $0x0,%eax
  401244:	48 85 c0             	test   %rax,%rax
  401247:	74 07                	je     401250 <register_tm_clones+0x30>
  401249:	bf d0 70 40 00       	mov    $0x4070d0,%edi
  40124e:	ff e0                	jmp    *%rax
  401250:	c3                   	ret    
  401251:	66 66 2e 0f 1f 84 00 	data16 cs nopw 0x0(%rax,%rax,1)
  401258:	00 00 00 00 
  40125c:	0f 1f 40 00          	nopl   0x0(%rax)

0000000000401260 <__do_global_dtors_aux>:
  401260:	f3 0f 1e fa          	endbr64 
  401264:	80 3d 7d 5e 00 00 00 	cmpb   $0x0,0x5e7d(%rip)        # 4070e8 <completed.0>
  40126b:	75 13                	jne    401280 <__do_global_dtors_aux+0x20>
  40126d:	55                   	push   %rbp
  40126e:	48 89 e5             	mov    %rsp,%rbp
  401271:	e8 7a ff ff ff       	call   4011f0 <deregister_tm_clones>
  401276:	c6 05 6b 5e 00 00 01 	movb   $0x1,0x5e6b(%rip)        # 4070e8 <completed.0>
  40127d:	5d                   	pop    %rbp
  40127e:	c3                   	ret    
  40127f:	90                   	nop
  401280:	c3                   	ret    
  401281:	66 66 2e 0f 1f 84 00 	data16 cs nopw 0x0(%rax,%rax,1)
  401288:	00 00 00 00 
  40128c:	0f 1f 40 00          	nopl   0x0(%rax)

0000000000401290 <frame_dummy>:
  401290:	f3 0f 1e fa          	endbr64 
  401294:	eb 8a                	jmp    401220 <register_tm_clones>

0000000000401296 <main>:
  401296:	55                   	push   %rbp
  401297:	48 89 e5             	mov    %rsp,%rbp
  40129a:	53                   	push   %rbx
  40129b:	48 81 ec 98 00 00 00 	sub    $0x98,%rsp
  4012a2:	48 8b 05 27 5e 00 00 	mov    0x5e27(%rip),%rax        # 4070d0 <stdout@GLIBC_2.2.5>
  4012a9:	b9 00 00 00 00       	mov    $0x0,%ecx
  4012ae:	ba 02 00 00 00       	mov    $0x2,%edx
  4012b3:	be 00 00 00 00       	mov    $0x0,%esi
  4012b8:	48 89 c7             	mov    %rax,%rdi
  4012bb:	e8 70 fd ff ff       	call   401030 <setvbuf@plt>
  4012c0:	bf b4 00 00 00       	mov    $0xb4,%edi
  4012c5:	e8 c6 fe ff ff       	call   401190 <alarm@plt>
  4012ca:	48 8d 45 a0          	lea    -0x60(%rbp),%rax
  4012ce:	48 89 c7             	mov    %rax,%rdi
  4012d1:	e8 14 04 00 00       	call   4016ea <_ZN8Game2048C1Ev>
  4012d6:	48 8b 45 a0          	mov    -0x60(%rbp),%rax
  4012da:	48 8b 55 a8          	mov    -0x58(%rbp),%rdx
  4012de:	48 89 85 70 ff ff ff 	mov    %rax,-0x90(%rbp)
  4012e5:	48 89 95 78 ff ff ff 	mov    %rdx,-0x88(%rbp)
  4012ec:	48 8b 45 b0          	mov    -0x50(%rbp),%rax
  4012f0:	48 8b 55 b8          	mov    -0x48(%rbp),%rdx
  4012f4:	48 89 45 80          	mov    %rax,-0x80(%rbp)
  4012f8:	48 89 55 88          	mov    %rdx,-0x78(%rbp)
  4012fc:	0f b7 45 c0          	movzwl -0x40(%rbp),%eax
  401300:	66 89 45 90          	mov    %ax,-0x70(%rbp)
  401304:	48 8d 45 a0          	lea    -0x60(%rbp),%rax
  401308:	48 89 45 d0          	mov    %rax,-0x30(%rbp)
  40130c:	48 c7 85 68 ff ff ff 	movq   $0x0,-0x98(%rbp)
  401313:	00 00 00 00 
  401317:	48 c7 85 60 ff ff ff 	movq   $0x0,-0xa0(%rbp)
  40131e:	00 00 00 00 
  401322:	48 8b 45 d0          	mov    -0x30(%rbp),%rax
  401326:	48 89 c7             	mov    %rax,%rdi
  401329:	e8 ae 04 00 00       	call   4017dc <_ZNK8Game204810printBoardEv>
  40132e:	48 8b 45 d0          	mov    -0x30(%rbp),%rax
  401332:	48 89 c7             	mov    %rax,%rdi
  401335:	e8 26 09 00 00       	call   401c60 <_ZNK8Game20488checkWinEv>
  40133a:	84 c0                	test   %al,%al
  40133c:	74 23                	je     401361 <main+0xcb>
  40133e:	bf 30 40 40 00       	mov    $0x404030,%edi
  401343:	e8 08 fe ff ff       	call   401150 <puts@plt>
  401348:	48 8b 05 79 5d 00 00 	mov    0x5d79(%rip),%rax        # 4070c8 <FLAG>
  40134f:	48 89 c7             	mov    %rax,%rdi
  401352:	b8 00 00 00 00       	mov    $0x0,%eax
  401357:	e8 e4 fc ff ff       	call   401040 <printf@plt>
  40135c:	e9 52 02 00 00       	jmp    4015b3 <main+0x31d>
  401361:	48 8b 45 d0          	mov    -0x30(%rbp),%rax
  401365:	48 89 c7             	mov    %rax,%rdi
  401368:	e8 8b 07 00 00       	call   401af8 <_ZNK8Game20487canMoveEv>
  40136d:	83 f0 01             	xor    $0x1,%eax
  401370:	84 c0                	test   %al,%al
  401372:	74 0f                	je     401383 <main+0xed>
  401374:	bf 68 40 40 00       	mov    $0x404068,%edi
  401379:	e8 d2 fd ff ff       	call   401150 <puts@plt>
  40137e:	e9 30 02 00 00       	jmp    4015b3 <main+0x31d>
  401383:	bf 90 40 40 00       	mov    $0x404090,%edi
  401388:	b8 00 00 00 00       	mov    $0x0,%eax
  40138d:	e8 ae fc ff ff       	call   401040 <printf@plt>
  401392:	48 8b 15 47 5d 00 00 	mov    0x5d47(%rip),%rdx        # 4070e0 <stdin@GLIBC_2.2.5>
  401399:	48 8d 8d 60 ff ff ff 	lea    -0xa0(%rbp),%rcx
  4013a0:	48 8d 85 68 ff ff ff 	lea    -0x98(%rbp),%rax
  4013a7:	48 89 ce             	mov    %rcx,%rsi
  4013aa:	48 89 c7             	mov    %rax,%rdi
  4013ad:	e8 5e fd ff ff       	call   401110 <getline@plt>
  4013b2:	48 8b 85 68 ff ff ff 	mov    -0x98(%rbp),%rax
  4013b9:	48 89 c7             	mov    %rax,%rdi
  4013bc:	e8 bf fc ff ff       	call   401080 <strlen@plt>
  4013c1:	48 89 45 c8          	mov    %rax,-0x38(%rbp)
  4013c5:	48 8b 95 68 ff ff ff 	mov    -0x98(%rbp),%rdx
  4013cc:	48 8b 45 c8          	mov    -0x38(%rbp),%rax
  4013d0:	48 83 e8 01          	sub    $0x1,%rax
  4013d4:	48 01 d0             	add    %rdx,%rax
  4013d7:	0f b6 00             	movzbl (%rax),%eax
  4013da:	3c 0a                	cmp    $0xa,%al
  4013dc:	75 15                	jne    4013f3 <main+0x15d>
  4013de:	48 8b 95 68 ff ff ff 	mov    -0x98(%rbp),%rdx
  4013e5:	48 8b 45 c8          	mov    -0x38(%rbp),%rax
  4013e9:	48 83 e8 01          	sub    $0x1,%rax
  4013ed:	48 01 d0             	add    %rdx,%rax
  4013f0:	c6 00 00             	movb   $0x0,(%rax)
  4013f3:	c6 45 ef 01          	movb   $0x1,-0x11(%rbp)
  4013f7:	48 c7 45 e0 00 00 00 	movq   $0x0,-0x20(%rbp)
  4013fe:	00 
  4013ff:	e9 d4 00 00 00       	jmp    4014d8 <main+0x242>
  401404:	48 8b 95 68 ff ff ff 	mov    -0x98(%rbp),%rdx
  40140b:	48 8b 45 e0          	mov    -0x20(%rbp),%rax
  40140f:	48 01 d0             	add    %rdx,%rax
  401412:	0f b6 00             	movzbl (%rax),%eax
  401415:	3c 71                	cmp    $0x71,%al
  401417:	75 19                	jne    401432 <main+0x19c>
  401419:	48 8b 85 68 ff ff ff 	mov    -0x98(%rbp),%rax
  401420:	48 89 c7             	mov    %rax,%rdi
  401423:	e8 d8 fc ff ff       	call   401100 <free@plt>
  401428:	b8 00 00 00 00       	mov    $0x0,%eax
  40142d:	e9 95 01 00 00       	jmp    4015c7 <main+0x331>
  401432:	48 8b 95 68 ff ff ff 	mov    -0x98(%rbp),%rdx
  401439:	48 8b 45 e0          	mov    -0x20(%rbp),%rax
  40143d:	48 01 d0             	add    %rdx,%rax
  401440:	0f b6 00             	movzbl (%rax),%eax
  401443:	3c 75                	cmp    $0x75,%al
  401445:	75 32                	jne    401479 <main+0x1e3>
  401447:	48 8b 45 d0          	mov    -0x30(%rbp),%rax
  40144b:	48 8b 8d 70 ff ff ff 	mov    -0x90(%rbp),%rcx
  401452:	48 8b 9d 78 ff ff ff 	mov    -0x88(%rbp),%rbx
  401459:	48 89 08             	mov    %rcx,(%rax)
  40145c:	48 89 58 08          	mov    %rbx,0x8(%rax)
  401460:	48 8b 4d 80          	mov    -0x80(%rbp),%rcx
  401464:	48 8b 5d 88          	mov    -0x78(%rbp),%rbx
  401468:	48 89 48 10          	mov    %rcx,0x10(%rax)
  40146c:	48 89 58 18          	mov    %rbx,0x18(%rax)
  401470:	0f b6 55 90          	movzbl -0x70(%rbp),%edx
  401474:	88 50 20             	mov    %dl,0x20(%rax)
  401477:	eb 78                	jmp    4014f1 <main+0x25b>
  401479:	48 8b 95 68 ff ff ff 	mov    -0x98(%rbp),%rdx
  401480:	48 8b 45 e0          	mov    -0x20(%rbp),%rax
  401484:	48 01 d0             	add    %rdx,%rax
  401487:	0f b6 00             	movzbl (%rax),%eax
  40148a:	3c 77                	cmp    $0x77,%al
  40148c:	74 45                	je     4014d3 <main+0x23d>
  40148e:	48 8b 95 68 ff ff ff 	mov    -0x98(%rbp),%rdx
  401495:	48 8b 45 e0          	mov    -0x20(%rbp),%rax
  401499:	48 01 d0             	add    %rdx,%rax
  40149c:	0f b6 00             	movzbl (%rax),%eax
  40149f:	3c 61                	cmp    $0x61,%al
  4014a1:	74 30                	je     4014d3 <main+0x23d>
  4014a3:	48 8b 95 68 ff ff ff 	mov    -0x98(%rbp),%rdx
  4014aa:	48 8b 45 e0          	mov    -0x20(%rbp),%rax
  4014ae:	48 01 d0             	add    %rdx,%rax
  4014b1:	0f b6 00             	movzbl (%rax),%eax
  4014b4:	3c 73                	cmp    $0x73,%al
  4014b6:	74 1b                	je     4014d3 <main+0x23d>
  4014b8:	48 8b 95 68 ff ff ff 	mov    -0x98(%rbp),%rdx
  4014bf:	48 8b 45 e0          	mov    -0x20(%rbp),%rax
  4014c3:	48 01 d0             	add    %rdx,%rax
  4014c6:	0f b6 00             	movzbl (%rax),%eax
  4014c9:	3c 64                	cmp    $0x64,%al
  4014cb:	74 06                	je     4014d3 <main+0x23d>
  4014cd:	c6 45 ef 00          	movb   $0x0,-0x11(%rbp)
  4014d1:	eb 1e                	jmp    4014f1 <main+0x25b>
  4014d3:	48 83 45 e0 01       	addq   $0x1,-0x20(%rbp)
  4014d8:	48 8b 95 68 ff ff ff 	mov    -0x98(%rbp),%rdx
  4014df:	48 8b 45 e0          	mov    -0x20(%rbp),%rax
  4014e3:	48 01 d0             	add    %rdx,%rax
  4014e6:	0f b6 00             	movzbl (%rax),%eax
  4014e9:	84 c0                	test   %al,%al
  4014eb:	0f 85 13 ff ff ff    	jne    401404 <main+0x16e>
  4014f1:	80 7d ef 00          	cmpb   $0x0,-0x11(%rbp)
  4014f5:	74 78                	je     40156f <main+0x2d9>
  4014f7:	48 8b 45 a0          	mov    -0x60(%rbp),%rax
  4014fb:	48 8b 55 a8          	mov    -0x58(%rbp),%rdx
  4014ff:	48 89 85 70 ff ff ff 	mov    %rax,-0x90(%rbp)
  401506:	48 89 95 78 ff ff ff 	mov    %rdx,-0x88(%rbp)
  40150d:	48 8b 45 b0          	mov    -0x50(%rbp),%rax
  401511:	48 8b 55 b8          	mov    -0x48(%rbp),%rdx
  401515:	48 89 45 80          	mov    %rax,-0x80(%rbp)
  401519:	48 89 55 88          	mov    %rdx,-0x78(%rbp)
  40151d:	0f b6 45 c0          	movzbl -0x40(%rbp),%eax
  401521:	88 45 90             	mov    %al,-0x70(%rbp)
  401524:	48 c7 45 d8 00 00 00 	movq   $0x0,-0x28(%rbp)
  40152b:	00 
  40152c:	eb 27                	jmp    401555 <main+0x2bf>
  40152e:	48 8b 95 68 ff ff ff 	mov    -0x98(%rbp),%rdx
  401535:	48 8b 45 d8          	mov    -0x28(%rbp),%rax
  401539:	48 01 d0             	add    %rdx,%rax
  40153c:	0f b6 00             	movzbl (%rax),%eax
  40153f:	0f be d0             	movsbl %al,%edx
  401542:	48 8b 45 d0          	mov    -0x30(%rbp),%rax
  401546:	89 d6                	mov    %edx,%esi
  401548:	48 89 c7             	mov    %rax,%rdi
  40154b:	e8 18 05 00 00       	call   401a68 <_ZN8Game20484moveEc>
  401550:	48 83 45 d8 01       	addq   $0x1,-0x28(%rbp)
  401555:	48 8b 95 68 ff ff ff 	mov    -0x98(%rbp),%rdx
  40155c:	48 8b 45 d8          	mov    -0x28(%rbp),%rax
  401560:	48 01 d0             	add    %rdx,%rax
  401563:	0f b6 00             	movzbl (%rax),%eax
  401566:	84 c0                	test   %al,%al
  401568:	75 c4                	jne    40152e <main+0x298>
  40156a:	e9 b3 fd ff ff       	jmp    401322 <main+0x8c>
  40156f:	48 8b 85 68 ff ff ff 	mov    -0x98(%rbp),%rax
  401576:	0f b6 00             	movzbl (%rax),%eax
  401579:	3c 75                	cmp    $0x75,%al
  40157b:	0f 84 a1 fd ff ff    	je     401322 <main+0x8c>
  401581:	48 8b 85 68 ff ff ff 	mov    -0x98(%rbp),%rax
  401588:	48 89 c6             	mov    %rax,%rsi
  40158b:	bf d0 40 40 00       	mov    $0x4040d0,%edi
  401590:	b8 00 00 00 00       	mov    $0x0,%eax
  401595:	e8 a6 fa ff ff       	call   401040 <printf@plt>
  40159a:	48 8b 85 68 ff ff ff 	mov    -0x98(%rbp),%rax
  4015a1:	48 89 c7             	mov    %rax,%rdi
  4015a4:	b8 00 00 00 00       	mov    $0x0,%eax
  4015a9:	e8 92 fa ff ff       	call   401040 <printf@plt>
  4015ae:	e9 6f fd ff ff       	jmp    401322 <main+0x8c>
  4015b3:	48 8b 85 68 ff ff ff 	mov    -0x98(%rbp),%rax
  4015ba:	48 89 c7             	mov    %rax,%rdi
  4015bd:	e8 3e fb ff ff       	call   401100 <free@plt>
  4015c2:	b8 00 00 00 00       	mov    $0x0,%eax
  4015c7:	48 8b 5d f8          	mov    -0x8(%rbp),%rbx
  4015cb:	c9                   	leave  
  4015cc:	c3                   	ret    

00000000004015cd <_Z41__static_initialization_and_destruction_0ii>:
  4015cd:	55                   	push   %rbp
  4015ce:	48 89 e5             	mov    %rsp,%rbp
  4015d1:	48 83 ec 10          	sub    $0x10,%rsp
  4015d5:	89 7d fc             	mov    %edi,-0x4(%rbp)
  4015d8:	89 75 f8             	mov    %esi,-0x8(%rbp)
  4015db:	83 7d fc 01          	cmpl   $0x1,-0x4(%rbp)
  4015df:	75 27                	jne    401608 <_Z41__static_initialization_and_destruction_0ii+0x3b>
  4015e1:	81 7d f8 ff ff 00 00 	cmpl   $0xffff,-0x8(%rbp)
  4015e8:	75 1e                	jne    401608 <_Z41__static_initialization_and_destruction_0ii+0x3b>
  4015ea:	bf e9 70 40 00       	mov    $0x4070e9,%edi
  4015ef:	e8 4c fb ff ff       	call   401140 <_ZNSt8ios_base4InitC1Ev@plt>
  4015f4:	ba 08 40 40 00       	mov    $0x404008,%edx
  4015f9:	be e9 70 40 00       	mov    $0x4070e9,%esi
  4015fe:	bf a0 11 40 00       	mov    $0x4011a0,%edi
  401603:	e8 a8 fa ff ff       	call   4010b0 <__cxa_atexit@plt>
  401608:	90                   	nop
  401609:	c9                   	leave  
  40160a:	c3                   	ret    

000000000040160b <_GLOBAL__sub_I_FLAG>:
  40160b:	55                   	push   %rbp
  40160c:	48 89 e5             	mov    %rsp,%rbp
  40160f:	be ff ff 00 00       	mov    $0xffff,%esi
  401614:	bf 01 00 00 00       	mov    $0x1,%edi
  401619:	e8 af ff ff ff       	call   4015cd <_Z41__static_initialization_and_destruction_0ii>
  40161e:	5d                   	pop    %rbp
  40161f:	c3                   	ret    

0000000000401620 <_ZnwmPv>:
  401620:	55                   	push   %rbp
  401621:	48 89 e5             	mov    %rsp,%rbp
  401624:	48 89 7d f8          	mov    %rdi,-0x8(%rbp)
  401628:	48 89 75 f0          	mov    %rsi,-0x10(%rbp)
  40162c:	48 8b 45 f0          	mov    -0x10(%rbp),%rax
  401630:	5d                   	pop    %rbp
  401631:	c3                   	ret    

0000000000401632 <_ZN11Signed12BitC1Ev>:
  401632:	55                   	push   %rbp
  401633:	48 89 e5             	mov    %rsp,%rbp
  401636:	48 89 7d f8          	mov    %rdi,-0x8(%rbp)
  40163a:	48 8b 45 f8          	mov    -0x8(%rbp),%rax
  40163e:	66 c7 00 00 00       	movw   $0x0,(%rax)
  401643:	90                   	nop
  401644:	5d                   	pop    %rbp
  401645:	c3                   	ret    

0000000000401646 <_ZN11Signed12Bit8setValueEi>:
  401646:	55                   	push   %rbp
  401647:	48 89 e5             	mov    %rsp,%rbp
  40164a:	48 89 7d f8          	mov    %rdi,-0x8(%rbp)
  40164e:	89 75 f4             	mov    %esi,-0xc(%rbp)
  401651:	81 65 f4 ff 0f 00 00 	andl   $0xfff,-0xc(%rbp)
  401658:	8b 45 f4             	mov    -0xc(%rbp),%eax
  40165b:	25 00 08 00 00       	and    $0x800,%eax
  401660:	85 c0                	test   %eax,%eax
  401662:	74 07                	je     40166b <_ZN11Signed12Bit8setValueEi+0x25>
  401664:	81 4d f4 00 f0 ff ff 	orl    $0xfffff000,-0xc(%rbp)
  40166b:	8b 45 f4             	mov    -0xc(%rbp),%eax
  40166e:	89 c2                	mov    %eax,%edx
  401670:	48 8b 45 f8          	mov    -0x8(%rbp),%rax
  401674:	66 89 10             	mov    %dx,(%rax)
  401677:	90                   	nop
  401678:	5d                   	pop    %rbp
  401679:	c3                   	ret    

000000000040167a <_ZNK11Signed12Bit8getValueEv>:
  40167a:	55                   	push   %rbp
  40167b:	48 89 e5             	mov    %rsp,%rbp
  40167e:	48 89 7d f8          	mov    %rdi,-0x8(%rbp)
  401682:	48 8b 45 f8          	mov    -0x8(%rbp),%rax
  401686:	0f b7 00             	movzwl (%rax),%eax
  401689:	98                   	cwtl   
  40168a:	5d                   	pop    %rbp
  40168b:	c3                   	ret    

000000000040168c <_ZN11Signed12BitaSEi>:
  40168c:	55                   	push   %rbp
  40168d:	48 89 e5             	mov    %rsp,%rbp
  401690:	48 83 ec 10          	sub    $0x10,%rsp
  401694:	48 89 7d f8          	mov    %rdi,-0x8(%rbp)
  401698:	89 75 f4             	mov    %esi,-0xc(%rbp)
  40169b:	8b 55 f4             	mov    -0xc(%rbp),%edx
  40169e:	48 8b 45 f8          	mov    -0x8(%rbp),%rax
  4016a2:	89 d6                	mov    %edx,%esi
  4016a4:	48 89 c7             	mov    %rax,%rdi
  4016a7:	e8 9a ff ff ff       	call   401646 <_ZN11Signed12Bit8setValueEi>
  4016ac:	48 8b 45 f8          	mov    -0x8(%rbp),%rax
  4016b0:	c9                   	leave  
  4016b1:	c3                   	ret    

00000000004016b2 <_ZN11Signed12BitpLERKS_>:
  4016b2:	55                   	push   %rbp
  4016b3:	48 89 e5             	mov    %rsp,%rbp
  4016b6:	48 83 ec 10          	sub    $0x10,%rsp
  4016ba:	48 89 7d f8          	mov    %rdi,-0x8(%rbp)
  4016be:	48 89 75 f0          	mov    %rsi,-0x10(%rbp)
  4016c2:	48 8b 45 f8          	mov    -0x8(%rbp),%rax
  4016c6:	0f b7 00             	movzwl (%rax),%eax
  4016c9:	0f bf d0             	movswl %ax,%edx
  4016cc:	48 8b 45 f0          	mov    -0x10(%rbp),%rax
  4016d0:	0f b7 00             	movzwl (%rax),%eax
  4016d3:	98                   	cwtl   
  4016d4:	01 c2                	add    %eax,%edx
  4016d6:	48 8b 45 f8          	mov    -0x8(%rbp),%rax
  4016da:	89 d6                	mov    %edx,%esi
  4016dc:	48 89 c7             	mov    %rax,%rdi
  4016df:	e8 62 ff ff ff       	call   401646 <_ZN11Signed12Bit8setValueEi>
  4016e4:	48 8b 45 f8          	mov    -0x8(%rbp),%rax
  4016e8:	c9                   	leave  
  4016e9:	c3                   	ret    

00000000004016ea <_ZN8Game2048C1Ev>:
  4016ea:	55                   	push   %rbp
  4016eb:	48 89 e5             	mov    %rsp,%rbp
  4016ee:	41 56                	push   %r14
  4016f0:	41 55                	push   %r13
  4016f2:	41 54                	push   %r12
  4016f4:	53                   	push   %rbx
  4016f5:	48 83 ec 10          	sub    $0x10,%rsp
  4016f9:	48 89 7d d8          	mov    %rdi,-0x28(%rbp)
  4016fd:	48 8b 45 d8          	mov    -0x28(%rbp),%rax
  401701:	bb 03 00 00 00       	mov    $0x3,%ebx
  401706:	49 89 c5             	mov    %rax,%r13
  401709:	eb 28                	jmp    401733 <_ZN8Game2048C1Ev+0x49>
  40170b:	4d 89 ee             	mov    %r13,%r14
  40170e:	41 bc 03 00 00 00    	mov    $0x3,%r12d
  401714:	eb 10                	jmp    401726 <_ZN8Game2048C1Ev+0x3c>
  401716:	4c 89 f7             	mov    %r14,%rdi
  401719:	e8 14 ff ff ff       	call   401632 <_ZN11Signed12BitC1Ev>
  40171e:	49 83 c6 02          	add    $0x2,%r14
  401722:	49 83 ec 01          	sub    $0x1,%r12
  401726:	4d 85 e4             	test   %r12,%r12
  401729:	79 eb                	jns    401716 <_ZN8Game2048C1Ev+0x2c>
  40172b:	49 83 c5 08          	add    $0x8,%r13
  40172f:	48 83 eb 01          	sub    $0x1,%rbx
  401733:	48 85 db             	test   %rbx,%rbx
  401736:	79 d3                	jns    40170b <_ZN8Game2048C1Ev+0x21>
  401738:	bf 00 00 00 00       	mov    $0x0,%edi
  40173d:	e8 7e f9 ff ff       	call   4010c0 <time@plt>
  401742:	89 c7                	mov    %eax,%edi
  401744:	e8 97 f9 ff ff       	call   4010e0 <srand@plt>
  401749:	48 8b 45 d8          	mov    -0x28(%rbp),%rax
  40174d:	48 89 c7             	mov    %rax,%rdi
  401750:	e8 0f 00 00 00       	call   401764 <_ZN8Game204810resetBoardEv>
  401755:	90                   	nop
  401756:	48 83 c4 10          	add    $0x10,%rsp
  40175a:	5b                   	pop    %rbx
  40175b:	41 5c                	pop    %r12
  40175d:	41 5d                	pop    %r13
  40175f:	41 5e                	pop    %r14
  401761:	5d                   	pop    %rbp
  401762:	c3                   	ret    
  401763:	90                   	nop

0000000000401764 <_ZN8Game204810resetBoardEv>:
  401764:	55                   	push   %rbp
  401765:	48 89 e5             	mov    %rsp,%rbp
  401768:	48 83 ec 20          	sub    $0x20,%rsp
  40176c:	48 89 7d e8          	mov    %rdi,-0x18(%rbp)
  401770:	c7 45 fc 00 00 00 00 	movl   $0x0,-0x4(%rbp)
  401777:	eb 41                	jmp    4017ba <_ZN8Game204810resetBoardEv+0x56>
  401779:	c7 45 f8 00 00 00 00 	movl   $0x0,-0x8(%rbp)
  401780:	eb 2e                	jmp    4017b0 <_ZN8Game204810resetBoardEv+0x4c>
  401782:	8b 45 f8             	mov    -0x8(%rbp),%eax
  401785:	48 63 d0             	movslq %eax,%rdx
  401788:	8b 45 fc             	mov    -0x4(%rbp),%eax
  40178b:	48 98                	cltq   
  40178d:	48 c1 e0 02          	shl    $0x2,%rax
  401791:	48 01 d0             	add    %rdx,%rax
  401794:	48 8d 14 00          	lea    (%rax,%rax,1),%rdx
  401798:	48 8b 45 e8          	mov    -0x18(%rbp),%rax
  40179c:	48 01 d0             	add    %rdx,%rax
  40179f:	be 00 00 00 00       	mov    $0x0,%esi
  4017a4:	48 89 c7             	mov    %rax,%rdi
  4017a7:	e8 e0 fe ff ff       	call   40168c <_ZN11Signed12BitaSEi>
  4017ac:	83 45 f8 01          	addl   $0x1,-0x8(%rbp)
  4017b0:	83 7d f8 03          	cmpl   $0x3,-0x8(%rbp)
  4017b4:	7e cc                	jle    401782 <_ZN8Game204810resetBoardEv+0x1e>
  4017b6:	83 45 fc 01          	addl   $0x1,-0x4(%rbp)
  4017ba:	83 7d fc 03          	cmpl   $0x3,-0x4(%rbp)
  4017be:	7e b9                	jle    401779 <_ZN8Game204810resetBoardEv+0x15>
  4017c0:	48 8b 45 e8          	mov    -0x18(%rbp),%rax
  4017c4:	48 89 c7             	mov    %rax,%rdi
  4017c7:	e8 ee 00 00 00       	call   4018ba <_ZN8Game204813addRandomTileEv>
  4017cc:	48 8b 45 e8          	mov    -0x18(%rbp),%rax
  4017d0:	48 89 c7             	mov    %rax,%rdi
  4017d3:	e8 e2 00 00 00       	call   4018ba <_ZN8Game204813addRandomTileEv>
  4017d8:	90                   	nop
  4017d9:	c9                   	leave  
  4017da:	c3                   	ret    
  4017db:	90                   	nop

00000000004017dc <_ZNK8Game204810printBoardEv>:
  4017dc:	55                   	push   %rbp
  4017dd:	48 89 e5             	mov    %rsp,%rbp
  4017e0:	48 83 ec 20          	sub    $0x20,%rsp
  4017e4:	48 89 7d e8          	mov    %rdi,-0x18(%rbp)
  4017e8:	bf 0a 00 00 00       	mov    $0xa,%edi
  4017ed:	e8 2e f9 ff ff       	call   401120 <putchar@plt>
  4017f2:	c7 45 fc 00 00 00 00 	movl   $0x0,-0x4(%rbp)
  4017f9:	eb 57                	jmp    401852 <_ZNK8Game204810printBoardEv+0x76>
  4017fb:	c7 45 f8 00 00 00 00 	movl   $0x0,-0x8(%rbp)
  401802:	eb 3a                	jmp    40183e <_ZNK8Game204810printBoardEv+0x62>
  401804:	8b 45 f8             	mov    -0x8(%rbp),%eax
  401807:	48 63 d0             	movslq %eax,%rdx
  40180a:	8b 45 fc             	mov    -0x4(%rbp),%eax
  40180d:	48 98                	cltq   
  40180f:	48 c1 e0 02          	shl    $0x2,%rax
  401813:	48 01 d0             	add    %rdx,%rax
  401816:	48 8d 14 00          	lea    (%rax,%rax,1),%rdx
  40181a:	48 8b 45 e8          	mov    -0x18(%rbp),%rax
  40181e:	48 01 d0             	add    %rdx,%rax
  401821:	48 89 c7             	mov    %rax,%rdi
  401824:	e8 51 fe ff ff       	call   40167a <_ZNK11Signed12Bit8getValueEv>
  401829:	89 c6                	mov    %eax,%esi
  40182b:	bf 25 40 40 00       	mov    $0x404025,%edi
  401830:	b8 00 00 00 00       	mov    $0x0,%eax
  401835:	e8 06 f8 ff ff       	call   401040 <printf@plt>
  40183a:	83 45 f8 01          	addl   $0x1,-0x8(%rbp)
  40183e:	83 7d f8 03          	cmpl   $0x3,-0x8(%rbp)
  401842:	7e c0                	jle    401804 <_ZNK8Game204810printBoardEv+0x28>
  401844:	bf 0a 00 00 00       	mov    $0xa,%edi
  401849:	e8 d2 f8 ff ff       	call   401120 <putchar@plt>
  40184e:	83 45 fc 01          	addl   $0x1,-0x4(%rbp)
  401852:	83 7d fc 03          	cmpl   $0x3,-0x4(%rbp)
  401856:	7e a3                	jle    4017fb <_ZNK8Game204810printBoardEv+0x1f>
  401858:	bf 0a 00 00 00       	mov    $0xa,%edi
  40185d:	e8 be f8 ff ff       	call   401120 <putchar@plt>
  401862:	90                   	nop
  401863:	c9                   	leave  
  401864:	c3                   	ret    
  401865:	90                   	nop

0000000000401866 <_ZNSt12_Vector_baseISt4pairIiiESaIS1_EE12_Vector_implD1Ev>:
  401866:	55                   	push   %rbp
  401867:	48 89 e5             	mov    %rsp,%rbp
  40186a:	48 83 ec 10          	sub    $0x10,%rsp
  40186e:	48 89 7d f8          	mov    %rdi,-0x8(%rbp)
  401872:	48 8b 45 f8          	mov    -0x8(%rbp),%rax
  401876:	48 89 c7             	mov    %rax,%rdi
  401879:	e8 f4 0c 00 00       	call   402572 <_ZNSaISt4pairIiiEED1Ev>
  40187e:	90                   	nop
  40187f:	c9                   	leave  
  401880:	c3                   	ret    
  401881:	90                   	nop

0000000000401882 <_ZNSt12_Vector_baseISt4pairIiiESaIS1_EEC1Ev>:
  401882:	55                   	push   %rbp
  401883:	48 89 e5             	mov    %rsp,%rbp
  401886:	48 83 ec 10          	sub    $0x10,%rsp
  40188a:	48 89 7d f8          	mov    %rdi,-0x8(%rbp)
  40188e:	48 8b 45 f8          	mov    -0x8(%rbp),%rax
  401892:	48 89 c7             	mov    %rax,%rdi
  401895:	e8 b0 0c 00 00       	call   40254a <_ZNSt12_Vector_baseISt4pairIiiESaIS1_EE12_Vector_implC1Ev>
  40189a:	90                   	nop
  40189b:	c9                   	leave  
  40189c:	c3                   	ret    
  40189d:	90                   	nop

000000000040189e <_ZNSt6vectorISt4pairIiiESaIS1_EEC1Ev>:
  40189e:	55                   	push   %rbp
  40189f:	48 89 e5             	mov    %rsp,%rbp
  4018a2:	48 83 ec 10          	sub    $0x10,%rsp
  4018a6:	48 89 7d f8          	mov    %rdi,-0x8(%rbp)
  4018aa:	48 8b 45 f8          	mov    -0x8(%rbp),%rax
  4018ae:	48 89 c7             	mov    %rax,%rdi
  4018b1:	e8 cc ff ff ff       	call   401882 <_ZNSt12_Vector_baseISt4pairIiiESaIS1_EEC1Ev>
  4018b6:	90                   	nop
  4018b7:	c9                   	leave  
  4018b8:	c3                   	ret    
  4018b9:	90                   	nop

00000000004018ba <_ZN8Game204813addRandomTileEv>:
  4018ba:	55                   	push   %rbp
  4018bb:	48 89 e5             	mov    %rsp,%rbp
  4018be:	53                   	push   %rbx
  4018bf:	48 83 ec 58          	sub    $0x58,%rsp
  4018c3:	48 89 7d a8          	mov    %rdi,-0x58(%rbp)
  4018c7:	48 8d 45 c0          	lea    -0x40(%rbp),%rax
  4018cb:	48 89 c7             	mov    %rax,%rdi
  4018ce:	e8 cb ff ff ff       	call   40189e <_ZNSt6vectorISt4pairIiiESaIS1_EEC1Ev>
  4018d3:	c7 45 bc 00 00 00 00 	movl   $0x0,-0x44(%rbp)
  4018da:	eb 7b                	jmp    401957 <_ZN8Game204813addRandomTileEv+0x9d>
  4018dc:	c7 45 b8 00 00 00 00 	movl   $0x0,-0x48(%rbp)
  4018e3:	eb 61                	jmp    401946 <_ZN8Game204813addRandomTileEv+0x8c>
  4018e5:	8b 45 bc             	mov    -0x44(%rbp),%eax
  4018e8:	8b 55 b8             	mov    -0x48(%rbp),%edx
  4018eb:	48 63 d2             	movslq %edx,%rdx
  4018ee:	48 98                	cltq   
  4018f0:	48 c1 e0 02          	shl    $0x2,%rax
  4018f4:	48 01 d0             	add    %rdx,%rax
  4018f7:	48 8d 14 00          	lea    (%rax,%rax,1),%rdx
  4018fb:	48 8b 45 a8          	mov    -0x58(%rbp),%rax
  4018ff:	48 01 d0             	add    %rdx,%rax
  401902:	48 89 c7             	mov    %rax,%rdi
  401905:	e8 70 fd ff ff       	call   40167a <_ZNK11Signed12Bit8getValueEv>
  40190a:	85 c0                	test   %eax,%eax
  40190c:	0f 94 c0             	sete   %al
  40190f:	84 c0                	test   %al,%al
  401911:	74 2a                	je     40193d <_ZN8Game204813addRandomTileEv+0x83>
  401913:	48 8d 55 b8          	lea    -0x48(%rbp),%rdx
  401917:	48 8d 4d bc          	lea    -0x44(%rbp),%rcx
  40191b:	48 8d 45 e0          	lea    -0x20(%rbp),%rax
  40191f:	48 89 ce             	mov    %rcx,%rsi
  401922:	48 89 c7             	mov    %rax,%rdi
  401925:	e8 f6 0c 00 00       	call   402620 <_ZNSt4pairIiiEC1IRiS2_Lb1EEEOT_OT0_>
  40192a:	48 8d 55 e0          	lea    -0x20(%rbp),%rdx
  40192e:	48 8d 45 c0          	lea    -0x40(%rbp),%rax
  401932:	48 89 d6             	mov    %rdx,%rsi
  401935:	48 89 c7             	mov    %rax,%rdi
  401938:	e8 23 0d 00 00       	call   402660 <_ZNSt6vectorISt4pairIiiESaIS1_EE9push_backEOS1_>
  40193d:	8b 45 b8             	mov    -0x48(%rbp),%eax
  401940:	83 c0 01             	add    $0x1,%eax
  401943:	89 45 b8             	mov    %eax,-0x48(%rbp)
  401946:	8b 45 b8             	mov    -0x48(%rbp),%eax
  401949:	83 f8 03             	cmp    $0x3,%eax
  40194c:	7e 97                	jle    4018e5 <_ZN8Game204813addRandomTileEv+0x2b>
  40194e:	8b 45 bc             	mov    -0x44(%rbp),%eax
  401951:	83 c0 01             	add    $0x1,%eax
  401954:	89 45 bc             	mov    %eax,-0x44(%rbp)
  401957:	8b 45 bc             	mov    -0x44(%rbp),%eax
  40195a:	83 f8 03             	cmp    $0x3,%eax
  40195d:	0f 8e 79 ff ff ff    	jle    4018dc <_ZN8Game204813addRandomTileEv+0x22>
  401963:	48 8d 45 c0          	lea    -0x40(%rbp),%rax
  401967:	48 89 c7             	mov    %rax,%rdi
  40196a:	e8 23 0d 00 00       	call   402692 <_ZNKSt6vectorISt4pairIiiESaIS1_EE5emptyEv>
  40196f:	83 f0 01             	xor    $0x1,%eax
  401972:	84 c0                	test   %al,%al
  401974:	0f 84 c0 00 00 00    	je     401a3a <_ZN8Game204813addRandomTileEv+0x180>
  40197a:	e8 d1 f6 ff ff       	call   401050 <rand@plt>
  40197f:	48 63 d8             	movslq %eax,%rbx
  401982:	48 8d 45 c0          	lea    -0x40(%rbp),%rax
  401986:	48 89 c7             	mov    %rax,%rdi
  401989:	e8 46 0d 00 00       	call   4026d4 <_ZNKSt6vectorISt4pairIiiESaIS1_EE4sizeEv>
  40198e:	48 89 c6             	mov    %rax,%rsi
  401991:	48 89 d8             	mov    %rbx,%rax
  401994:	ba 00 00 00 00       	mov    $0x0,%edx
  401999:	48 f7 f6             	div    %rsi
  40199c:	48 89 d1             	mov    %rdx,%rcx
  40199f:	48 89 c8             	mov    %rcx,%rax
  4019a2:	89 45 ec             	mov    %eax,-0x14(%rbp)
  4019a5:	e8 a6 f6 ff ff       	call   401050 <rand@plt>
  4019aa:	89 c1                	mov    %eax,%ecx
  4019ac:	48 63 c1             	movslq %ecx,%rax
  4019af:	48 69 c0 67 66 66 66 	imul   $0x66666667,%rax,%rax
  4019b6:	48 c1 e8 20          	shr    $0x20,%rax
  4019ba:	c1 f8 02             	sar    $0x2,%eax
  4019bd:	89 ce                	mov    %ecx,%esi
  4019bf:	c1 fe 1f             	sar    $0x1f,%esi
  4019c2:	29 f0                	sub    %esi,%eax
  4019c4:	89 c2                	mov    %eax,%edx
  4019c6:	89 d0                	mov    %edx,%eax
  4019c8:	c1 e0 02             	shl    $0x2,%eax
  4019cb:	01 d0                	add    %edx,%eax
  4019cd:	01 c0                	add    %eax,%eax
  4019cf:	29 c1                	sub    %eax,%ecx
  4019d1:	89 ca                	mov    %ecx,%edx
  4019d3:	85 d2                	test   %edx,%edx
  4019d5:	75 07                	jne    4019de <_ZN8Game204813addRandomTileEv+0x124>
  4019d7:	b8 04 00 00 00       	mov    $0x4,%eax
  4019dc:	eb 05                	jmp    4019e3 <_ZN8Game204813addRandomTileEv+0x129>
  4019de:	b8 02 00 00 00       	mov    $0x2,%eax
  4019e3:	89 45 e8             	mov    %eax,-0x18(%rbp)
  4019e6:	8b 45 ec             	mov    -0x14(%rbp),%eax
  4019e9:	48 63 d0             	movslq %eax,%rdx
  4019ec:	48 8d 45 c0          	lea    -0x40(%rbp),%rax
  4019f0:	48 89 d6             	mov    %rdx,%rsi
  4019f3:	48 89 c7             	mov    %rax,%rdi
  4019f6:	e8 fd 0c 00 00       	call   4026f8 <_ZNSt6vectorISt4pairIiiESaIS1_EEixEm>
  4019fb:	8b 18                	mov    (%rax),%ebx
  4019fd:	8b 45 ec             	mov    -0x14(%rbp),%eax
  401a00:	48 63 d0             	movslq %eax,%rdx
  401a03:	48 8d 45 c0          	lea    -0x40(%rbp),%rax
  401a07:	48 89 d6             	mov    %rdx,%rsi
  401a0a:	48 89 c7             	mov    %rax,%rdi
  401a0d:	e8 e6 0c 00 00       	call   4026f8 <_ZNSt6vectorISt4pairIiiESaIS1_EEixEm>
  401a12:	8b 40 04             	mov    0x4(%rax),%eax
  401a15:	48 63 d0             	movslq %eax,%rdx
  401a18:	48 63 c3             	movslq %ebx,%rax
  401a1b:	48 c1 e0 02          	shl    $0x2,%rax
  401a1f:	48 01 d0             	add    %rdx,%rax
  401a22:	48 8d 14 00          	lea    (%rax,%rax,1),%rdx
  401a26:	48 8b 45 a8          	mov    -0x58(%rbp),%rax
  401a2a:	48 01 c2             	add    %rax,%rdx
  401a2d:	8b 45 e8             	mov    -0x18(%rbp),%eax
  401a30:	89 c6                	mov    %eax,%esi
  401a32:	48 89 d7             	mov    %rdx,%rdi
  401a35:	e8 52 fc ff ff       	call   40168c <_ZN11Signed12BitaSEi>
  401a3a:	48 8d 45 c0          	lea    -0x40(%rbp),%rax
  401a3e:	48 89 c7             	mov    %rax,%rdi
  401a41:	e8 96 0b 00 00       	call   4025dc <_ZNSt6vectorISt4pairIiiESaIS1_EED1Ev>
  401a46:	eb 1a                	jmp    401a62 <_ZN8Game204813addRandomTileEv+0x1a8>
  401a48:	48 89 c3             	mov    %rax,%rbx
  401a4b:	48 8d 45 c0          	lea    -0x40(%rbp),%rax
  401a4f:	48 89 c7             	mov    %rax,%rdi
  401a52:	e8 85 0b 00 00       	call   4025dc <_ZNSt6vectorISt4pairIiiESaIS1_EED1Ev>
  401a57:	48 89 d8             	mov    %rbx,%rax
  401a5a:	48 89 c7             	mov    %rax,%rdi
  401a5d:	e8 1e f7 ff ff       	call   401180 <_Unwind_Resume@plt>
  401a62:	48 8b 5d f8          	mov    -0x8(%rbp),%rbx
  401a66:	c9                   	leave  
  401a67:	c3                   	ret    

0000000000401a68 <_ZN8Game20484moveEc>:
  401a68:	55                   	push   %rbp
  401a69:	48 89 e5             	mov    %rsp,%rbp
  401a6c:	48 83 ec 10          	sub    $0x10,%rsp
  401a70:	48 89 7d f8          	mov    %rdi,-0x8(%rbp)
  401a74:	89 f0                	mov    %esi,%eax
  401a76:	88 45 f4             	mov    %al,-0xc(%rbp)
  401a79:	48 8b 45 f8          	mov    -0x8(%rbp),%rax
  401a7d:	c6 40 20 00          	movb   $0x0,0x20(%rax)
  401a81:	0f be 45 f4          	movsbl -0xc(%rbp),%eax
  401a85:	83 f8 77             	cmp    $0x77,%eax
  401a88:	74 1b                	je     401aa5 <_ZN8Game20484moveEc+0x3d>
  401a8a:	83 f8 77             	cmp    $0x77,%eax
  401a8d:	7f 4d                	jg     401adc <_ZN8Game20484moveEc+0x74>
  401a8f:	83 f8 73             	cmp    $0x73,%eax
  401a92:	74 1f                	je     401ab3 <_ZN8Game20484moveEc+0x4b>
  401a94:	83 f8 73             	cmp    $0x73,%eax
  401a97:	7f 43                	jg     401adc <_ZN8Game20484moveEc+0x74>
  401a99:	83 f8 61             	cmp    $0x61,%eax
  401a9c:	74 23                	je     401ac1 <_ZN8Game20484moveEc+0x59>
  401a9e:	83 f8 64             	cmp    $0x64,%eax
  401aa1:	74 2c                	je     401acf <_ZN8Game20484moveEc+0x67>
  401aa3:	eb 37                	jmp    401adc <_ZN8Game20484moveEc+0x74>
  401aa5:	48 8b 45 f8          	mov    -0x8(%rbp),%rax
  401aa9:	48 89 c7             	mov    %rax,%rdi
  401aac:	e8 21 02 00 00       	call   401cd2 <_ZN8Game20486moveUpEv>
  401ab1:	eb 29                	jmp    401adc <_ZN8Game20484moveEc+0x74>
  401ab3:	48 8b 45 f8          	mov    -0x8(%rbp),%rax
  401ab7:	48 89 c7             	mov    %rax,%rdi
  401aba:	e8 33 04 00 00       	call   401ef2 <_ZN8Game20488moveDownEv>
  401abf:	eb 1b                	jmp    401adc <_ZN8Game20484moveEc+0x74>
  401ac1:	48 8b 45 f8          	mov    -0x8(%rbp),%rax
  401ac5:	48 89 c7             	mov    %rax,%rdi
  401ac8:	e8 45 06 00 00       	call   402112 <_ZN8Game20488moveLeftEv>
  401acd:	eb 0d                	jmp    401adc <_ZN8Game20484moveEc+0x74>
  401acf:	48 8b 45 f8          	mov    -0x8(%rbp),%rax
  401ad3:	48 89 c7             	mov    %rax,%rdi
  401ad6:	e8 53 08 00 00       	call   40232e <_ZN8Game20489moveRightEv>
  401adb:	90                   	nop
  401adc:	48 8b 45 f8          	mov    -0x8(%rbp),%rax
  401ae0:	0f b6 40 20          	movzbl 0x20(%rax),%eax
  401ae4:	84 c0                	test   %al,%al
  401ae6:	74 0c                	je     401af4 <_ZN8Game20484moveEc+0x8c>
  401ae8:	48 8b 45 f8          	mov    -0x8(%rbp),%rax
  401aec:	48 89 c7             	mov    %rax,%rdi
  401aef:	e8 c6 fd ff ff       	call   4018ba <_ZN8Game204813addRandomTileEv>
  401af4:	90                   	nop
  401af5:	c9                   	leave  
  401af6:	c3                   	ret    
  401af7:	90                   	nop

0000000000401af8 <_ZNK8Game20487canMoveEv>:
  401af8:	55                   	push   %rbp
  401af9:	48 89 e5             	mov    %rsp,%rbp
  401afc:	53                   	push   %rbx
  401afd:	48 83 ec 28          	sub    $0x28,%rsp
  401b01:	48 89 7d d8          	mov    %rdi,-0x28(%rbp)
  401b05:	c7 45 ec 00 00 00 00 	movl   $0x0,-0x14(%rbp)
  401b0c:	e9 3a 01 00 00       	jmp    401c4b <_ZNK8Game20487canMoveEv+0x153>
  401b11:	c7 45 e8 00 00 00 00 	movl   $0x0,-0x18(%rbp)
  401b18:	e9 20 01 00 00       	jmp    401c3d <_ZNK8Game20487canMoveEv+0x145>
  401b1d:	8b 45 e8             	mov    -0x18(%rbp),%eax
  401b20:	48 63 d0             	movslq %eax,%rdx
  401b23:	8b 45 ec             	mov    -0x14(%rbp),%eax
  401b26:	48 98                	cltq   
  401b28:	48 c1 e0 02          	shl    $0x2,%rax
  401b2c:	48 01 d0             	add    %rdx,%rax
  401b2f:	48 8d 14 00          	lea    (%rax,%rax,1),%rdx
  401b33:	48 8b 45 d8          	mov    -0x28(%rbp),%rax
  401b37:	48 01 d0             	add    %rdx,%rax
  401b3a:	48 89 c7             	mov    %rax,%rdi
  401b3d:	e8 38 fb ff ff       	call   40167a <_ZNK11Signed12Bit8getValueEv>
  401b42:	85 c0                	test   %eax,%eax
  401b44:	0f 94 c0             	sete   %al
  401b47:	84 c0                	test   %al,%al
  401b49:	74 0a                	je     401b55 <_ZNK8Game20487canMoveEv+0x5d>
  401b4b:	b8 01 00 00 00       	mov    $0x1,%eax
  401b50:	e9 05 01 00 00       	jmp    401c5a <_ZNK8Game20487canMoveEv+0x162>
  401b55:	83 7d ec 02          	cmpl   $0x2,-0x14(%rbp)
  401b59:	7f 5b                	jg     401bb6 <_ZNK8Game20487canMoveEv+0xbe>
  401b5b:	8b 45 e8             	mov    -0x18(%rbp),%eax
  401b5e:	48 63 d0             	movslq %eax,%rdx
  401b61:	8b 45 ec             	mov    -0x14(%rbp),%eax
  401b64:	48 98                	cltq   
  401b66:	48 c1 e0 02          	shl    $0x2,%rax
  401b6a:	48 01 d0             	add    %rdx,%rax
  401b6d:	48 8d 14 00          	lea    (%rax,%rax,1),%rdx
  401b71:	48 8b 45 d8          	mov    -0x28(%rbp),%rax
  401b75:	48 01 d0             	add    %rdx,%rax
  401b78:	48 89 c7             	mov    %rax,%rdi
  401b7b:	e8 fa fa ff ff       	call   40167a <_ZNK11Signed12Bit8getValueEv>
  401b80:	89 c3                	mov    %eax,%ebx
  401b82:	8b 45 ec             	mov    -0x14(%rbp),%eax
  401b85:	8d 50 01             	lea    0x1(%rax),%edx
  401b88:	8b 45 e8             	mov    -0x18(%rbp),%eax
  401b8b:	48 63 c8             	movslq %eax,%rcx
  401b8e:	48 63 c2             	movslq %edx,%rax
  401b91:	48 c1 e0 02          	shl    $0x2,%rax
  401b95:	48 01 c8             	add    %rcx,%rax
  401b98:	48 8d 14 00          	lea    (%rax,%rax,1),%rdx
  401b9c:	48 8b 45 d8          	mov    -0x28(%rbp),%rax
  401ba0:	48 01 d0             	add    %rdx,%rax
  401ba3:	48 89 c7             	mov    %rax,%rdi
  401ba6:	e8 cf fa ff ff       	call   40167a <_ZNK11Signed12Bit8getValueEv>
  401bab:	39 c3                	cmp    %eax,%ebx
  401bad:	75 07                	jne    401bb6 <_ZNK8Game20487canMoveEv+0xbe>
  401baf:	b8 01 00 00 00       	mov    $0x1,%eax
  401bb4:	eb 05                	jmp    401bbb <_ZNK8Game20487canMoveEv+0xc3>
  401bb6:	b8 00 00 00 00       	mov    $0x0,%eax
  401bbb:	84 c0                	test   %al,%al
  401bbd:	74 0a                	je     401bc9 <_ZNK8Game20487canMoveEv+0xd1>
  401bbf:	b8 01 00 00 00       	mov    $0x1,%eax
  401bc4:	e9 91 00 00 00       	jmp    401c5a <_ZNK8Game20487canMoveEv+0x162>
  401bc9:	83 7d e8 02          	cmpl   $0x2,-0x18(%rbp)
  401bcd:	7f 5a                	jg     401c29 <_ZNK8Game20487canMoveEv+0x131>
  401bcf:	8b 45 e8             	mov    -0x18(%rbp),%eax
  401bd2:	48 63 d0             	movslq %eax,%rdx
  401bd5:	8b 45 ec             	mov    -0x14(%rbp),%eax
  401bd8:	48 98                	cltq   
  401bda:	48 c1 e0 02          	shl    $0x2,%rax
  401bde:	48 01 d0             	add    %rdx,%rax
  401be1:	48 8d 14 00          	lea    (%rax,%rax,1),%rdx
  401be5:	48 8b 45 d8          	mov    -0x28(%rbp),%rax
  401be9:	48 01 d0             	add    %rdx,%rax
  401bec:	48 89 c7             	mov    %rax,%rdi
  401bef:	e8 86 fa ff ff       	call   40167a <_ZNK11Signed12Bit8getValueEv>
  401bf4:	89 c3                	mov    %eax,%ebx
  401bf6:	8b 45 e8             	mov    -0x18(%rbp),%eax
  401bf9:	83 c0 01             	add    $0x1,%eax
  401bfc:	48 63 d0             	movslq %eax,%rdx
  401bff:	8b 45 ec             	mov    -0x14(%rbp),%eax
  401c02:	48 98                	cltq   
  401c04:	48 c1 e0 02          	shl    $0x2,%rax
  401c08:	48 01 d0             	add    %rdx,%rax
  401c0b:	48 8d 14 00          	lea    (%rax,%rax,1),%rdx
  401c0f:	48 8b 45 d8          	mov    -0x28(%rbp),%rax
  401c13:	48 01 d0             	add    %rdx,%rax
  401c16:	48 89 c7             	mov    %rax,%rdi
  401c19:	e8 5c fa ff ff       	call   40167a <_ZNK11Signed12Bit8getValueEv>
  401c1e:	39 c3                	cmp    %eax,%ebx
  401c20:	75 07                	jne    401c29 <_ZNK8Game20487canMoveEv+0x131>
  401c22:	b8 01 00 00 00       	mov    $0x1,%eax
  401c27:	eb 05                	jmp    401c2e <_ZNK8Game20487canMoveEv+0x136>
  401c29:	b8 00 00 00 00       	mov    $0x0,%eax
  401c2e:	84 c0                	test   %al,%al
  401c30:	74 07                	je     401c39 <_ZNK8Game20487canMoveEv+0x141>
  401c32:	b8 01 00 00 00       	mov    $0x1,%eax
  401c37:	eb 21                	jmp    401c5a <_ZNK8Game20487canMoveEv+0x162>
  401c39:	83 45 e8 01          	addl   $0x1,-0x18(%rbp)
  401c3d:	83 7d e8 03          	cmpl   $0x3,-0x18(%rbp)
  401c41:	0f 8e d6 fe ff ff    	jle    401b1d <_ZNK8Game20487canMoveEv+0x25>
  401c47:	83 45 ec 01          	addl   $0x1,-0x14(%rbp)
  401c4b:	83 7d ec 03          	cmpl   $0x3,-0x14(%rbp)
  401c4f:	0f 8e bc fe ff ff    	jle    401b11 <_ZNK8Game20487canMoveEv+0x19>
  401c55:	b8 00 00 00 00       	mov    $0x0,%eax
  401c5a:	48 8b 5d f8          	mov    -0x8(%rbp),%rbx
  401c5e:	c9                   	leave  
  401c5f:	c3                   	ret    

0000000000401c60 <_ZNK8Game20488checkWinEv>:
  401c60:	55                   	push   %rbp
  401c61:	48 89 e5             	mov    %rsp,%rbp
  401c64:	48 83 ec 20          	sub    $0x20,%rsp
  401c68:	48 89 7d e8          	mov    %rdi,-0x18(%rbp)
  401c6c:	c7 45 fc 00 00 00 00 	movl   $0x0,-0x4(%rbp)
  401c73:	eb 4f                	jmp    401cc4 <_ZNK8Game20488checkWinEv+0x64>
  401c75:	c7 45 f8 00 00 00 00 	movl   $0x0,-0x8(%rbp)
  401c7c:	eb 3c                	jmp    401cba <_ZNK8Game20488checkWinEv+0x5a>
  401c7e:	8b 45 f8             	mov    -0x8(%rbp),%eax
  401c81:	48 63 d0             	movslq %eax,%rdx
  401c84:	8b 45 fc             	mov    -0x4(%rbp),%eax
  401c87:	48 98                	cltq   
  401c89:	48 c1 e0 02          	shl    $0x2,%rax
  401c8d:	48 01 d0             	add    %rdx,%rax
  401c90:	48 8d 14 00          	lea    (%rax,%rax,1),%rdx
  401c94:	48 8b 45 e8          	mov    -0x18(%rbp),%rax
  401c98:	48 01 d0             	add    %rdx,%rax
  401c9b:	48 89 c7             	mov    %rax,%rdi
  401c9e:	e8 d7 f9 ff ff       	call   40167a <_ZNK11Signed12Bit8getValueEv>
  401ca3:	3d 00 08 00 00       	cmp    $0x800,%eax
  401ca8:	0f 94 c0             	sete   %al
  401cab:	84 c0                	test   %al,%al
  401cad:	74 07                	je     401cb6 <_ZNK8Game20488checkWinEv+0x56>
  401caf:	b8 01 00 00 00       	mov    $0x1,%eax
  401cb4:	eb 19                	jmp    401ccf <_ZNK8Game20488checkWinEv+0x6f>
  401cb6:	83 45 f8 01          	addl   $0x1,-0x8(%rbp)
  401cba:	83 7d f8 03          	cmpl   $0x3,-0x8(%rbp)
  401cbe:	7e be                	jle    401c7e <_ZNK8Game20488checkWinEv+0x1e>
  401cc0:	83 45 fc 01          	addl   $0x1,-0x4(%rbp)
  401cc4:	83 7d fc 03          	cmpl   $0x3,-0x4(%rbp)
  401cc8:	7e ab                	jle    401c75 <_ZNK8Game20488checkWinEv+0x15>
  401cca:	b8 00 00 00 00       	mov    $0x0,%eax
  401ccf:	c9                   	leave  
  401cd0:	c3                   	ret    
  401cd1:	90                   	nop

0000000000401cd2 <_ZN8Game20486moveUpEv>:
  401cd2:	55                   	push   %rbp
  401cd3:	48 89 e5             	mov    %rsp,%rbp
  401cd6:	53                   	push   %rbx
  401cd7:	48 83 ec 28          	sub    $0x28,%rsp
  401cdb:	48 89 7d d8          	mov    %rdi,-0x28(%rbp)
  401cdf:	c7 45 ec 00 00 00 00 	movl   $0x0,-0x14(%rbp)
  401ce6:	e9 f4 01 00 00       	jmp    401edf <_ZN8Game20486moveUpEv+0x20d>
  401ceb:	c7 45 e8 01 00 00 00 	movl   $0x1,-0x18(%rbp)
  401cf2:	e9 da 01 00 00       	jmp    401ed1 <_ZN8Game20486moveUpEv+0x1ff>
  401cf7:	8b 45 ec             	mov    -0x14(%rbp),%eax
  401cfa:	48 63 d0             	movslq %eax,%rdx
  401cfd:	8b 45 e8             	mov    -0x18(%rbp),%eax
  401d00:	48 98                	cltq   
  401d02:	48 c1 e0 02          	shl    $0x2,%rax
  401d06:	48 01 d0             	add    %rdx,%rax
  401d09:	48 8d 14 00          	lea    (%rax,%rax,1),%rdx
  401d0d:	48 8b 45 d8          	mov    -0x28(%rbp),%rax
  401d11:	48 01 d0             	add    %rdx,%rax
  401d14:	48 89 c7             	mov    %rax,%rdi
  401d17:	e8 5e f9 ff ff       	call   40167a <_ZNK11Signed12Bit8getValueEv>
  401d1c:	85 c0                	test   %eax,%eax
  401d1e:	0f 95 c0             	setne  %al
  401d21:	84 c0                	test   %al,%al
  401d23:	0f 84 a4 01 00 00    	je     401ecd <_ZN8Game20486moveUpEv+0x1fb>
  401d29:	8b 45 e8             	mov    -0x18(%rbp),%eax
  401d2c:	89 45 e4             	mov    %eax,-0x1c(%rbp)
  401d2f:	eb 70                	jmp    401da1 <_ZN8Game20486moveUpEv+0xcf>
  401d31:	8b 45 e4             	mov    -0x1c(%rbp),%eax
  401d34:	8d 48 ff             	lea    -0x1(%rax),%ecx
  401d37:	48 8b 45 d8          	mov    -0x28(%rbp),%rax
  401d3b:	8b 55 ec             	mov    -0x14(%rbp),%edx
  401d3e:	48 63 f2             	movslq %edx,%rsi
  401d41:	48 63 d1             	movslq %ecx,%rdx
  401d44:	48 c1 e2 02          	shl    $0x2,%rdx
  401d48:	48 8d 0c 32          	lea    (%rdx,%rsi,1),%rcx
  401d4c:	48 8b 55 d8          	mov    -0x28(%rbp),%rdx
  401d50:	8b 75 ec             	mov    -0x14(%rbp),%esi
  401d53:	48 63 fe             	movslq %esi,%rdi
  401d56:	8b 75 e4             	mov    -0x1c(%rbp),%esi
  401d59:	48 63 f6             	movslq %esi,%rsi
  401d5c:	48 c1 e6 02          	shl    $0x2,%rsi
  401d60:	48 01 fe             	add    %rdi,%rsi
  401d63:	0f b7 14 72          	movzwl (%rdx,%rsi,2),%edx
  401d67:	66 89 14 48          	mov    %dx,(%rax,%rcx,2)
  401d6b:	8b 45 ec             	mov    -0x14(%rbp),%eax
  401d6e:	48 63 d0             	movslq %eax,%rdx
  401d71:	8b 45 e4             	mov    -0x1c(%rbp),%eax
  401d74:	48 98                	cltq   
  401d76:	48 c1 e0 02          	shl    $0x2,%rax
  401d7a:	48 01 d0             	add    %rdx,%rax
  401d7d:	48 8d 14 00          	lea    (%rax,%rax,1),%rdx
  401d81:	48 8b 45 d8          	mov    -0x28(%rbp),%rax
  401d85:	48 01 d0             	add    %rdx,%rax
  401d88:	be 00 00 00 00       	mov    $0x0,%esi
  401d8d:	48 89 c7             	mov    %rax,%rdi
  401d90:	e8 f7 f8 ff ff       	call   40168c <_ZN11Signed12BitaSEi>
  401d95:	83 6d e4 01          	subl   $0x1,-0x1c(%rbp)
  401d99:	48 8b 45 d8          	mov    -0x28(%rbp),%rax
  401d9d:	c6 40 20 01          	movb   $0x1,0x20(%rax)
  401da1:	83 7d e4 00          	cmpl   $0x0,-0x1c(%rbp)
  401da5:	7e 34                	jle    401ddb <_ZN8Game20486moveUpEv+0x109>
  401da7:	8b 45 e4             	mov    -0x1c(%rbp),%eax
  401daa:	8d 50 ff             	lea    -0x1(%rax),%edx
  401dad:	8b 45 ec             	mov    -0x14(%rbp),%eax
  401db0:	48 63 c8             	movslq %eax,%rcx
  401db3:	48 63 c2             	movslq %edx,%rax
  401db6:	48 c1 e0 02          	shl    $0x2,%rax
  401dba:	48 01 c8             	add    %rcx,%rax
  401dbd:	48 8d 14 00          	lea    (%rax,%rax,1),%rdx
  401dc1:	48 8b 45 d8          	mov    -0x28(%rbp),%rax
  401dc5:	48 01 d0             	add    %rdx,%rax
  401dc8:	48 89 c7             	mov    %rax,%rdi
  401dcb:	e8 aa f8 ff ff       	call   40167a <_ZNK11Signed12Bit8getValueEv>
  401dd0:	85 c0                	test   %eax,%eax
  401dd2:	75 07                	jne    401ddb <_ZN8Game20486moveUpEv+0x109>
  401dd4:	b8 01 00 00 00       	mov    $0x1,%eax
  401dd9:	eb 05                	jmp    401de0 <_ZN8Game20486moveUpEv+0x10e>
  401ddb:	b8 00 00 00 00       	mov    $0x0,%eax
  401de0:	84 c0                	test   %al,%al
  401de2:	0f 85 49 ff ff ff    	jne    401d31 <_ZN8Game20486moveUpEv+0x5f>
  401de8:	83 7d e4 00          	cmpl   $0x0,-0x1c(%rbp)
  401dec:	7e 5b                	jle    401e49 <_ZN8Game20486moveUpEv+0x177>
  401dee:	8b 45 e4             	mov    -0x1c(%rbp),%eax
  401df1:	8d 50 ff             	lea    -0x1(%rax),%edx
  401df4:	8b 45 ec             	mov    -0x14(%rbp),%eax
  401df7:	48 63 c8             	movslq %eax,%rcx
  401dfa:	48 63 c2             	movslq %edx,%rax
  401dfd:	48 c1 e0 02          	shl    $0x2,%rax
  401e01:	48 01 c8             	add    %rcx,%rax
  401e04:	48 8d 14 00          	lea    (%rax,%rax,1),%rdx
  401e08:	48 8b 45 d8          	mov    -0x28(%rbp),%rax
  401e0c:	48 01 d0             	add    %rdx,%rax
  401e0f:	48 89 c7             	mov    %rax,%rdi
  401e12:	e8 63 f8 ff ff       	call   40167a <_ZNK11Signed12Bit8getValueEv>
  401e17:	89 c3                	mov    %eax,%ebx
  401e19:	8b 45 ec             	mov    -0x14(%rbp),%eax
  401e1c:	48 63 d0             	movslq %eax,%rdx
  401e1f:	8b 45 e4             	mov    -0x1c(%rbp),%eax
  401e22:	48 98                	cltq   
  401e24:	48 c1 e0 02          	shl    $0x2,%rax
  401e28:	48 01 d0             	add    %rdx,%rax
  401e2b:	48 8d 14 00          	lea    (%rax,%rax,1),%rdx
  401e2f:	48 8b 45 d8          	mov    -0x28(%rbp),%rax
  401e33:	48 01 d0             	add    %rdx,%rax
  401e36:	48 89 c7             	mov    %rax,%rdi
  401e39:	e8 3c f8 ff ff       	call   40167a <_ZNK11Signed12Bit8getValueEv>
  401e3e:	39 c3                	cmp    %eax,%ebx
  401e40:	75 07                	jne    401e49 <_ZN8Game20486moveUpEv+0x177>
  401e42:	b8 01 00 00 00       	mov    $0x1,%eax
  401e47:	eb 05                	jmp    401e4e <_ZN8Game20486moveUpEv+0x17c>
  401e49:	b8 00 00 00 00       	mov    $0x0,%eax
  401e4e:	84 c0                	test   %al,%al
  401e50:	74 7b                	je     401ecd <_ZN8Game20486moveUpEv+0x1fb>
  401e52:	8b 45 ec             	mov    -0x14(%rbp),%eax
  401e55:	48 63 d0             	movslq %eax,%rdx
  401e58:	8b 45 e4             	mov    -0x1c(%rbp),%eax
  401e5b:	48 98                	cltq   
  401e5d:	48 c1 e0 02          	shl    $0x2,%rax
  401e61:	48 01 d0             	add    %rdx,%rax
  401e64:	48 8d 14 00          	lea    (%rax,%rax,1),%rdx
  401e68:	48 8b 45 d8          	mov    -0x28(%rbp),%rax
  401e6c:	48 01 c2             	add    %rax,%rdx
  401e6f:	8b 45 e4             	mov    -0x1c(%rbp),%eax
  401e72:	8d 48 ff             	lea    -0x1(%rax),%ecx
  401e75:	8b 45 ec             	mov    -0x14(%rbp),%eax
  401e78:	48 63 f0             	movslq %eax,%rsi
  401e7b:	48 63 c1             	movslq %ecx,%rax
  401e7e:	48 c1 e0 02          	shl    $0x2,%rax
  401e82:	48 01 f0             	add    %rsi,%rax
  401e85:	48 8d 0c 00          	lea    (%rax,%rax,1),%rcx
  401e89:	48 8b 45 d8          	mov    -0x28(%rbp),%rax
  401e8d:	48 01 c8             	add    %rcx,%rax
  401e90:	48 89 d6             	mov    %rdx,%rsi
  401e93:	48 89 c7             	mov    %rax,%rdi
  401e96:	e8 17 f8 ff ff       	call   4016b2 <_ZN11Signed12BitpLERKS_>
  401e9b:	8b 45 ec             	mov    -0x14(%rbp),%eax
  401e9e:	48 63 d0             	movslq %eax,%rdx
  401ea1:	8b 45 e4             	mov    -0x1c(%rbp),%eax
  401ea4:	48 98                	cltq   
  401ea6:	48 c1 e0 02          	shl    $0x2,%rax
  401eaa:	48 01 d0             	add    %rdx,%rax
  401ead:	48 8d 14 00          	lea    (%rax,%rax,1),%rdx
  401eb1:	48 8b 45 d8          	mov    -0x28(%rbp),%rax
  401eb5:	48 01 d0             	add    %rdx,%rax
  401eb8:	be 00 00 00 00       	mov    $0x0,%esi
  401ebd:	48 89 c7             	mov    %rax,%rdi
  401ec0:	e8 c7 f7 ff ff       	call   40168c <_ZN11Signed12BitaSEi>
  401ec5:	48 8b 45 d8          	mov    -0x28(%rbp),%rax
  401ec9:	c6 40 20 01          	movb   $0x1,0x20(%rax)
  401ecd:	83 45 e8 01          	addl   $0x1,-0x18(%rbp)
  401ed1:	83 7d e8 03          	cmpl   $0x3,-0x18(%rbp)
  401ed5:	0f 8e 1c fe ff ff    	jle    401cf7 <_ZN8Game20486moveUpEv+0x25>
  401edb:	83 45 ec 01          	addl   $0x1,-0x14(%rbp)
  401edf:	83 7d ec 03          	cmpl   $0x3,-0x14(%rbp)
  401ee3:	0f 8e 02 fe ff ff    	jle    401ceb <_ZN8Game20486moveUpEv+0x19>
  401ee9:	90                   	nop
  401eea:	90                   	nop
  401eeb:	48 8b 5d f8          	mov    -0x8(%rbp),%rbx
  401eef:	c9                   	leave  
  401ef0:	c3                   	ret    
  401ef1:	90                   	nop

0000000000401ef2 <_ZN8Game20488moveDownEv>:
  401ef2:	55                   	push   %rbp
  401ef3:	48 89 e5             	mov    %rsp,%rbp
  401ef6:	53                   	push   %rbx
  401ef7:	48 83 ec 28          	sub    $0x28,%rsp
  401efb:	48 89 7d d8          	mov    %rdi,-0x28(%rbp)
  401eff:	c7 45 ec 00 00 00 00 	movl   $0x0,-0x14(%rbp)
  401f06:	e9 f4 01 00 00       	jmp    4020ff <_ZN8Game20488moveDownEv+0x20d>
  401f0b:	c7 45 e8 02 00 00 00 	movl   $0x2,-0x18(%rbp)
  401f12:	e9 da 01 00 00       	jmp    4020f1 <_ZN8Game20488moveDownEv+0x1ff>
  401f17:	8b 45 ec             	mov    -0x14(%rbp),%eax
  401f1a:	48 63 d0             	movslq %eax,%rdx
  401f1d:	8b 45 e8             	mov    -0x18(%rbp),%eax
  401f20:	48 98                	cltq   
  401f22:	48 c1 e0 02          	shl    $0x2,%rax
  401f26:	48 01 d0             	add    %rdx,%rax
  401f29:	48 8d 14 00          	lea    (%rax,%rax,1),%rdx
  401f2d:	48 8b 45 d8          	mov    -0x28(%rbp),%rax
  401f31:	48 01 d0             	add    %rdx,%rax
  401f34:	48 89 c7             	mov    %rax,%rdi
  401f37:	e8 3e f7 ff ff       	call   40167a <_ZNK11Signed12Bit8getValueEv>
  401f3c:	85 c0                	test   %eax,%eax
  401f3e:	0f 95 c0             	setne  %al
  401f41:	84 c0                	test   %al,%al
  401f43:	0f 84 a4 01 00 00    	je     4020ed <_ZN8Game20488moveDownEv+0x1fb>
  401f49:	8b 45 e8             	mov    -0x18(%rbp),%eax
  401f4c:	89 45 e4             	mov    %eax,-0x1c(%rbp)
  401f4f:	eb 70                	jmp    401fc1 <_ZN8Game20488moveDownEv+0xcf>
  401f51:	8b 45 e4             	mov    -0x1c(%rbp),%eax
  401f54:	8d 48 01             	lea    0x1(%rax),%ecx
  401f57:	48 8b 45 d8          	mov    -0x28(%rbp),%rax
  401f5b:	8b 55 ec             	mov    -0x14(%rbp),%edx
  401f5e:	48 63 f2             	movslq %edx,%rsi
  401f61:	48 63 d1             	movslq %ecx,%rdx
  401f64:	48 c1 e2 02          	shl    $0x2,%rdx
  401f68:	48 8d 0c 32          	lea    (%rdx,%rsi,1),%rcx
  401f6c:	48 8b 55 d8          	mov    -0x28(%rbp),%rdx
  401f70:	8b 75 ec             	mov    -0x14(%rbp),%esi
  401f73:	48 63 fe             	movslq %esi,%rdi
  401f76:	8b 75 e4             	mov    -0x1c(%rbp),%esi
  401f79:	48 63 f6             	movslq %esi,%rsi
  401f7c:	48 c1 e6 02          	shl    $0x2,%rsi
  401f80:	48 01 fe             	add    %rdi,%rsi
  401f83:	0f b7 14 72          	movzwl (%rdx,%rsi,2),%edx
  401f87:	66 89 14 48          	mov    %dx,(%rax,%rcx,2)
  401f8b:	8b 45 ec             	mov    -0x14(%rbp),%eax
  401f8e:	48 63 d0             	movslq %eax,%rdx
  401f91:	8b 45 e4             	mov    -0x1c(%rbp),%eax
  401f94:	48 98                	cltq   
  401f96:	48 c1 e0 02          	shl    $0x2,%rax
  401f9a:	48 01 d0             	add    %rdx,%rax
  401f9d:	48 8d 14 00          	lea    (%rax,%rax,1),%rdx
  401fa1:	48 8b 45 d8          	mov    -0x28(%rbp),%rax
  401fa5:	48 01 d0             	add    %rdx,%rax
  401fa8:	be 00 00 00 00       	mov    $0x0,%esi
  401fad:	48 89 c7             	mov    %rax,%rdi
  401fb0:	e8 d7 f6 ff ff       	call   40168c <_ZN11Signed12BitaSEi>
  401fb5:	83 45 e4 01          	addl   $0x1,-0x1c(%rbp)
  401fb9:	48 8b 45 d8          	mov    -0x28(%rbp),%rax
  401fbd:	c6 40 20 01          	movb   $0x1,0x20(%rax)
  401fc1:	83 7d e4 02          	cmpl   $0x2,-0x1c(%rbp)
  401fc5:	7f 34                	jg     401ffb <_ZN8Game20488moveDownEv+0x109>
  401fc7:	8b 45 e4             	mov    -0x1c(%rbp),%eax
  401fca:	8d 50 01             	lea    0x1(%rax),%edx
  401fcd:	8b 45 ec             	mov    -0x14(%rbp),%eax
  401fd0:	48 63 c8             	movslq %eax,%rcx
  401fd3:	48 63 c2             	movslq %edx,%rax
  401fd6:	48 c1 e0 02          	shl    $0x2,%rax
  401fda:	48 01 c8             	add    %rcx,%rax
  401fdd:	48 8d 14 00          	lea    (%rax,%rax,1),%rdx
  401fe1:	48 8b 45 d8          	mov    -0x28(%rbp),%rax
  401fe5:	48 01 d0             	add    %rdx,%rax
  401fe8:	48 89 c7             	mov    %rax,%rdi
  401feb:	e8 8a f6 ff ff       	call   40167a <_ZNK11Signed12Bit8getValueEv>
  401ff0:	85 c0                	test   %eax,%eax
  401ff2:	75 07                	jne    401ffb <_ZN8Game20488moveDownEv+0x109>
  401ff4:	b8 01 00 00 00       	mov    $0x1,%eax
  401ff9:	eb 05                	jmp    402000 <_ZN8Game20488moveDownEv+0x10e>
  401ffb:	b8 00 00 00 00       	mov    $0x0,%eax
  402000:	84 c0                	test   %al,%al
  402002:	0f 85 49 ff ff ff    	jne    401f51 <_ZN8Game20488moveDownEv+0x5f>
  402008:	83 7d e4 02          	cmpl   $0x2,-0x1c(%rbp)
  40200c:	7f 5b                	jg     402069 <_ZN8Game20488moveDownEv+0x177>
  40200e:	8b 45 e4             	mov    -0x1c(%rbp),%eax
  402011:	8d 50 01             	lea    0x1(%rax),%edx
  402014:	8b 45 ec             	mov    -0x14(%rbp),%eax
  402017:	48 63 c8             	movslq %eax,%rcx
  40201a:	48 63 c2             	movslq %edx,%rax
  40201d:	48 c1 e0 02          	shl    $0x2,%rax
  402021:	48 01 c8             	add    %rcx,%rax
  402024:	48 8d 14 00          	lea    (%rax,%rax,1),%rdx
  402028:	48 8b 45 d8          	mov    -0x28(%rbp),%rax
  40202c:	48 01 d0             	add    %rdx,%rax
  40202f:	48 89 c7             	mov    %rax,%rdi
  402032:	e8 43 f6 ff ff       	call   40167a <_ZNK11Signed12Bit8getValueEv>
  402037:	89 c3                	mov    %eax,%ebx
  402039:	8b 45 ec             	mov    -0x14(%rbp),%eax
  40203c:	48 63 d0             	movslq %eax,%rdx
  40203f:	8b 45 e4             	mov    -0x1c(%rbp),%eax
  402042:	48 98                	cltq   
  402044:	48 c1 e0 02          	shl    $0x2,%rax
  402048:	48 01 d0             	add    %rdx,%rax
  40204b:	48 8d 14 00          	lea    (%rax,%rax,1),%rdx
  40204f:	48 8b 45 d8          	mov    -0x28(%rbp),%rax
  402053:	48 01 d0             	add    %rdx,%rax
  402056:	48 89 c7             	mov    %rax,%rdi
  402059:	e8 1c f6 ff ff       	call   40167a <_ZNK11Signed12Bit8getValueEv>
  40205e:	39 c3                	cmp    %eax,%ebx
  402060:	75 07                	jne    402069 <_ZN8Game20488moveDownEv+0x177>
  402062:	b8 01 00 00 00       	mov    $0x1,%eax
  402067:	eb 05                	jmp    40206e <_ZN8Game20488moveDownEv+0x17c>
  402069:	b8 00 00 00 00       	mov    $0x0,%eax
  40206e:	84 c0                	test   %al,%al
  402070:	74 7b                	je     4020ed <_ZN8Game20488moveDownEv+0x1fb>
  402072:	8b 45 ec             	mov    -0x14(%rbp),%eax
  402075:	48 63 d0             	movslq %eax,%rdx
  402078:	8b 45 e4             	mov    -0x1c(%rbp),%eax
  40207b:	48 98                	cltq   
  40207d:	48 c1 e0 02          	shl    $0x2,%rax
  402081:	48 01 d0             	add    %rdx,%rax
  402084:	48 8d 14 00          	lea    (%rax,%rax,1),%rdx
  402088:	48 8b 45 d8          	mov    -0x28(%rbp),%rax
  40208c:	48 01 c2             	add    %rax,%rdx
  40208f:	8b 45 e4             	mov    -0x1c(%rbp),%eax
  402092:	8d 48 01             	lea    0x1(%rax),%ecx
  402095:	8b 45 ec             	mov    -0x14(%rbp),%eax
  402098:	48 63 f0             	movslq %eax,%rsi
  40209b:	48 63 c1             	movslq %ecx,%rax
  40209e:	48 c1 e0 02          	shl    $0x2,%rax
  4020a2:	48 01 f0             	add    %rsi,%rax
  4020a5:	48 8d 0c 00          	lea    (%rax,%rax,1),%rcx
  4020a9:	48 8b 45 d8          	mov    -0x28(%rbp),%rax
  4020ad:	48 01 c8             	add    %rcx,%rax
  4020b0:	48 89 d6             	mov    %rdx,%rsi
  4020b3:	48 89 c7             	mov    %rax,%rdi
  4020b6:	e8 f7 f5 ff ff       	call   4016b2 <_ZN11Signed12BitpLERKS_>
  4020bb:	8b 45 ec             	mov    -0x14(%rbp),%eax
  4020be:	48 63 d0             	movslq %eax,%rdx
  4020c1:	8b 45 e4             	mov    -0x1c(%rbp),%eax
  4020c4:	48 98                	cltq   
  4020c6:	48 c1 e0 02          	shl    $0x2,%rax
  4020ca:	48 01 d0             	add    %rdx,%rax
  4020cd:	48 8d 14 00          	lea    (%rax,%rax,1),%rdx
  4020d1:	48 8b 45 d8          	mov    -0x28(%rbp),%rax
  4020d5:	48 01 d0             	add    %rdx,%rax
  4020d8:	be 00 00 00 00       	mov    $0x0,%esi
  4020dd:	48 89 c7             	mov    %rax,%rdi
  4020e0:	e8 a7 f5 ff ff       	call   40168c <_ZN11Signed12BitaSEi>
  4020e5:	48 8b 45 d8          	mov    -0x28(%rbp),%rax
  4020e9:	c6 40 20 01          	movb   $0x1,0x20(%rax)
  4020ed:	83 6d e8 01          	subl   $0x1,-0x18(%rbp)
  4020f1:	83 7d e8 00          	cmpl   $0x0,-0x18(%rbp)
  4020f5:	0f 89 1c fe ff ff    	jns    401f17 <_ZN8Game20488moveDownEv+0x25>
  4020fb:	83 45 ec 01          	addl   $0x1,-0x14(%rbp)
  4020ff:	83 7d ec 03          	cmpl   $0x3,-0x14(%rbp)
  402103:	0f 8e 02 fe ff ff    	jle    401f0b <_ZN8Game20488moveDownEv+0x19>
  402109:	90                   	nop
  40210a:	90                   	nop
  40210b:	48 8b 5d f8          	mov    -0x8(%rbp),%rbx
  40210f:	c9                   	leave  
  402110:	c3                   	ret    
  402111:	90                   	nop

0000000000402112 <_ZN8Game20488moveLeftEv>:
  402112:	55                   	push   %rbp
  402113:	48 89 e5             	mov    %rsp,%rbp
  402116:	53                   	push   %rbx
  402117:	48 83 ec 28          	sub    $0x28,%rsp
  40211b:	48 89 7d d8          	mov    %rdi,-0x28(%rbp)
  40211f:	c7 45 ec 00 00 00 00 	movl   $0x0,-0x14(%rbp)
  402126:	e9 f0 01 00 00       	jmp    40231b <_ZN8Game20488moveLeftEv+0x209>
  40212b:	c7 45 e8 01 00 00 00 	movl   $0x1,-0x18(%rbp)
  402132:	e9 d6 01 00 00       	jmp    40230d <_ZN8Game20488moveLeftEv+0x1fb>
  402137:	8b 45 e8             	mov    -0x18(%rbp),%eax
  40213a:	48 63 d0             	movslq %eax,%rdx
  40213d:	8b 45 ec             	mov    -0x14(%rbp),%eax
  402140:	48 98                	cltq   
  402142:	48 c1 e0 02          	shl    $0x2,%rax
  402146:	48 01 d0             	add    %rdx,%rax
  402149:	48 8d 14 00          	lea    (%rax,%rax,1),%rdx
  40214d:	48 8b 45 d8          	mov    -0x28(%rbp),%rax
  402151:	48 01 d0             	add    %rdx,%rax
  402154:	48 89 c7             	mov    %rax,%rdi
  402157:	e8 1e f5 ff ff       	call   40167a <_ZNK11Signed12Bit8getValueEv>
  40215c:	85 c0                	test   %eax,%eax
  40215e:	0f 95 c0             	setne  %al
  402161:	84 c0                	test   %al,%al
  402163:	0f 84 a0 01 00 00    	je     402309 <_ZN8Game20488moveLeftEv+0x1f7>
  402169:	8b 45 e8             	mov    -0x18(%rbp),%eax
  40216c:	89 45 e4             	mov    %eax,-0x1c(%rbp)
  40216f:	eb 6f                	jmp    4021e0 <_ZN8Game20488moveLeftEv+0xce>
  402171:	8b 45 e4             	mov    -0x1c(%rbp),%eax
  402174:	8d 50 ff             	lea    -0x1(%rax),%edx
  402177:	48 8b 45 d8          	mov    -0x28(%rbp),%rax
  40217b:	48 63 ca             	movslq %edx,%rcx
  40217e:	8b 55 ec             	mov    -0x14(%rbp),%edx
  402181:	48 63 d2             	movslq %edx,%rdx
  402184:	48 c1 e2 02          	shl    $0x2,%rdx
  402188:	48 01 d1             	add    %rdx,%rcx
  40218b:	48 8b 55 d8          	mov    -0x28(%rbp),%rdx
  40218f:	8b 75 e4             	mov    -0x1c(%rbp),%esi
  402192:	48 63 fe             	movslq %esi,%rdi
  402195:	8b 75 ec             	mov    -0x14(%rbp),%esi
  402198:	48 63 f6             	movslq %esi,%rsi
  40219b:	48 c1 e6 02          	shl    $0x2,%rsi
  40219f:	48 01 fe             	add    %rdi,%rsi
  4021a2:	0f b7 14 72          	movzwl (%rdx,%rsi,2),%edx
  4021a6:	66 89 14 48          	mov    %dx,(%rax,%rcx,2)
  4021aa:	8b 45 e4             	mov    -0x1c(%rbp),%eax
  4021ad:	48 63 d0             	movslq %eax,%rdx
  4021b0:	8b 45 ec             	mov    -0x14(%rbp),%eax
  4021b3:	48 98                	cltq   
  4021b5:	48 c1 e0 02          	shl    $0x2,%rax
  4021b9:	48 01 d0             	add    %rdx,%rax
  4021bc:	48 8d 14 00          	lea    (%rax,%rax,1),%rdx
  4021c0:	48 8b 45 d8          	mov    -0x28(%rbp),%rax
  4021c4:	48 01 d0             	add    %rdx,%rax
  4021c7:	be 00 00 00 00       	mov    $0x0,%esi
  4021cc:	48 89 c7             	mov    %rax,%rdi
  4021cf:	e8 b8 f4 ff ff       	call   40168c <_ZN11Signed12BitaSEi>
  4021d4:	83 6d e4 01          	subl   $0x1,-0x1c(%rbp)
  4021d8:	48 8b 45 d8          	mov    -0x28(%rbp),%rax
  4021dc:	c6 40 20 01          	movb   $0x1,0x20(%rax)
  4021e0:	83 7d e4 00          	cmpl   $0x0,-0x1c(%rbp)
  4021e4:	7e 33                	jle    402219 <_ZN8Game20488moveLeftEv+0x107>
  4021e6:	8b 45 e4             	mov    -0x1c(%rbp),%eax
  4021e9:	83 e8 01             	sub    $0x1,%eax
  4021ec:	48 63 d0             	movslq %eax,%rdx
  4021ef:	8b 45 ec             	mov    -0x14(%rbp),%eax
  4021f2:	48 98                	cltq   
  4021f4:	48 c1 e0 02          	shl    $0x2,%rax
  4021f8:	48 01 d0             	add    %rdx,%rax
  4021fb:	48 8d 14 00          	lea    (%rax,%rax,1),%rdx
  4021ff:	48 8b 45 d8          	mov    -0x28(%rbp),%rax
  402203:	48 01 d0             	add    %rdx,%rax
  402206:	48 89 c7             	mov    %rax,%rdi
  402209:	e8 6c f4 ff ff       	call   40167a <_ZNK11Signed12Bit8getValueEv>
  40220e:	85 c0                	test   %eax,%eax
  402210:	75 07                	jne    402219 <_ZN8Game20488moveLeftEv+0x107>
  402212:	b8 01 00 00 00       	mov    $0x1,%eax
  402217:	eb 05                	jmp    40221e <_ZN8Game20488moveLeftEv+0x10c>
  402219:	b8 00 00 00 00       	mov    $0x0,%eax
  40221e:	84 c0                	test   %al,%al
  402220:	0f 85 4b ff ff ff    	jne    402171 <_ZN8Game20488moveLeftEv+0x5f>
  402226:	83 7d e4 00          	cmpl   $0x0,-0x1c(%rbp)
  40222a:	7e 5a                	jle    402286 <_ZN8Game20488moveLeftEv+0x174>
  40222c:	8b 45 e4             	mov    -0x1c(%rbp),%eax
  40222f:	83 e8 01             	sub    $0x1,%eax
  402232:	48 63 d0             	movslq %eax,%rdx
  402235:	8b 45 ec             	mov    -0x14(%rbp),%eax
  402238:	48 98                	cltq   
  40223a:	48 c1 e0 02          	shl    $0x2,%rax
  40223e:	48 01 d0             	add    %rdx,%rax
  402241:	48 8d 14 00          	lea    (%rax,%rax,1),%rdx
  402245:	48 8b 45 d8          	mov    -0x28(%rbp),%rax
  402249:	48 01 d0             	add    %rdx,%rax
  40224c:	48 89 c7             	mov    %rax,%rdi
  40224f:	e8 26 f4 ff ff       	call   40167a <_ZNK11Signed12Bit8getValueEv>
  402254:	89 c3                	mov    %eax,%ebx
  402256:	8b 45 e4             	mov    -0x1c(%rbp),%eax
  402259:	48 63 d0             	movslq %eax,%rdx
  40225c:	8b 45 ec             	mov    -0x14(%rbp),%eax
  40225f:	48 98                	cltq   
  402261:	48 c1 e0 02          	shl    $0x2,%rax
  402265:	48 01 d0             	add    %rdx,%rax
  402268:	48 8d 14 00          	lea    (%rax,%rax,1),%rdx
  40226c:	48 8b 45 d8          	mov    -0x28(%rbp),%rax
  402270:	48 01 d0             	add    %rdx,%rax
  402273:	48 89 c7             	mov    %rax,%rdi
  402276:	e8 ff f3 ff ff       	call   40167a <_ZNK11Signed12Bit8getValueEv>
  40227b:	39 c3                	cmp    %eax,%ebx
  40227d:	75 07                	jne    402286 <_ZN8Game20488moveLeftEv+0x174>
  40227f:	b8 01 00 00 00       	mov    $0x1,%eax
  402284:	eb 05                	jmp    40228b <_ZN8Game20488moveLeftEv+0x179>
  402286:	b8 00 00 00 00       	mov    $0x0,%eax
  40228b:	84 c0                	test   %al,%al
  40228d:	74 7a                	je     402309 <_ZN8Game20488moveLeftEv+0x1f7>
  40228f:	8b 45 e4             	mov    -0x1c(%rbp),%eax
  402292:	48 63 d0             	movslq %eax,%rdx
  402295:	8b 45 ec             	mov    -0x14(%rbp),%eax
  402298:	48 98                	cltq   
  40229a:	48 c1 e0 02          	shl    $0x2,%rax
  40229e:	48 01 d0             	add    %rdx,%rax
  4022a1:	48 8d 14 00          	lea    (%rax,%rax,1),%rdx
  4022a5:	48 8b 45 d8          	mov    -0x28(%rbp),%rax
  4022a9:	48 01 c2             	add    %rax,%rdx
  4022ac:	8b 45 e4             	mov    -0x1c(%rbp),%eax
  4022af:	83 e8 01             	sub    $0x1,%eax
  4022b2:	48 63 c8             	movslq %eax,%rcx
  4022b5:	8b 45 ec             	mov    -0x14(%rbp),%eax
  4022b8:	48 98                	cltq   
  4022ba:	48 c1 e0 02          	shl    $0x2,%rax
  4022be:	48 01 c8             	add    %rcx,%rax
  4022c1:	48 8d 0c 00          	lea    (%rax,%rax,1),%rcx
  4022c5:	48 8b 45 d8          	mov    -0x28(%rbp),%rax
  4022c9:	48 01 c8             	add    %rcx,%rax
  4022cc:	48 89 d6             	mov    %rdx,%rsi
  4022cf:	48 89 c7             	mov    %rax,%rdi
  4022d2:	e8 db f3 ff ff       	call   4016b2 <_ZN11Signed12BitpLERKS_>
  4022d7:	8b 45 e4             	mov    -0x1c(%rbp),%eax
  4022da:	48 63 d0             	movslq %eax,%rdx
  4022dd:	8b 45 ec             	mov    -0x14(%rbp),%eax
  4022e0:	48 98                	cltq   
  4022e2:	48 c1 e0 02          	shl    $0x2,%rax
  4022e6:	48 01 d0             	add    %rdx,%rax
  4022e9:	48 8d 14 00          	lea    (%rax,%rax,1),%rdx
  4022ed:	48 8b 45 d8          	mov    -0x28(%rbp),%rax
  4022f1:	48 01 d0             	add    %rdx,%rax
  4022f4:	be 00 00 00 00       	mov    $0x0,%esi
  4022f9:	48 89 c7             	mov    %rax,%rdi
  4022fc:	e8 8b f3 ff ff       	call   40168c <_ZN11Signed12BitaSEi>
  402301:	48 8b 45 d8          	mov    -0x28(%rbp),%rax
  402305:	c6 40 20 01          	movb   $0x1,0x20(%rax)
  402309:	83 45 e8 01          	addl   $0x1,-0x18(%rbp)
  40230d:	83 7d e8 03          	cmpl   $0x3,-0x18(%rbp)
  402311:	0f 8e 20 fe ff ff    	jle    402137 <_ZN8Game20488moveLeftEv+0x25>
  402317:	83 45 ec 01          	addl   $0x1,-0x14(%rbp)
  40231b:	83 7d ec 03          	cmpl   $0x3,-0x14(%rbp)
  40231f:	0f 8e 06 fe ff ff    	jle    40212b <_ZN8Game20488moveLeftEv+0x19>
  402325:	90                   	nop
  402326:	90                   	nop
  402327:	48 8b 5d f8          	mov    -0x8(%rbp),%rbx
  40232b:	c9                   	leave  
  40232c:	c3                   	ret    
  40232d:	90                   	nop

000000000040232e <_ZN8Game20489moveRightEv>:
  40232e:	55                   	push   %rbp
  40232f:	48 89 e5             	mov    %rsp,%rbp
  402332:	53                   	push   %rbx
  402333:	48 83 ec 28          	sub    $0x28,%rsp
  402337:	48 89 7d d8          	mov    %rdi,-0x28(%rbp)
  40233b:	c7 45 ec 00 00 00 00 	movl   $0x0,-0x14(%rbp)
  402342:	e9 f0 01 00 00       	jmp    402537 <_ZN8Game20489moveRightEv+0x209>
  402347:	c7 45 e8 02 00 00 00 	movl   $0x2,-0x18(%rbp)
  40234e:	e9 d6 01 00 00       	jmp    402529 <_ZN8Game20489moveRightEv+0x1fb>
  402353:	8b 45 e8             	mov    -0x18(%rbp),%eax
  402356:	48 63 d0             	movslq %eax,%rdx
  402359:	8b 45 ec             	mov    -0x14(%rbp),%eax
  40235c:	48 98                	cltq   
  40235e:	48 c1 e0 02          	shl    $0x2,%rax
  402362:	48 01 d0             	add    %rdx,%rax
  402365:	48 8d 14 00          	lea    (%rax,%rax,1),%rdx
  402369:	48 8b 45 d8          	mov    -0x28(%rbp),%rax
  40236d:	48 01 d0             	add    %rdx,%rax
  402370:	48 89 c7             	mov    %rax,%rdi
  402373:	e8 02 f3 ff ff       	call   40167a <_ZNK11Signed12Bit8getValueEv>
  402378:	85 c0                	test   %eax,%eax
  40237a:	0f 95 c0             	setne  %al
  40237d:	84 c0                	test   %al,%al
  40237f:	0f 84 a0 01 00 00    	je     402525 <_ZN8Game20489moveRightEv+0x1f7>
  402385:	8b 45 e8             	mov    -0x18(%rbp),%eax
  402388:	89 45 e4             	mov    %eax,-0x1c(%rbp)
  40238b:	eb 6f                	jmp    4023fc <_ZN8Game20489moveRightEv+0xce>
  40238d:	8b 45 e4             	mov    -0x1c(%rbp),%eax
  402390:	8d 50 01             	lea    0x1(%rax),%edx
  402393:	48 8b 45 d8          	mov    -0x28(%rbp),%rax
  402397:	48 63 ca             	movslq %edx,%rcx
  40239a:	8b 55 ec             	mov    -0x14(%rbp),%edx
  40239d:	48 63 d2             	movslq %edx,%rdx
  4023a0:	48 c1 e2 02          	shl    $0x2,%rdx
  4023a4:	48 01 d1             	add    %rdx,%rcx
  4023a7:	48 8b 55 d8          	mov    -0x28(%rbp),%rdx
  4023ab:	8b 75 e4             	mov    -0x1c(%rbp),%esi
  4023ae:	48 63 fe             	movslq %esi,%rdi
  4023b1:	8b 75 ec             	mov    -0x14(%rbp),%esi
  4023b4:	48 63 f6             	movslq %esi,%rsi
  4023b7:	48 c1 e6 02          	shl    $0x2,%rsi
  4023bb:	48 01 fe             	add    %rdi,%rsi
  4023be:	0f b7 14 72          	movzwl (%rdx,%rsi,2),%edx
  4023c2:	66 89 14 48          	mov    %dx,(%rax,%rcx,2)
  4023c6:	8b 45 e4             	mov    -0x1c(%rbp),%eax
  4023c9:	48 63 d0             	movslq %eax,%rdx
  4023cc:	8b 45 ec             	mov    -0x14(%rbp),%eax
  4023cf:	48 98                	cltq   
  4023d1:	48 c1 e0 02          	shl    $0x2,%rax
  4023d5:	48 01 d0             	add    %rdx,%rax
  4023d8:	48 8d 14 00          	lea    (%rax,%rax,1),%rdx
  4023dc:	48 8b 45 d8          	mov    -0x28(%rbp),%rax
  4023e0:	48 01 d0             	add    %rdx,%rax
  4023e3:	be 00 00 00 00       	mov    $0x0,%esi
  4023e8:	48 89 c7             	mov    %rax,%rdi
  4023eb:	e8 9c f2 ff ff       	call   40168c <_ZN11Signed12BitaSEi>
  4023f0:	83 45 e4 01          	addl   $0x1,-0x1c(%rbp)
  4023f4:	48 8b 45 d8          	mov    -0x28(%rbp),%rax
  4023f8:	c6 40 20 01          	movb   $0x1,0x20(%rax)
  4023fc:	83 7d e4 02          	cmpl   $0x2,-0x1c(%rbp)
  402400:	7f 33                	jg     402435 <_ZN8Game20489moveRightEv+0x107>
  402402:	8b 45 e4             	mov    -0x1c(%rbp),%eax
  402405:	83 c0 01             	add    $0x1,%eax
  402408:	48 63 d0             	movslq %eax,%rdx
  40240b:	8b 45 ec             	mov    -0x14(%rbp),%eax
  40240e:	48 98                	cltq   
  402410:	48 c1 e0 02          	shl    $0x2,%rax
  402414:	48 01 d0             	add    %rdx,%rax
  402417:	48 8d 14 00          	lea    (%rax,%rax,1),%rdx
  40241b:	48 8b 45 d8          	mov    -0x28(%rbp),%rax
  40241f:	48 01 d0             	add    %rdx,%rax
  402422:	48 89 c7             	mov    %rax,%rdi
  402425:	e8 50 f2 ff ff       	call   40167a <_ZNK11Signed12Bit8getValueEv>
  40242a:	85 c0                	test   %eax,%eax
  40242c:	75 07                	jne    402435 <_ZN8Game20489moveRightEv+0x107>
  40242e:	b8 01 00 00 00       	mov    $0x1,%eax
  402433:	eb 05                	jmp    40243a <_ZN8Game20489moveRightEv+0x10c>
  402435:	b8 00 00 00 00       	mov    $0x0,%eax
  40243a:	84 c0                	test   %al,%al
  40243c:	0f 85 4b ff ff ff    	jne    40238d <_ZN8Game20489moveRightEv+0x5f>
  402442:	83 7d e4 02          	cmpl   $0x2,-0x1c(%rbp)
  402446:	7f 5a                	jg     4024a2 <_ZN8Game20489moveRightEv+0x174>
  402448:	8b 45 e4             	mov    -0x1c(%rbp),%eax
  40244b:	83 c0 01             	add    $0x1,%eax
  40244e:	48 63 d0             	movslq %eax,%rdx
  402451:	8b 45 ec             	mov    -0x14(%rbp),%eax
  402454:	48 98                	cltq   
  402456:	48 c1 e0 02          	shl    $0x2,%rax
  40245a:	48 01 d0             	add    %rdx,%rax
  40245d:	48 8d 14 00          	lea    (%rax,%rax,1),%rdx
  402461:	48 8b 45 d8          	mov    -0x28(%rbp),%rax
  402465:	48 01 d0             	add    %rdx,%rax
  402468:	48 89 c7             	mov    %rax,%rdi
  40246b:	e8 0a f2 ff ff       	call   40167a <_ZNK11Signed12Bit8getValueEv>
  402470:	89 c3                	mov    %eax,%ebx
  402472:	8b 45 e4             	mov    -0x1c(%rbp),%eax
  402475:	48 63 d0             	movslq %eax,%rdx
  402478:	8b 45 ec             	mov    -0x14(%rbp),%eax
  40247b:	48 98                	cltq   
  40247d:	48 c1 e0 02          	shl    $0x2,%rax
  402481:	48 01 d0             	add    %rdx,%rax
  402484:	48 8d 14 00          	lea    (%rax,%rax,1),%rdx
  402488:	48 8b 45 d8          	mov    -0x28(%rbp),%rax
  40248c:	48 01 d0             	add    %rdx,%rax
  40248f:	48 89 c7             	mov    %rax,%rdi
  402492:	e8 e3 f1 ff ff       	call   40167a <_ZNK11Signed12Bit8getValueEv>
  402497:	39 c3                	cmp    %eax,%ebx
  402499:	75 07                	jne    4024a2 <_ZN8Game20489moveRightEv+0x174>
  40249b:	b8 01 00 00 00       	mov    $0x1,%eax
  4024a0:	eb 05                	jmp    4024a7 <_ZN8Game20489moveRightEv+0x179>
  4024a2:	b8 00 00 00 00       	mov    $0x0,%eax
  4024a7:	84 c0                	test   %al,%al
  4024a9:	74 7a                	je     402525 <_ZN8Game20489moveRightEv+0x1f7>
  4024ab:	8b 45 e4             	mov    -0x1c(%rbp),%eax
  4024ae:	48 63 d0             	movslq %eax,%rdx
  4024b1:	8b 45 ec             	mov    -0x14(%rbp),%eax
  4024b4:	48 98                	cltq   
  4024b6:	48 c1 e0 02          	shl    $0x2,%rax
  4024ba:	48 01 d0             	add    %rdx,%rax
  4024bd:	48 8d 14 00          	lea    (%rax,%rax,1),%rdx
  4024c1:	48 8b 45 d8          	mov    -0x28(%rbp),%rax
  4024c5:	48 01 c2             	add    %rax,%rdx
  4024c8:	8b 45 e4             	mov    -0x1c(%rbp),%eax
  4024cb:	83 c0 01             	add    $0x1,%eax
  4024ce:	48 63 c8             	movslq %eax,%rcx
  4024d1:	8b 45 ec             	mov    -0x14(%rbp),%eax
  4024d4:	48 98                	cltq   
  4024d6:	48 c1 e0 02          	shl    $0x2,%rax
  4024da:	48 01 c8             	add    %rcx,%rax
  4024dd:	48 8d 0c 00          	lea    (%rax,%rax,1),%rcx
  4024e1:	48 8b 45 d8          	mov    -0x28(%rbp),%rax
  4024e5:	48 01 c8             	add    %rcx,%rax
  4024e8:	48 89 d6             	mov    %rdx,%rsi
  4024eb:	48 89 c7             	mov    %rax,%rdi
  4024ee:	e8 bf f1 ff ff       	call   4016b2 <_ZN11Signed12BitpLERKS_>
  4024f3:	8b 45 e4             	mov    -0x1c(%rbp),%eax
  4024f6:	48 63 d0             	movslq %eax,%rdx
  4024f9:	8b 45 ec             	mov    -0x14(%rbp),%eax
  4024fc:	48 98                	cltq   
  4024fe:	48 c1 e0 02          	shl    $0x2,%rax
  402502:	48 01 d0             	add    %rdx,%rax
  402505:	48 8d 14 00          	lea    (%rax,%rax,1),%rdx
  402509:	48 8b 45 d8          	mov    -0x28(%rbp),%rax
  40250d:	48 01 d0             	add    %rdx,%rax
  402510:	be 00 00 00 00       	mov    $0x0,%esi
  402515:	48 89 c7             	mov    %rax,%rdi
  402518:	e8 6f f1 ff ff       	call   40168c <_ZN11Signed12BitaSEi>
  40251d:	48 8b 45 d8          	mov    -0x28(%rbp),%rax
  402521:	c6 40 20 01          	movb   $0x1,0x20(%rax)
  402525:	83 6d e8 01          	subl   $0x1,-0x18(%rbp)
  402529:	83 7d e8 00          	cmpl   $0x0,-0x18(%rbp)
  40252d:	0f 89 20 fe ff ff    	jns    402353 <_ZN8Game20489moveRightEv+0x25>
  402533:	83 45 ec 01          	addl   $0x1,-0x14(%rbp)
  402537:	83 7d ec 03          	cmpl   $0x3,-0x14(%rbp)
  40253b:	0f 8e 06 fe ff ff    	jle    402347 <_ZN8Game20489moveRightEv+0x19>
  402541:	90                   	nop
  402542:	90                   	nop
  402543:	48 8b 5d f8          	mov    -0x8(%rbp),%rbx
  402547:	c9                   	leave  
  402548:	c3                   	ret    
  402549:	90                   	nop

000000000040254a <_ZNSt12_Vector_baseISt4pairIiiESaIS1_EE12_Vector_implC1Ev>:
  40254a:	55                   	push   %rbp
  40254b:	48 89 e5             	mov    %rsp,%rbp
  40254e:	48 83 ec 10          	sub    $0x10,%rsp
  402552:	48 89 7d f8          	mov    %rdi,-0x8(%rbp)
  402556:	48 8b 45 f8          	mov    -0x8(%rbp),%rax
  40255a:	48 89 c7             	mov    %rax,%rdi
  40255d:	e8 b6 01 00 00       	call   402718 <_ZNSaISt4pairIiiEEC1Ev>
  402562:	48 8b 45 f8          	mov    -0x8(%rbp),%rax
  402566:	48 89 c7             	mov    %rax,%rdi
  402569:	e8 c6 01 00 00       	call   402734 <_ZNSt12_Vector_baseISt4pairIiiESaIS1_EE17_Vector_impl_dataC1Ev>
  40256e:	90                   	nop
  40256f:	c9                   	leave  
  402570:	c3                   	ret    
  402571:	90                   	nop

0000000000402572 <_ZNSaISt4pairIiiEED1Ev>:
  402572:	55                   	push   %rbp
  402573:	48 89 e5             	mov    %rsp,%rbp
  402576:	48 83 ec 10          	sub    $0x10,%rsp
  40257a:	48 89 7d f8          	mov    %rdi,-0x8(%rbp)
  40257e:	48 8b 45 f8          	mov    -0x8(%rbp),%rax
  402582:	48 89 c7             	mov    %rax,%rdi
  402585:	e8 d8 01 00 00       	call   402762 <_ZN9__gnu_cxx13new_allocatorISt4pairIiiEED1Ev>
  40258a:	90                   	nop
  40258b:	c9                   	leave  
  40258c:	c3                   	ret    
  40258d:	90                   	nop

000000000040258e <_ZNSt12_Vector_baseISt4pairIiiESaIS1_EED1Ev>:
  40258e:	55                   	push   %rbp
  40258f:	48 89 e5             	mov    %rsp,%rbp
  402592:	48 83 ec 10          	sub    $0x10,%rsp
  402596:	48 89 7d f8          	mov    %rdi,-0x8(%rbp)
  40259a:	48 8b 45 f8          	mov    -0x8(%rbp),%rax
  40259e:	48 8b 50 10          	mov    0x10(%rax),%rdx
  4025a2:	48 8b 45 f8          	mov    -0x8(%rbp),%rax
  4025a6:	48 8b 08             	mov    (%rax),%rcx
  4025a9:	48 89 d0             	mov    %rdx,%rax
  4025ac:	48 29 c8             	sub    %rcx,%rax
  4025af:	48 c1 f8 03          	sar    $0x3,%rax
  4025b3:	48 89 c2             	mov    %rax,%rdx
  4025b6:	48 8b 45 f8          	mov    -0x8(%rbp),%rax
  4025ba:	48 8b 08             	mov    (%rax),%rcx
  4025bd:	48 8b 45 f8          	mov    -0x8(%rbp),%rax
  4025c1:	48 89 ce             	mov    %rcx,%rsi
  4025c4:	48 89 c7             	mov    %rax,%rdi
  4025c7:	e8 a2 01 00 00       	call   40276e <_ZNSt12_Vector_baseISt4pairIiiESaIS1_EE13_M_deallocateEPS1_m>
  4025cc:	48 8b 45 f8          	mov    -0x8(%rbp),%rax
  4025d0:	48 89 c7             	mov    %rax,%rdi
  4025d3:	e8 8e f2 ff ff       	call   401866 <_ZNSt12_Vector_baseISt4pairIiiESaIS1_EE12_Vector_implD1Ev>
  4025d8:	90                   	nop
  4025d9:	c9                   	leave  
  4025da:	c3                   	ret    
  4025db:	90                   	nop

00000000004025dc <_ZNSt6vectorISt4pairIiiESaIS1_EED1Ev>:
  4025dc:	55                   	push   %rbp
  4025dd:	48 89 e5             	mov    %rsp,%rbp
  4025e0:	48 83 ec 10          	sub    $0x10,%rsp
  4025e4:	48 89 7d f8          	mov    %rdi,-0x8(%rbp)
  4025e8:	48 8b 45 f8          	mov    -0x8(%rbp),%rax
  4025ec:	48 89 c7             	mov    %rax,%rdi
  4025ef:	e8 b0 01 00 00       	call   4027a4 <_ZNSt12_Vector_baseISt4pairIiiESaIS1_EE19_M_get_Tp_allocatorEv>
  4025f4:	48 89 c2             	mov    %rax,%rdx
  4025f7:	48 8b 45 f8          	mov    -0x8(%rbp),%rax
  4025fb:	48 8b 48 08          	mov    0x8(%rax),%rcx
  4025ff:	48 8b 45 f8          	mov    -0x8(%rbp),%rax
  402603:	48 8b 00             	mov    (%rax),%rax
  402606:	48 89 ce             	mov    %rcx,%rsi
  402609:	48 89 c7             	mov    %rax,%rdi
  40260c:	e8 a1 01 00 00       	call   4027b2 <_ZSt8_DestroyIPSt4pairIiiES1_EvT_S3_RSaIT0_E>
  402611:	48 8b 45 f8          	mov    -0x8(%rbp),%rax
  402615:	48 89 c7             	mov    %rax,%rdi
  402618:	e8 71 ff ff ff       	call   40258e <_ZNSt12_Vector_baseISt4pairIiiESaIS1_EED1Ev>
  40261d:	90                   	nop
  40261e:	c9                   	leave  
  40261f:	c3                   	ret    

0000000000402620 <_ZNSt4pairIiiEC1IRiS2_Lb1EEEOT_OT0_>:
  402620:	55                   	push   %rbp
  402621:	48 89 e5             	mov    %rsp,%rbp
  402624:	48 83 ec 20          	sub    $0x20,%rsp
  402628:	48 89 7d f8          	mov    %rdi,-0x8(%rbp)
  40262c:	48 89 75 f0          	mov    %rsi,-0x10(%rbp)
  402630:	48 89 55 e8          	mov    %rdx,-0x18(%rbp)
  402634:	48 8b 45 f0          	mov    -0x10(%rbp),%rax
  402638:	48 89 c7             	mov    %rax,%rdi
  40263b:	e8 9c 01 00 00       	call   4027dc <_ZSt7forwardIRiEOT_RNSt16remove_referenceIS1_E4typeE>
  402640:	8b 10                	mov    (%rax),%edx
  402642:	48 8b 45 f8          	mov    -0x8(%rbp),%rax
  402646:	89 10                	mov    %edx,(%rax)
  402648:	48 8b 45 e8          	mov    -0x18(%rbp),%rax
  40264c:	48 89 c7             	mov    %rax,%rdi
  40264f:	e8 88 01 00 00       	call   4027dc <_ZSt7forwardIRiEOT_RNSt16remove_referenceIS1_E4typeE>
  402654:	8b 10                	mov    (%rax),%edx
  402656:	48 8b 45 f8          	mov    -0x8(%rbp),%rax
  40265a:	89 50 04             	mov    %edx,0x4(%rax)
  40265d:	90                   	nop
  40265e:	c9                   	leave  
  40265f:	c3                   	ret    

0000000000402660 <_ZNSt6vectorISt4pairIiiESaIS1_EE9push_backEOS1_>:
  402660:	55                   	push   %rbp
  402661:	48 89 e5             	mov    %rsp,%rbp
  402664:	48 83 ec 10          	sub    $0x10,%rsp
  402668:	48 89 7d f8          	mov    %rdi,-0x8(%rbp)
  40266c:	48 89 75 f0          	mov    %rsi,-0x10(%rbp)
  402670:	48 8b 45 f0          	mov    -0x10(%rbp),%rax
  402674:	48 89 c7             	mov    %rax,%rdi
  402677:	e8 6e 01 00 00       	call   4027ea <_ZSt4moveIRSt4pairIiiEEONSt16remove_referenceIT_E4typeEOS4_>
  40267c:	48 89 c2             	mov    %rax,%rdx
  40267f:	48 8b 45 f8          	mov    -0x8(%rbp),%rax
  402683:	48 89 d6             	mov    %rdx,%rsi
  402686:	48 89 c7             	mov    %rax,%rdi
  402689:	e8 6a 01 00 00       	call   4027f8 <_ZNSt6vectorISt4pairIiiESaIS1_EE12emplace_backIJS1_EEEvDpOT_>
  40268e:	90                   	nop
  40268f:	c9                   	leave  
  402690:	c3                   	ret    
  402691:	90                   	nop

0000000000402692 <_ZNKSt6vectorISt4pairIiiESaIS1_EE5emptyEv>:
  402692:	55                   	push   %rbp
  402693:	48 89 e5             	mov    %rsp,%rbp
  402696:	48 83 ec 20          	sub    $0x20,%rsp
  40269a:	48 89 7d e8          	mov    %rdi,-0x18(%rbp)
  40269e:	48 8b 45 e8          	mov    -0x18(%rbp),%rax
  4026a2:	48 89 c7             	mov    %rax,%rdi
  4026a5:	e8 0e 02 00 00       	call   4028b8 <_ZNKSt6vectorISt4pairIiiESaIS1_EE3endEv>
  4026aa:	48 89 45 f0          	mov    %rax,-0x10(%rbp)
  4026ae:	48 8b 45 e8          	mov    -0x18(%rbp),%rax
  4026b2:	48 89 c7             	mov    %rax,%rdi
  4026b5:	e8 d8 01 00 00       	call   402892 <_ZNKSt6vectorISt4pairIiiESaIS1_EE5beginEv>
  4026ba:	48 89 45 f8          	mov    %rax,-0x8(%rbp)
  4026be:	48 8d 55 f0          	lea    -0x10(%rbp),%rdx
  4026c2:	48 8d 45 f8          	lea    -0x8(%rbp),%rax
  4026c6:	48 89 d6             	mov    %rdx,%rsi
  4026c9:	48 89 c7             	mov    %rax,%rdi
  4026cc:	e8 10 02 00 00       	call   4028e1 <_ZN9__gnu_cxxeqIPKSt4pairIiiESt6vectorIS2_SaIS2_EEEEbRKNS_17__normal_iteratorIT_T0_EESD_>
  4026d1:	c9                   	leave  
  4026d2:	c3                   	ret    
  4026d3:	90                   	nop

00000000004026d4 <_ZNKSt6vectorISt4pairIiiESaIS1_EE4sizeEv>:
  4026d4:	55                   	push   %rbp
  4026d5:	48 89 e5             	mov    %rsp,%rbp
  4026d8:	48 89 7d f8          	mov    %rdi,-0x8(%rbp)
  4026dc:	48 8b 45 f8          	mov    -0x8(%rbp),%rax
  4026e0:	48 8b 50 08          	mov    0x8(%rax),%rdx
  4026e4:	48 8b 45 f8          	mov    -0x8(%rbp),%rax
  4026e8:	48 8b 08             	mov    (%rax),%rcx
  4026eb:	48 89 d0             	mov    %rdx,%rax
  4026ee:	48 29 c8             	sub    %rcx,%rax
  4026f1:	48 c1 f8 03          	sar    $0x3,%rax
  4026f5:	5d                   	pop    %rbp
  4026f6:	c3                   	ret    
  4026f7:	90                   	nop

00000000004026f8 <_ZNSt6vectorISt4pairIiiESaIS1_EEixEm>:
  4026f8:	55                   	push   %rbp
  4026f9:	48 89 e5             	mov    %rsp,%rbp
  4026fc:	48 89 7d f8          	mov    %rdi,-0x8(%rbp)
  402700:	48 89 75 f0          	mov    %rsi,-0x10(%rbp)
  402704:	48 8b 45 f8          	mov    -0x8(%rbp),%rax
  402708:	48 8b 10             	mov    (%rax),%rdx
  40270b:	48 8b 45 f0          	mov    -0x10(%rbp),%rax
  40270f:	48 c1 e0 03          	shl    $0x3,%rax
  402713:	48 01 d0             	add    %rdx,%rax
  402716:	5d                   	pop    %rbp
  402717:	c3                   	ret    

0000000000402718 <_ZNSaISt4pairIiiEEC1Ev>:
  402718:	55                   	push   %rbp
  402719:	48 89 e5             	mov    %rsp,%rbp
  40271c:	48 83 ec 10          	sub    $0x10,%rsp
  402720:	48 89 7d f8          	mov    %rdi,-0x8(%rbp)
  402724:	48 8b 45 f8          	mov    -0x8(%rbp),%rax
  402728:	48 89 c7             	mov    %rax,%rdi
  40272b:	e8 ec 01 00 00       	call   40291c <_ZN9__gnu_cxx13new_allocatorISt4pairIiiEEC1Ev>
  402730:	90                   	nop
  402731:	c9                   	leave  
  402732:	c3                   	ret    
  402733:	90                   	nop

0000000000402734 <_ZNSt12_Vector_baseISt4pairIiiESaIS1_EE17_Vector_impl_dataC1Ev>:
  402734:	55                   	push   %rbp
  402735:	48 89 e5             	mov    %rsp,%rbp
  402738:	48 89 7d f8          	mov    %rdi,-0x8(%rbp)
  40273c:	48 8b 45 f8          	mov    -0x8(%rbp),%rax
  402740:	48 c7 00 00 00 00 00 	movq   $0x0,(%rax)
  402747:	48 8b 45 f8          	mov    -0x8(%rbp),%rax
  40274b:	48 c7 40 08 00 00 00 	movq   $0x0,0x8(%rax)
  402752:	00 
  402753:	48 8b 45 f8          	mov    -0x8(%rbp),%rax
  402757:	48 c7 40 10 00 00 00 	movq   $0x0,0x10(%rax)
  40275e:	00 
  40275f:	90                   	nop
  402760:	5d                   	pop    %rbp
  402761:	c3                   	ret    

0000000000402762 <_ZN9__gnu_cxx13new_allocatorISt4pairIiiEED1Ev>:
  402762:	55                   	push   %rbp
  402763:	48 89 e5             	mov    %rsp,%rbp
  402766:	48 89 7d f8          	mov    %rdi,-0x8(%rbp)
  40276a:	90                   	nop
  40276b:	5d                   	pop    %rbp
  40276c:	c3                   	ret    
  40276d:	90                   	nop

000000000040276e <_ZNSt12_Vector_baseISt4pairIiiESaIS1_EE13_M_deallocateEPS1_m>:
  40276e:	55                   	push   %rbp
  40276f:	48 89 e5             	mov    %rsp,%rbp
  402772:	48 83 ec 20          	sub    $0x20,%rsp
  402776:	48 89 7d f8          	mov    %rdi,-0x8(%rbp)
  40277a:	48 89 75 f0          	mov    %rsi,-0x10(%rbp)
  40277e:	48 89 55 e8          	mov    %rdx,-0x18(%rbp)
  402782:	48 83 7d f0 00       	cmpq   $0x0,-0x10(%rbp)
  402787:	74 17                	je     4027a0 <_ZNSt12_Vector_baseISt4pairIiiESaIS1_EE13_M_deallocateEPS1_m+0x32>
  402789:	48 8b 45 f8          	mov    -0x8(%rbp),%rax
  40278d:	48 8b 55 e8          	mov    -0x18(%rbp),%rdx
  402791:	48 8b 4d f0          	mov    -0x10(%rbp),%rcx
  402795:	48 89 ce             	mov    %rcx,%rsi
  402798:	48 89 c7             	mov    %rax,%rdi
  40279b:	e8 87 01 00 00       	call   402927 <_ZNSt16allocator_traitsISaISt4pairIiiEEE10deallocateERS2_PS1_m>
  4027a0:	90                   	nop
  4027a1:	c9                   	leave  
  4027a2:	c3                   	ret    
  4027a3:	90                   	nop

00000000004027a4 <_ZNSt12_Vector_baseISt4pairIiiESaIS1_EE19_M_get_Tp_allocatorEv>:
  4027a4:	55                   	push   %rbp
  4027a5:	48 89 e5             	mov    %rsp,%rbp
  4027a8:	48 89 7d f8          	mov    %rdi,-0x8(%rbp)
  4027ac:	48 8b 45 f8          	mov    -0x8(%rbp),%rax
  4027b0:	5d                   	pop    %rbp
  4027b1:	c3                   	ret    

00000000004027b2 <_ZSt8_DestroyIPSt4pairIiiES1_EvT_S3_RSaIT0_E>:
  4027b2:	55                   	push   %rbp
  4027b3:	48 89 e5             	mov    %rsp,%rbp
  4027b6:	48 83 ec 20          	sub    $0x20,%rsp
  4027ba:	48 89 7d f8          	mov    %rdi,-0x8(%rbp)
  4027be:	48 89 75 f0          	mov    %rsi,-0x10(%rbp)
  4027c2:	48 89 55 e8          	mov    %rdx,-0x18(%rbp)
  4027c6:	48 8b 55 f0          	mov    -0x10(%rbp),%rdx
  4027ca:	48 8b 45 f8          	mov    -0x8(%rbp),%rax
  4027ce:	48 89 d6             	mov    %rdx,%rsi
  4027d1:	48 89 c7             	mov    %rax,%rdi
  4027d4:	e8 7c 01 00 00       	call   402955 <_ZSt8_DestroyIPSt4pairIiiEEvT_S3_>
  4027d9:	90                   	nop
  4027da:	c9                   	leave  
  4027db:	c3                   	ret    

00000000004027dc <_ZSt7forwardIRiEOT_RNSt16remove_referenceIS1_E4typeE>:
  4027dc:	55                   	push   %rbp
  4027dd:	48 89 e5             	mov    %rsp,%rbp
  4027e0:	48 89 7d f8          	mov    %rdi,-0x8(%rbp)
  4027e4:	48 8b 45 f8          	mov    -0x8(%rbp),%rax
  4027e8:	5d                   	pop    %rbp
  4027e9:	c3                   	ret    

00000000004027ea <_ZSt4moveIRSt4pairIiiEEONSt16remove_referenceIT_E4typeEOS4_>:
  4027ea:	55                   	push   %rbp
  4027eb:	48 89 e5             	mov    %rsp,%rbp
  4027ee:	48 89 7d f8          	mov    %rdi,-0x8(%rbp)
  4027f2:	48 8b 45 f8          	mov    -0x8(%rbp),%rax
  4027f6:	5d                   	pop    %rbp
  4027f7:	c3                   	ret    

00000000004027f8 <_ZNSt6vectorISt4pairIiiESaIS1_EE12emplace_backIJS1_EEEvDpOT_>:
  4027f8:	55                   	push   %rbp
  4027f9:	48 89 e5             	mov    %rsp,%rbp
  4027fc:	53                   	push   %rbx
  4027fd:	48 83 ec 18          	sub    $0x18,%rsp
  402801:	48 89 7d e8          	mov    %rdi,-0x18(%rbp)
  402805:	48 89 75 e0          	mov    %rsi,-0x20(%rbp)
  402809:	48 8b 45 e8          	mov    -0x18(%rbp),%rax
  40280d:	48 8b 50 08          	mov    0x8(%rax),%rdx
  402811:	48 8b 45 e8          	mov    -0x18(%rbp),%rax
  402815:	48 8b 40 10          	mov    0x10(%rax),%rax
  402819:	48 39 c2             	cmp    %rax,%rdx
  40281c:	74 3c                	je     40285a <_ZNSt6vectorISt4pairIiiESaIS1_EE12emplace_backIJS1_EEEvDpOT_+0x62>
  40281e:	48 8b 45 e0          	mov    -0x20(%rbp),%rax
  402822:	48 89 c7             	mov    %rax,%rdi
  402825:	e8 51 01 00 00       	call   40297b <_ZSt7forwardISt4pairIiiEEOT_RNSt16remove_referenceIS2_E4typeE>
  40282a:	48 89 c2             	mov    %rax,%rdx
  40282d:	48 8b 45 e8          	mov    -0x18(%rbp),%rax
  402831:	48 8b 48 08          	mov    0x8(%rax),%rcx
  402835:	48 8b 45 e8          	mov    -0x18(%rbp),%rax
  402839:	48 89 ce             	mov    %rcx,%rsi
  40283c:	48 89 c7             	mov    %rax,%rdi
  40283f:	e8 45 01 00 00       	call   402989 <_ZNSt16allocator_traitsISaISt4pairIiiEEE9constructIS1_JS1_EEEvRS2_PT_DpOT0_>
  402844:	48 8b 45 e8          	mov    -0x18(%rbp),%rax
  402848:	48 8b 40 08          	mov    0x8(%rax),%rax
  40284c:	48 8d 50 08          	lea    0x8(%rax),%rdx
  402850:	48 8b 45 e8          	mov    -0x18(%rbp),%rax
  402854:	48 89 50 08          	mov    %rdx,0x8(%rax)
  402858:	eb 30                	jmp    40288a <_ZNSt6vectorISt4pairIiiESaIS1_EE12emplace_backIJS1_EEEvDpOT_+0x92>
  40285a:	48 8b 45 e0          	mov    -0x20(%rbp),%rax
  40285e:	48 89 c7             	mov    %rax,%rdi
  402861:	e8 15 01 00 00       	call   40297b <_ZSt7forwardISt4pairIiiEEOT_RNSt16remove_referenceIS2_E4typeE>
  402866:	48 89 c3             	mov    %rax,%rbx
  402869:	48 8b 45 e8          	mov    -0x18(%rbp),%rax
  40286d:	48 89 c7             	mov    %rax,%rdi
  402870:	e8 4d 01 00 00       	call   4029c2 <_ZNSt6vectorISt4pairIiiESaIS1_EE3endEv>
  402875:	48 89 c1             	mov    %rax,%rcx
  402878:	48 8b 45 e8          	mov    -0x18(%rbp),%rax
  40287c:	48 89 da             	mov    %rbx,%rdx
  40287f:	48 89 ce             	mov    %rcx,%rsi
  402882:	48 89 c7             	mov    %rax,%rdi
  402885:	e8 7c 01 00 00       	call   402a06 <_ZNSt6vectorISt4pairIiiESaIS1_EE17_M_realloc_insertIJS1_EEEvN9__gnu_cxx17__normal_iteratorIPS1_S3_EEDpOT_>
  40288a:	90                   	nop
  40288b:	48 8b 5d f8          	mov    -0x8(%rbp),%rbx
  40288f:	c9                   	leave  
  402890:	c3                   	ret    
  402891:	90                   	nop

0000000000402892 <_ZNKSt6vectorISt4pairIiiESaIS1_EE5beginEv>:
  402892:	55                   	push   %rbp
  402893:	48 89 e5             	mov    %rsp,%rbp
  402896:	48 83 ec 20          	sub    $0x20,%rsp
  40289a:	48 89 7d e8          	mov    %rdi,-0x18(%rbp)
  40289e:	48 8b 55 e8          	mov    -0x18(%rbp),%rdx
  4028a2:	48 8d 45 f8          	lea    -0x8(%rbp),%rax
  4028a6:	48 89 d6             	mov    %rdx,%rsi
  4028a9:	48 89 c7             	mov    %rax,%rdi
  4028ac:	e8 15 04 00 00       	call   402cc6 <_ZN9__gnu_cxx17__normal_iteratorIPKSt4pairIiiESt6vectorIS2_SaIS2_EEEC1ERKS4_>
  4028b1:	48 8b 45 f8          	mov    -0x8(%rbp),%rax
  4028b5:	c9                   	leave  
  4028b6:	c3                   	ret    
  4028b7:	90                   	nop

00000000004028b8 <_ZNKSt6vectorISt4pairIiiESaIS1_EE3endEv>:
  4028b8:	55                   	push   %rbp
  4028b9:	48 89 e5             	mov    %rsp,%rbp
  4028bc:	48 83 ec 20          	sub    $0x20,%rsp
  4028c0:	48 89 7d e8          	mov    %rdi,-0x18(%rbp)
  4028c4:	48 8b 45 e8          	mov    -0x18(%rbp),%rax
  4028c8:	48 8d 50 08          	lea    0x8(%rax),%rdx
  4028cc:	48 8d 45 f8          	lea    -0x8(%rbp),%rax
  4028d0:	48 89 d6             	mov    %rdx,%rsi
  4028d3:	48 89 c7             	mov    %rax,%rdi
  4028d6:	e8 eb 03 00 00       	call   402cc6 <_ZN9__gnu_cxx17__normal_iteratorIPKSt4pairIiiESt6vectorIS2_SaIS2_EEEC1ERKS4_>
  4028db:	48 8b 45 f8          	mov    -0x8(%rbp),%rax
  4028df:	c9                   	leave  
  4028e0:	c3                   	ret    

00000000004028e1 <_ZN9__gnu_cxxeqIPKSt4pairIiiESt6vectorIS2_SaIS2_EEEEbRKNS_17__normal_iteratorIT_T0_EESD_>:
  4028e1:	55                   	push   %rbp
  4028e2:	48 89 e5             	mov    %rsp,%rbp
  4028e5:	53                   	push   %rbx
  4028e6:	48 83 ec 18          	sub    $0x18,%rsp
  4028ea:	48 89 7d e8          	mov    %rdi,-0x18(%rbp)
  4028ee:	48 89 75 e0          	mov    %rsi,-0x20(%rbp)
  4028f2:	48 8b 45 e8          	mov    -0x18(%rbp),%rax
  4028f6:	48 89 c7             	mov    %rax,%rdi
  4028f9:	e8 e6 03 00 00       	call   402ce4 <_ZNK9__gnu_cxx17__normal_iteratorIPKSt4pairIiiESt6vectorIS2_SaIS2_EEE4baseEv>
  4028fe:	48 8b 18             	mov    (%rax),%rbx
  402901:	48 8b 45 e0          	mov    -0x20(%rbp),%rax
  402905:	48 89 c7             	mov    %rax,%rdi
  402908:	e8 d7 03 00 00       	call   402ce4 <_ZNK9__gnu_cxx17__normal_iteratorIPKSt4pairIiiESt6vectorIS2_SaIS2_EEE4baseEv>
  40290d:	48 8b 00             	mov    (%rax),%rax
  402910:	48 39 c3             	cmp    %rax,%rbx
  402913:	0f 94 c0             	sete   %al
  402916:	48 8b 5d f8          	mov    -0x8(%rbp),%rbx
  40291a:	c9                   	leave  
  40291b:	c3                   	ret    

000000000040291c <_ZN9__gnu_cxx13new_allocatorISt4pairIiiEEC1Ev>:
  40291c:	55                   	push   %rbp
  40291d:	48 89 e5             	mov    %rsp,%rbp
  402920:	48 89 7d f8          	mov    %rdi,-0x8(%rbp)
  402924:	90                   	nop
  402925:	5d                   	pop    %rbp
  402926:	c3                   	ret    

0000000000402927 <_ZNSt16allocator_traitsISaISt4pairIiiEEE10deallocateERS2_PS1_m>:
  402927:	55                   	push   %rbp
  402928:	48 89 e5             	mov    %rsp,%rbp
  40292b:	48 83 ec 20          	sub    $0x20,%rsp
  40292f:	48 89 7d f8          	mov    %rdi,-0x8(%rbp)
  402933:	48 89 75 f0          	mov    %rsi,-0x10(%rbp)
  402937:	48 89 55 e8          	mov    %rdx,-0x18(%rbp)
  40293b:	48 8b 55 e8          	mov    -0x18(%rbp),%rdx
  40293f:	48 8b 4d f0          	mov    -0x10(%rbp),%rcx
  402943:	48 8b 45 f8          	mov    -0x8(%rbp),%rax
  402947:	48 89 ce             	mov    %rcx,%rsi
  40294a:	48 89 c7             	mov    %rax,%rdi
  40294d:	e8 a0 03 00 00       	call   402cf2 <_ZN9__gnu_cxx13new_allocatorISt4pairIiiEE10deallocateEPS2_m>
  402952:	90                   	nop
  402953:	c9                   	leave  
  402954:	c3                   	ret    

0000000000402955 <_ZSt8_DestroyIPSt4pairIiiEEvT_S3_>:
  402955:	55                   	push   %rbp
  402956:	48 89 e5             	mov    %rsp,%rbp
  402959:	48 83 ec 10          	sub    $0x10,%rsp
  40295d:	48 89 7d f8          	mov    %rdi,-0x8(%rbp)
  402961:	48 89 75 f0          	mov    %rsi,-0x10(%rbp)
  402965:	48 8b 55 f0          	mov    -0x10(%rbp),%rdx
  402969:	48 8b 45 f8          	mov    -0x8(%rbp),%rax
  40296d:	48 89 d6             	mov    %rdx,%rsi
  402970:	48 89 c7             	mov    %rax,%rdi
  402973:	e8 9d 03 00 00       	call   402d15 <_ZNSt12_Destroy_auxILb1EE9__destroyIPSt4pairIiiEEEvT_S5_>
  402978:	90                   	nop
  402979:	c9                   	leave  
  40297a:	c3                   	ret    

000000000040297b <_ZSt7forwardISt4pairIiiEEOT_RNSt16remove_referenceIS2_E4typeE>:
  40297b:	55                   	push   %rbp
  40297c:	48 89 e5             	mov    %rsp,%rbp
  40297f:	48 89 7d f8          	mov    %rdi,-0x8(%rbp)
  402983:	48 8b 45 f8          	mov    -0x8(%rbp),%rax
  402987:	5d                   	pop    %rbp
  402988:	c3                   	ret    

0000000000402989 <_ZNSt16allocator_traitsISaISt4pairIiiEEE9constructIS1_JS1_EEEvRS2_PT_DpOT0_>:
  402989:	55                   	push   %rbp
  40298a:	48 89 e5             	mov    %rsp,%rbp
  40298d:	48 83 ec 20          	sub    $0x20,%rsp
  402991:	48 89 7d f8          	mov    %rdi,-0x8(%rbp)
  402995:	48 89 75 f0          	mov    %rsi,-0x10(%rbp)
  402999:	48 89 55 e8          	mov    %rdx,-0x18(%rbp)
  40299d:	48 8b 45 e8          	mov    -0x18(%rbp),%rax
  4029a1:	48 89 c7             	mov    %rax,%rdi
  4029a4:	e8 d2 ff ff ff       	call   40297b <_ZSt7forwardISt4pairIiiEEOT_RNSt16remove_referenceIS2_E4typeE>
  4029a9:	48 89 c2             	mov    %rax,%rdx
  4029ac:	48 8b 4d f0          	mov    -0x10(%rbp),%rcx
  4029b0:	48 8b 45 f8          	mov    -0x8(%rbp),%rax
  4029b4:	48 89 ce             	mov    %rcx,%rsi
  4029b7:	48 89 c7             	mov    %rax,%rdi
  4029ba:	e8 65 03 00 00       	call   402d24 <_ZN9__gnu_cxx13new_allocatorISt4pairIiiEE9constructIS2_JS2_EEEvPT_DpOT0_>
  4029bf:	90                   	nop
  4029c0:	c9                   	leave  
  4029c1:	c3                   	ret    

00000000004029c2 <_ZNSt6vectorISt4pairIiiESaIS1_EE3endEv>:
  4029c2:	55                   	push   %rbp
  4029c3:	48 89 e5             	mov    %rsp,%rbp
  4029c6:	48 83 ec 20          	sub    $0x20,%rsp
  4029ca:	48 89 7d e8          	mov    %rdi,-0x18(%rbp)
  4029ce:	48 8b 45 e8          	mov    -0x18(%rbp),%rax
  4029d2:	48 8d 50 08          	lea    0x8(%rax),%rdx
  4029d6:	48 8d 45 f8          	lea    -0x8(%rbp),%rax
  4029da:	48 89 d6             	mov    %rdx,%rsi
  4029dd:	48 89 c7             	mov    %rax,%rdi
  4029e0:	e8 81 03 00 00       	call   402d66 <_ZN9__gnu_cxx17__normal_iteratorIPSt4pairIiiESt6vectorIS2_SaIS2_EEEC1ERKS3_>
  4029e5:	48 8b 45 f8          	mov    -0x8(%rbp),%rax
  4029e9:	c9                   	leave  
  4029ea:	c3                   	ret    

00000000004029eb <_ZNSt6vectorISt4pairIiiESaIS1_EE15_S_use_relocateEv>:
  4029eb:	55                   	push   %rbp
  4029ec:	48 89 e5             	mov    %rsp,%rbp
  4029ef:	48 83 ec 10          	sub    $0x10,%rsp
  4029f3:	e8 02 00 00 00       	call   4029fa <_ZNSt6vectorISt4pairIiiESaIS1_EE19_S_nothrow_relocateESt17integral_constantIbLb1EE>
  4029f8:	c9                   	leave  
  4029f9:	c3                   	ret    

00000000004029fa <_ZNSt6vectorISt4pairIiiESaIS1_EE19_S_nothrow_relocateESt17integral_constantIbLb1EE>:
  4029fa:	55                   	push   %rbp
  4029fb:	48 89 e5             	mov    %rsp,%rbp
  4029fe:	b8 01 00 00 00       	mov    $0x1,%eax
  402a03:	5d                   	pop    %rbp
  402a04:	c3                   	ret    
  402a05:	90                   	nop

0000000000402a06 <_ZNSt6vectorISt4pairIiiESaIS1_EE17_M_realloc_insertIJS1_EEEvN9__gnu_cxx17__normal_iteratorIPS1_S3_EEDpOT_>:
  402a06:	55                   	push   %rbp
  402a07:	48 89 e5             	mov    %rsp,%rbp
  402a0a:	53                   	push   %rbx
  402a0b:	48 83 ec 68          	sub    $0x68,%rsp
  402a0f:	48 89 7d a8          	mov    %rdi,-0x58(%rbp)
  402a13:	48 89 75 a0          	mov    %rsi,-0x60(%rbp)
  402a17:	48 89 55 98          	mov    %rdx,-0x68(%rbp)
  402a1b:	48 8b 45 a8          	mov    -0x58(%rbp),%rax
  402a1f:	ba f0 40 40 00       	mov    $0x4040f0,%edx
  402a24:	be 01 00 00 00       	mov    $0x1,%esi
  402a29:	48 89 c7             	mov    %rax,%rdi
  402a2c:	e8 53 03 00 00       	call   402d84 <_ZNKSt6vectorISt4pairIiiESaIS1_EE12_M_check_lenEmPKc>
  402a31:	48 89 45 e0          	mov    %rax,-0x20(%rbp)
  402a35:	48 8b 45 a8          	mov    -0x58(%rbp),%rax
  402a39:	48 8b 00             	mov    (%rax),%rax
  402a3c:	48 89 45 d8          	mov    %rax,-0x28(%rbp)
  402a40:	48 8b 45 a8          	mov    -0x58(%rbp),%rax
  402a44:	48 8b 40 08          	mov    0x8(%rax),%rax
  402a48:	48 89 45 d0          	mov    %rax,-0x30(%rbp)
  402a4c:	48 8b 45 a8          	mov    -0x58(%rbp),%rax
  402a50:	48 89 c7             	mov    %rax,%rdi
  402a53:	e8 f4 03 00 00       	call   402e4c <_ZNSt6vectorISt4pairIiiESaIS1_EE5beginEv>
  402a58:	48 89 45 b8          	mov    %rax,-0x48(%rbp)
  402a5c:	48 8d 55 b8          	lea    -0x48(%rbp),%rdx
  402a60:	48 8d 45 a0          	lea    -0x60(%rbp),%rax
  402a64:	48 89 d6             	mov    %rdx,%rsi
  402a67:	48 89 c7             	mov    %rax,%rdi
  402a6a:	e8 02 04 00 00       	call   402e71 <_ZN9__gnu_cxxmiIPSt4pairIiiESt6vectorIS2_SaIS2_EEEENS_17__normal_iteratorIT_T0_E15difference_typeERKSA_SD_>
  402a6f:	48 89 45 c8          	mov    %rax,-0x38(%rbp)
  402a73:	48 8b 45 a8          	mov    -0x58(%rbp),%rax
  402a77:	48 8b 55 e0          	mov    -0x20(%rbp),%rdx
  402a7b:	48 89 d6             	mov    %rdx,%rsi
  402a7e:	48 89 c7             	mov    %rax,%rdi
  402a81:	e8 2a 04 00 00       	call   402eb0 <_ZNSt12_Vector_baseISt4pairIiiESaIS1_EE11_M_allocateEm>
  402a86:	48 89 45 c0          	mov    %rax,-0x40(%rbp)
  402a8a:	48 8b 45 c0          	mov    -0x40(%rbp),%rax
  402a8e:	48 89 45 e8          	mov    %rax,-0x18(%rbp)
  402a92:	48 8b 45 98          	mov    -0x68(%rbp),%rax
  402a96:	48 89 c7             	mov    %rax,%rdi
  402a99:	e8 dd fe ff ff       	call   40297b <_ZSt7forwardISt4pairIiiEEOT_RNSt16remove_referenceIS2_E4typeE>
  402a9e:	48 89 c2             	mov    %rax,%rdx
  402aa1:	48 8b 45 c8          	mov    -0x38(%rbp),%rax
  402aa5:	48 8d 0c c5 00 00 00 	lea    0x0(,%rax,8),%rcx
  402aac:	00 
  402aad:	48 8b 45 c0          	mov    -0x40(%rbp),%rax
  402ab1:	48 01 c1             	add    %rax,%rcx
  402ab4:	48 8b 45 a8          	mov    -0x58(%rbp),%rax
  402ab8:	48 89 ce             	mov    %rcx,%rsi
  402abb:	48 89 c7             	mov    %rax,%rdi
  402abe:	e8 c6 fe ff ff       	call   402989 <_ZNSt16allocator_traitsISaISt4pairIiiEEE9constructIS1_JS1_EEEvRS2_PT_DpOT0_>
  402ac3:	48 c7 45 e8 00 00 00 	movq   $0x0,-0x18(%rbp)
  402aca:	00 
  402acb:	e8 1b ff ff ff       	call   4029eb <_ZNSt6vectorISt4pairIiiESaIS1_EE15_S_use_relocateEv>
  402ad0:	84 c0                	test   %al,%al
  402ad2:	74 71                	je     402b45 <_ZNSt6vectorISt4pairIiiESaIS1_EE17_M_realloc_insertIJS1_EEEvN9__gnu_cxx17__normal_iteratorIPS1_S3_EEDpOT_+0x13f>
  402ad4:	48 8b 45 a8          	mov    -0x58(%rbp),%rax
  402ad8:	48 89 c7             	mov    %rax,%rdi
  402adb:	e8 c4 fc ff ff       	call   4027a4 <_ZNSt12_Vector_baseISt4pairIiiESaIS1_EE19_M_get_Tp_allocatorEv>
  402ae0:	48 89 c3             	mov    %rax,%rbx
  402ae3:	48 8d 45 a0          	lea    -0x60(%rbp),%rax
  402ae7:	48 89 c7             	mov    %rax,%rdi
  402aea:	e8 27 04 00 00       	call   402f16 <_ZNK9__gnu_cxx17__normal_iteratorIPSt4pairIiiESt6vectorIS2_SaIS2_EEE4baseEv>
  402aef:	48 8b 30             	mov    (%rax),%rsi
  402af2:	48 8b 55 c0          	mov    -0x40(%rbp),%rdx
  402af6:	48 8b 45 d8          	mov    -0x28(%rbp),%rax
  402afa:	48 89 d9             	mov    %rbx,%rcx
  402afd:	48 89 c7             	mov    %rax,%rdi
  402b00:	e8 de 03 00 00       	call   402ee3 <_ZNSt6vectorISt4pairIiiESaIS1_EE11_S_relocateEPS1_S4_S4_RS2_>
  402b05:	48 89 45 e8          	mov    %rax,-0x18(%rbp)
  402b09:	48 83 45 e8 08       	addq   $0x8,-0x18(%rbp)
  402b0e:	48 8b 45 a8          	mov    -0x58(%rbp),%rax
  402b12:	48 89 c7             	mov    %rax,%rdi
  402b15:	e8 8a fc ff ff       	call   4027a4 <_ZNSt12_Vector_baseISt4pairIiiESaIS1_EE19_M_get_Tp_allocatorEv>
  402b1a:	48 89 c3             	mov    %rax,%rbx
  402b1d:	48 8d 45 a0          	lea    -0x60(%rbp),%rax
  402b21:	48 89 c7             	mov    %rax,%rdi
  402b24:	e8 ed 03 00 00       	call   402f16 <_ZNK9__gnu_cxx17__normal_iteratorIPSt4pairIiiESt6vectorIS2_SaIS2_EEE4baseEv>
  402b29:	48 8b 00             	mov    (%rax),%rax
  402b2c:	48 8b 55 e8          	mov    -0x18(%rbp),%rdx
  402b30:	48 8b 75 d0          	mov    -0x30(%rbp),%rsi
  402b34:	48 89 d9             	mov    %rbx,%rcx
  402b37:	48 89 c7             	mov    %rax,%rdi
  402b3a:	e8 a4 03 00 00       	call   402ee3 <_ZNSt6vectorISt4pairIiiESaIS1_EE11_S_relocateEPS1_S4_S4_RS2_>
  402b3f:	48 89 45 e8          	mov    %rax,-0x18(%rbp)
  402b43:	eb 6f                	jmp    402bb4 <_ZNSt6vectorISt4pairIiiESaIS1_EE17_M_realloc_insertIJS1_EEEvN9__gnu_cxx17__normal_iteratorIPS1_S3_EEDpOT_+0x1ae>
  402b45:	48 8b 45 a8          	mov    -0x58(%rbp),%rax
  402b49:	48 89 c7             	mov    %rax,%rdi
  402b4c:	e8 53 fc ff ff       	call   4027a4 <_ZNSt12_Vector_baseISt4pairIiiESaIS1_EE19_M_get_Tp_allocatorEv>
  402b51:	48 89 c3             	mov    %rax,%rbx
  402b54:	48 8d 45 a0          	lea    -0x60(%rbp),%rax
  402b58:	48 89 c7             	mov    %rax,%rdi
  402b5b:	e8 b6 03 00 00       	call   402f16 <_ZNK9__gnu_cxx17__normal_iteratorIPSt4pairIiiESt6vectorIS2_SaIS2_EEE4baseEv>
  402b60:	48 8b 30             	mov    (%rax),%rsi
  402b63:	48 8b 55 c0          	mov    -0x40(%rbp),%rdx
  402b67:	48 8b 45 d8          	mov    -0x28(%rbp),%rax
  402b6b:	48 89 d9             	mov    %rbx,%rcx
  402b6e:	48 89 c7             	mov    %rax,%rdi
  402b71:	e8 ae 03 00 00       	call   402f24 <_ZSt34__uninitialized_move_if_noexcept_aIPSt4pairIiiES2_SaIS1_EET0_T_S5_S4_RT1_>
  402b76:	48 89 45 e8          	mov    %rax,-0x18(%rbp)
  402b7a:	48 83 45 e8 08       	addq   $0x8,-0x18(%rbp)
  402b7f:	48 8b 45 a8          	mov    -0x58(%rbp),%rax
  402b83:	48 89 c7             	mov    %rax,%rdi
  402b86:	e8 19 fc ff ff       	call   4027a4 <_ZNSt12_Vector_baseISt4pairIiiESaIS1_EE19_M_get_Tp_allocatorEv>
  402b8b:	48 89 c3             	mov    %rax,%rbx
  402b8e:	48 8d 45 a0          	lea    -0x60(%rbp),%rax
  402b92:	48 89 c7             	mov    %rax,%rdi
  402b95:	e8 7c 03 00 00       	call   402f16 <_ZNK9__gnu_cxx17__normal_iteratorIPSt4pairIiiESt6vectorIS2_SaIS2_EEE4baseEv>
  402b9a:	48 8b 00             	mov    (%rax),%rax
  402b9d:	48 8b 55 e8          	mov    -0x18(%rbp),%rdx
  402ba1:	48 8b 75 d0          	mov    -0x30(%rbp),%rsi
  402ba5:	48 89 d9             	mov    %rbx,%rcx
  402ba8:	48 89 c7             	mov    %rax,%rdi
  402bab:	e8 74 03 00 00       	call   402f24 <_ZSt34__uninitialized_move_if_noexcept_aIPSt4pairIiiES2_SaIS1_EET0_T_S5_S4_RT1_>
  402bb0:	48 89 45 e8          	mov    %rax,-0x18(%rbp)
  402bb4:	e8 32 fe ff ff       	call   4029eb <_ZNSt6vectorISt4pairIiiESaIS1_EE15_S_use_relocateEv>
  402bb9:	83 f0 01             	xor    $0x1,%eax
  402bbc:	84 c0                	test   %al,%al
  402bbe:	74 22                	je     402be2 <_ZNSt6vectorISt4pairIiiESaIS1_EE17_M_realloc_insertIJS1_EEEvN9__gnu_cxx17__normal_iteratorIPS1_S3_EEDpOT_+0x1dc>
  402bc0:	48 8b 45 a8          	mov    -0x58(%rbp),%rax
  402bc4:	48 89 c7             	mov    %rax,%rdi
  402bc7:	e8 d8 fb ff ff       	call   4027a4 <_ZNSt12_Vector_baseISt4pairIiiESaIS1_EE19_M_get_Tp_allocatorEv>
  402bcc:	48 89 c2             	mov    %rax,%rdx
  402bcf:	48 8b 4d d0          	mov    -0x30(%rbp),%rcx
  402bd3:	48 8b 45 d8          	mov    -0x28(%rbp),%rax
  402bd7:	48 89 ce             	mov    %rcx,%rsi
  402bda:	48 89 c7             	mov    %rax,%rdi
  402bdd:	e8 d0 fb ff ff       	call   4027b2 <_ZSt8_DestroyIPSt4pairIiiES1_EvT_S3_RSaIT0_E>
  402be2:	48 8b 45 a8          	mov    -0x58(%rbp),%rax
  402be6:	48 8b 55 a8          	mov    -0x58(%rbp),%rdx
  402bea:	48 8b 52 10          	mov    0x10(%rdx),%rdx
  402bee:	48 2b 55 d8          	sub    -0x28(%rbp),%rdx
  402bf2:	48 c1 fa 03          	sar    $0x3,%rdx
  402bf6:	48 8b 4d d8          	mov    -0x28(%rbp),%rcx
  402bfa:	48 89 ce             	mov    %rcx,%rsi
  402bfd:	48 89 c7             	mov    %rax,%rdi
  402c00:	e8 69 fb ff ff       	call   40276e <_ZNSt12_Vector_baseISt4pairIiiESaIS1_EE13_M_deallocateEPS1_m>
  402c05:	48 8b 45 a8          	mov    -0x58(%rbp),%rax
  402c09:	48 8b 55 c0          	mov    -0x40(%rbp),%rdx
  402c0d:	48 89 10             	mov    %rdx,(%rax)
  402c10:	48 8b 45 a8          	mov    -0x58(%rbp),%rax
  402c14:	48 8b 55 e8          	mov    -0x18(%rbp),%rdx
  402c18:	48 89 50 08          	mov    %rdx,0x8(%rax)
  402c1c:	48 8b 45 e0          	mov    -0x20(%rbp),%rax
  402c20:	48 8d 14 c5 00 00 00 	lea    0x0(,%rax,8),%rdx
  402c27:	00 
  402c28:	48 8b 45 c0          	mov    -0x40(%rbp),%rax
  402c2c:	48 01 c2             	add    %rax,%rdx
  402c2f:	48 8b 45 a8          	mov    -0x58(%rbp),%rax
  402c33:	48 89 50 10          	mov    %rdx,0x10(%rax)
  402c37:	e9 84 00 00 00       	jmp    402cc0 <_ZNSt6vectorISt4pairIiiESaIS1_EE17_M_realloc_insertIJS1_EEEvN9__gnu_cxx17__normal_iteratorIPS1_S3_EEDpOT_+0x2ba>
  402c3c:	48 89 c7             	mov    %rax,%rdi
  402c3f:	e8 2c e4 ff ff       	call   401070 <__cxa_begin_catch@plt>
  402c44:	48 83 7d e8 00       	cmpq   $0x0,-0x18(%rbp)
  402c49:	75 24                	jne    402c6f <_ZNSt6vectorISt4pairIiiESaIS1_EE17_M_realloc_insertIJS1_EEEvN9__gnu_cxx17__normal_iteratorIPS1_S3_EEDpOT_+0x269>
  402c4b:	48 8b 45 c8          	mov    -0x38(%rbp),%rax
  402c4f:	48 8d 14 c5 00 00 00 	lea    0x0(,%rax,8),%rdx
  402c56:	00 
  402c57:	48 8b 45 c0          	mov    -0x40(%rbp),%rax
  402c5b:	48 01 c2             	add    %rax,%rdx
  402c5e:	48 8b 45 a8          	mov    -0x58(%rbp),%rax
  402c62:	48 89 d6             	mov    %rdx,%rsi
  402c65:	48 89 c7             	mov    %rax,%rdi
  402c68:	e8 0a 03 00 00       	call   402f77 <_ZNSt16allocator_traitsISaISt4pairIiiEEE7destroyIS1_EEvRS2_PT_>
  402c6d:	eb 22                	jmp    402c91 <_ZNSt6vectorISt4pairIiiESaIS1_EE17_M_realloc_insertIJS1_EEEvN9__gnu_cxx17__normal_iteratorIPS1_S3_EEDpOT_+0x28b>
  402c6f:	48 8b 45 a8          	mov    -0x58(%rbp),%rax
  402c73:	48 89 c7             	mov    %rax,%rdi
  402c76:	e8 29 fb ff ff       	call   4027a4 <_ZNSt12_Vector_baseISt4pairIiiESaIS1_EE19_M_get_Tp_allocatorEv>
  402c7b:	48 89 c2             	mov    %rax,%rdx
  402c7e:	48 8b 4d e8          	mov    -0x18(%rbp),%rcx
  402c82:	48 8b 45 c0          	mov    -0x40(%rbp),%rax
  402c86:	48 89 ce             	mov    %rcx,%rsi
  402c89:	48 89 c7             	mov    %rax,%rdi
  402c8c:	e8 21 fb ff ff       	call   4027b2 <_ZSt8_DestroyIPSt4pairIiiES1_EvT_S3_RSaIT0_E>
  402c91:	48 8b 45 a8          	mov    -0x58(%rbp),%rax
  402c95:	48 8b 55 e0          	mov    -0x20(%rbp),%rdx
  402c99:	48 8b 4d c0          	mov    -0x40(%rbp),%rcx
  402c9d:	48 89 ce             	mov    %rcx,%rsi
  402ca0:	48 89 c7             	mov    %rax,%rdi
  402ca3:	e8 c6 fa ff ff       	call   40276e <_ZNSt12_Vector_baseISt4pairIiiESaIS1_EE13_M_deallocateEPS1_m>
  402ca8:	e8 83 e4 ff ff       	call   401130 <__cxa_rethrow@plt>
  402cad:	48 89 c3             	mov    %rax,%rbx
  402cb0:	e8 ab e4 ff ff       	call   401160 <__cxa_end_catch@plt>
  402cb5:	48 89 d8             	mov    %rbx,%rax
  402cb8:	48 89 c7             	mov    %rax,%rdi
  402cbb:	e8 c0 e4 ff ff       	call   401180 <_Unwind_Resume@plt>
  402cc0:	48 8b 5d f8          	mov    -0x8(%rbp),%rbx
  402cc4:	c9                   	leave  
  402cc5:	c3                   	ret    

0000000000402cc6 <_ZN9__gnu_cxx17__normal_iteratorIPKSt4pairIiiESt6vectorIS2_SaIS2_EEEC1ERKS4_>:
  402cc6:	55                   	push   %rbp
  402cc7:	48 89 e5             	mov    %rsp,%rbp
  402cca:	48 89 7d f8          	mov    %rdi,-0x8(%rbp)
  402cce:	48 89 75 f0          	mov    %rsi,-0x10(%rbp)
  402cd2:	48 8b 45 f0          	mov    -0x10(%rbp),%rax
  402cd6:	48 8b 10             	mov    (%rax),%rdx
  402cd9:	48 8b 45 f8          	mov    -0x8(%rbp),%rax
  402cdd:	48 89 10             	mov    %rdx,(%rax)
  402ce0:	90                   	nop
  402ce1:	5d                   	pop    %rbp
  402ce2:	c3                   	ret    
  402ce3:	90                   	nop

0000000000402ce4 <_ZNK9__gnu_cxx17__normal_iteratorIPKSt4pairIiiESt6vectorIS2_SaIS2_EEE4baseEv>:
  402ce4:	55                   	push   %rbp
  402ce5:	48 89 e5             	mov    %rsp,%rbp
  402ce8:	48 89 7d f8          	mov    %rdi,-0x8(%rbp)
  402cec:	48 8b 45 f8          	mov    -0x8(%rbp),%rax
  402cf0:	5d                   	pop    %rbp
  402cf1:	c3                   	ret    

0000000000402cf2 <_ZN9__gnu_cxx13new_allocatorISt4pairIiiEE10deallocateEPS2_m>:
  402cf2:	55                   	push   %rbp
  402cf3:	48 89 e5             	mov    %rsp,%rbp
  402cf6:	48 83 ec 20          	sub    $0x20,%rsp
  402cfa:	48 89 7d f8          	mov    %rdi,-0x8(%rbp)
  402cfe:	48 89 75 f0          	mov    %rsi,-0x10(%rbp)
  402d02:	48 89 55 e8          	mov    %rdx,-0x18(%rbp)
  402d06:	48 8b 45 f0          	mov    -0x10(%rbp),%rax
  402d0a:	48 89 c7             	mov    %rax,%rdi
  402d0d:	e8 be e3 ff ff       	call   4010d0 <_ZdlPv@plt>
  402d12:	90                   	nop
  402d13:	c9                   	leave  
  402d14:	c3                   	ret    

0000000000402d15 <_ZNSt12_Destroy_auxILb1EE9__destroyIPSt4pairIiiEEEvT_S5_>:
  402d15:	55                   	push   %rbp
  402d16:	48 89 e5             	mov    %rsp,%rbp
  402d19:	48 89 7d f8          	mov    %rdi,-0x8(%rbp)
  402d1d:	48 89 75 f0          	mov    %rsi,-0x10(%rbp)
  402d21:	90                   	nop
  402d22:	5d                   	pop    %rbp
  402d23:	c3                   	ret    

0000000000402d24 <_ZN9__gnu_cxx13new_allocatorISt4pairIiiEE9constructIS2_JS2_EEEvPT_DpOT0_>:
  402d24:	55                   	push   %rbp
  402d25:	48 89 e5             	mov    %rsp,%rbp
  402d28:	53                   	push   %rbx
  402d29:	48 83 ec 28          	sub    $0x28,%rsp
  402d2d:	48 89 7d e8          	mov    %rdi,-0x18(%rbp)
  402d31:	48 89 75 e0          	mov    %rsi,-0x20(%rbp)
  402d35:	48 89 55 d8          	mov    %rdx,-0x28(%rbp)
  402d39:	48 8b 45 d8          	mov    -0x28(%rbp),%rax
  402d3d:	48 89 c7             	mov    %rax,%rdi
  402d40:	e8 36 fc ff ff       	call   40297b <_ZSt7forwardISt4pairIiiEEOT_RNSt16remove_referenceIS2_E4typeE>
  402d45:	48 89 c3             	mov    %rax,%rbx
  402d48:	48 8b 45 e0          	mov    -0x20(%rbp),%rax
  402d4c:	48 89 c6             	mov    %rax,%rsi
  402d4f:	bf 08 00 00 00       	mov    $0x8,%edi
  402d54:	e8 c7 e8 ff ff       	call   401620 <_ZnwmPv>
  402d59:	48 8b 13             	mov    (%rbx),%rdx
  402d5c:	48 89 10             	mov    %rdx,(%rax)
  402d5f:	90                   	nop
  402d60:	48 8b 5d f8          	mov    -0x8(%rbp),%rbx
  402d64:	c9                   	leave  
  402d65:	c3                   	ret    

0000000000402d66 <_ZN9__gnu_cxx17__normal_iteratorIPSt4pairIiiESt6vectorIS2_SaIS2_EEEC1ERKS3_>:
  402d66:	55                   	push   %rbp
  402d67:	48 89 e5             	mov    %rsp,%rbp
  402d6a:	48 89 7d f8          	mov    %rdi,-0x8(%rbp)
  402d6e:	48 89 75 f0          	mov    %rsi,-0x10(%rbp)
  402d72:	48 8b 45 f0          	mov    -0x10(%rbp),%rax
  402d76:	48 8b 10             	mov    (%rax),%rdx
  402d79:	48 8b 45 f8          	mov    -0x8(%rbp),%rax
  402d7d:	48 89 10             	mov    %rdx,(%rax)
  402d80:	90                   	nop
  402d81:	5d                   	pop    %rbp
  402d82:	c3                   	ret    
  402d83:	90                   	nop

0000000000402d84 <_ZNKSt6vectorISt4pairIiiESaIS1_EE12_M_check_lenEmPKc>:
  402d84:	55                   	push   %rbp
  402d85:	48 89 e5             	mov    %rsp,%rbp
  402d88:	53                   	push   %rbx
  402d89:	48 83 ec 38          	sub    $0x38,%rsp
  402d8d:	48 89 7d d8          	mov    %rdi,-0x28(%rbp)
  402d91:	48 89 75 d0          	mov    %rsi,-0x30(%rbp)
  402d95:	48 89 55 c8          	mov    %rdx,-0x38(%rbp)
  402d99:	48 8b 45 d8          	mov    -0x28(%rbp),%rax
  402d9d:	48 89 c7             	mov    %rax,%rdi
  402da0:	e8 f9 01 00 00       	call   402f9e <_ZNKSt6vectorISt4pairIiiESaIS1_EE8max_sizeEv>
  402da5:	48 89 c3             	mov    %rax,%rbx
  402da8:	48 8b 45 d8          	mov    -0x28(%rbp),%rax
  402dac:	48 89 c7             	mov    %rax,%rdi
  402daf:	e8 20 f9 ff ff       	call   4026d4 <_ZNKSt6vectorISt4pairIiiESaIS1_EE4sizeEv>
  402db4:	48 29 c3             	sub    %rax,%rbx
  402db7:	48 89 da             	mov    %rbx,%rdx
  402dba:	48 8b 45 d0          	mov    -0x30(%rbp),%rax
  402dbe:	48 39 c2             	cmp    %rax,%rdx
  402dc1:	0f 92 c0             	setb   %al
  402dc4:	84 c0                	test   %al,%al
  402dc6:	74 0c                	je     402dd4 <_ZNKSt6vectorISt4pairIiiESaIS1_EE12_M_check_lenEmPKc+0x50>
  402dc8:	48 8b 45 c8          	mov    -0x38(%rbp),%rax
  402dcc:	48 89 c7             	mov    %rax,%rdi
  402dcf:	e8 bc e2 ff ff       	call   401090 <_ZSt20__throw_length_errorPKc@plt>
  402dd4:	48 8b 45 d8          	mov    -0x28(%rbp),%rax
  402dd8:	48 89 c7             	mov    %rax,%rdi
  402ddb:	e8 f4 f8 ff ff       	call   4026d4 <_ZNKSt6vectorISt4pairIiiESaIS1_EE4sizeEv>
  402de0:	48 89 c3             	mov    %rax,%rbx
  402de3:	48 8b 45 d8          	mov    -0x28(%rbp),%rax
  402de7:	48 89 c7             	mov    %rax,%rdi
  402dea:	e8 e5 f8 ff ff       	call   4026d4 <_ZNKSt6vectorISt4pairIiiESaIS1_EE4sizeEv>
  402def:	48 89 45 e0          	mov    %rax,-0x20(%rbp)
  402df3:	48 8d 55 d0          	lea    -0x30(%rbp),%rdx
  402df7:	48 8d 45 e0          	lea    -0x20(%rbp),%rax
  402dfb:	48 89 d6             	mov    %rdx,%rsi
  402dfe:	48 89 c7             	mov    %rax,%rdi
  402e01:	e8 ba 01 00 00       	call   402fc0 <_ZSt3maxImERKT_S2_S2_>
  402e06:	48 8b 00             	mov    (%rax),%rax
  402e09:	48 01 d8             	add    %rbx,%rax
  402e0c:	48 89 45 e8          	mov    %rax,-0x18(%rbp)
  402e10:	48 8b 45 d8          	mov    -0x28(%rbp),%rax
  402e14:	48 89 c7             	mov    %rax,%rdi
  402e17:	e8 b8 f8 ff ff       	call   4026d4 <_ZNKSt6vectorISt4pairIiiESaIS1_EE4sizeEv>
  402e1c:	48 39 45 e8          	cmp    %rax,-0x18(%rbp)
  402e20:	72 12                	jb     402e34 <_ZNKSt6vectorISt4pairIiiESaIS1_EE12_M_check_lenEmPKc+0xb0>
  402e22:	48 8b 45 d8          	mov    -0x28(%rbp),%rax
  402e26:	48 89 c7             	mov    %rax,%rdi
  402e29:	e8 70 01 00 00       	call   402f9e <_ZNKSt6vectorISt4pairIiiESaIS1_EE8max_sizeEv>
  402e2e:	48 39 45 e8          	cmp    %rax,-0x18(%rbp)
  402e32:	76 0e                	jbe    402e42 <_ZNKSt6vectorISt4pairIiiESaIS1_EE12_M_check_lenEmPKc+0xbe>
  402e34:	48 8b 45 d8          	mov    -0x28(%rbp),%rax
  402e38:	48 89 c7             	mov    %rax,%rdi
  402e3b:	e8 5e 01 00 00       	call   402f9e <_ZNKSt6vectorISt4pairIiiESaIS1_EE8max_sizeEv>
  402e40:	eb 04                	jmp    402e46 <_ZNKSt6vectorISt4pairIiiESaIS1_EE12_M_check_lenEmPKc+0xc2>
  402e42:	48 8b 45 e8          	mov    -0x18(%rbp),%rax
  402e46:	48 8b 5d f8          	mov    -0x8(%rbp),%rbx
  402e4a:	c9                   	leave  
  402e4b:	c3                   	ret    

0000000000402e4c <_ZNSt6vectorISt4pairIiiESaIS1_EE5beginEv>:
  402e4c:	55                   	push   %rbp
  402e4d:	48 89 e5             	mov    %rsp,%rbp
  402e50:	48 83 ec 20          	sub    $0x20,%rsp
  402e54:	48 89 7d e8          	mov    %rdi,-0x18(%rbp)
  402e58:	48 8b 55 e8          	mov    -0x18(%rbp),%rdx
  402e5c:	48 8d 45 f8          	lea    -0x8(%rbp),%rax
  402e60:	48 89 d6             	mov    %rdx,%rsi
  402e63:	48 89 c7             	mov    %rax,%rdi
  402e66:	e8 fb fe ff ff       	call   402d66 <_ZN9__gnu_cxx17__normal_iteratorIPSt4pairIiiESt6vectorIS2_SaIS2_EEEC1ERKS3_>
  402e6b:	48 8b 45 f8          	mov    -0x8(%rbp),%rax
  402e6f:	c9                   	leave  
  402e70:	c3                   	ret    

0000000000402e71 <_ZN9__gnu_cxxmiIPSt4pairIiiESt6vectorIS2_SaIS2_EEEENS_17__normal_iteratorIT_T0_E15difference_typeERKSA_SD_>:
  402e71:	55                   	push   %rbp
  402e72:	48 89 e5             	mov    %rsp,%rbp
  402e75:	53                   	push   %rbx
  402e76:	48 83 ec 18          	sub    $0x18,%rsp
  402e7a:	48 89 7d e8          	mov    %rdi,-0x18(%rbp)
  402e7e:	48 89 75 e0          	mov    %rsi,-0x20(%rbp)
  402e82:	48 8b 45 e8          	mov    -0x18(%rbp),%rax
  402e86:	48 89 c7             	mov    %rax,%rdi
  402e89:	e8 88 00 00 00       	call   402f16 <_ZNK9__gnu_cxx17__normal_iteratorIPSt4pairIiiESt6vectorIS2_SaIS2_EEE4baseEv>
  402e8e:	48 8b 18             	mov    (%rax),%rbx
  402e91:	48 8b 45 e0          	mov    -0x20(%rbp),%rax
  402e95:	48 89 c7             	mov    %rax,%rdi
  402e98:	e8 79 00 00 00       	call   402f16 <_ZNK9__gnu_cxx17__normal_iteratorIPSt4pairIiiESt6vectorIS2_SaIS2_EEE4baseEv>
  402e9d:	48 8b 10             	mov    (%rax),%rdx
  402ea0:	48 89 d8             	mov    %rbx,%rax
  402ea3:	48 29 d0             	sub    %rdx,%rax
  402ea6:	48 c1 f8 03          	sar    $0x3,%rax
  402eaa:	48 8b 5d f8          	mov    -0x8(%rbp),%rbx
  402eae:	c9                   	leave  
  402eaf:	c3                   	ret    

0000000000402eb0 <_ZNSt12_Vector_baseISt4pairIiiESaIS1_EE11_M_allocateEm>:
  402eb0:	55                   	push   %rbp
  402eb1:	48 89 e5             	mov    %rsp,%rbp
  402eb4:	48 83 ec 10          	sub    $0x10,%rsp
  402eb8:	48 89 7d f8          	mov    %rdi,-0x8(%rbp)
  402ebc:	48 89 75 f0          	mov    %rsi,-0x10(%rbp)
  402ec0:	48 83 7d f0 00       	cmpq   $0x0,-0x10(%rbp)
  402ec5:	74 15                	je     402edc <_ZNSt12_Vector_baseISt4pairIiiESaIS1_EE11_M_allocateEm+0x2c>
  402ec7:	48 8b 45 f8          	mov    -0x8(%rbp),%rax
  402ecb:	48 8b 55 f0          	mov    -0x10(%rbp),%rdx
  402ecf:	48 89 d6             	mov    %rdx,%rsi
  402ed2:	48 89 c7             	mov    %rax,%rdi
  402ed5:	e8 11 01 00 00       	call   402feb <_ZNSt16allocator_traitsISaISt4pairIiiEEE8allocateERS2_m>
  402eda:	eb 05                	jmp    402ee1 <_ZNSt12_Vector_baseISt4pairIiiESaIS1_EE11_M_allocateEm+0x31>
  402edc:	b8 00 00 00 00       	mov    $0x0,%eax
  402ee1:	c9                   	leave  
  402ee2:	c3                   	ret    

0000000000402ee3 <_ZNSt6vectorISt4pairIiiESaIS1_EE11_S_relocateEPS1_S4_S4_RS2_>:
  402ee3:	55                   	push   %rbp
  402ee4:	48 89 e5             	mov    %rsp,%rbp
  402ee7:	48 83 ec 20          	sub    $0x20,%rsp
  402eeb:	48 89 7d f8          	mov    %rdi,-0x8(%rbp)
  402eef:	48 89 75 f0          	mov    %rsi,-0x10(%rbp)
  402ef3:	48 89 55 e8          	mov    %rdx,-0x18(%rbp)
  402ef7:	48 89 4d e0          	mov    %rcx,-0x20(%rbp)
  402efb:	48 8b 4d e0          	mov    -0x20(%rbp),%rcx
  402eff:	48 8b 55 e8          	mov    -0x18(%rbp),%rdx
  402f03:	48 8b 75 f0          	mov    -0x10(%rbp),%rsi
  402f07:	48 8b 45 f8          	mov    -0x8(%rbp),%rax
  402f0b:	48 89 c7             	mov    %rax,%rdi
  402f0e:	e8 02 01 00 00       	call   403015 <_ZNSt6vectorISt4pairIiiESaIS1_EE14_S_do_relocateEPS1_S4_S4_RS2_St17integral_constantIbLb1EE>
  402f13:	c9                   	leave  
  402f14:	c3                   	ret    
  402f15:	90                   	nop

0000000000402f16 <_ZNK9__gnu_cxx17__normal_iteratorIPSt4pairIiiESt6vectorIS2_SaIS2_EEE4baseEv>:
  402f16:	55                   	push   %rbp
  402f17:	48 89 e5             	mov    %rsp,%rbp
  402f1a:	48 89 7d f8          	mov    %rdi,-0x8(%rbp)
  402f1e:	48 8b 45 f8          	mov    -0x8(%rbp),%rax
  402f22:	5d                   	pop    %rbp
  402f23:	c3                   	ret    

0000000000402f24 <_ZSt34__uninitialized_move_if_noexcept_aIPSt4pairIiiES2_SaIS1_EET0_T_S5_S4_RT1_>:
  402f24:	55                   	push   %rbp
  402f25:	48 89 e5             	mov    %rsp,%rbp
  402f28:	53                   	push   %rbx
  402f29:	48 83 ec 28          	sub    $0x28,%rsp
  402f2d:	48 89 7d e8          	mov    %rdi,-0x18(%rbp)
  402f31:	48 89 75 e0          	mov    %rsi,-0x20(%rbp)
  402f35:	48 89 55 d8          	mov    %rdx,-0x28(%rbp)
  402f39:	48 89 4d d0          	mov    %rcx,-0x30(%rbp)
  402f3d:	48 8b 45 e0          	mov    -0x20(%rbp),%rax
  402f41:	48 89 c7             	mov    %rax,%rdi
  402f44:	e8 fe 00 00 00       	call   403047 <_ZSt32__make_move_if_noexcept_iteratorISt4pairIiiESt13move_iteratorIPS1_EET0_PT_>
  402f49:	48 89 c3             	mov    %rax,%rbx
  402f4c:	48 8b 45 e8          	mov    -0x18(%rbp),%rax
  402f50:	48 89 c7             	mov    %rax,%rdi
  402f53:	e8 ef 00 00 00       	call   403047 <_ZSt32__make_move_if_noexcept_iteratorISt4pairIiiESt13move_iteratorIPS1_EET0_PT_>
  402f58:	48 89 c7             	mov    %rax,%rdi
  402f5b:	48 8b 55 d0          	mov    -0x30(%rbp),%rdx
  402f5f:	48 8b 45 d8          	mov    -0x28(%rbp),%rax
  402f63:	48 89 d1             	mov    %rdx,%rcx
  402f66:	48 89 c2             	mov    %rax,%rdx
  402f69:	48 89 de             	mov    %rbx,%rsi
  402f6c:	e8 fb 00 00 00       	call   40306c <_ZSt22__uninitialized_copy_aISt13move_iteratorIPSt4pairIiiEES3_S2_ET0_T_S6_S5_RSaIT1_E>
  402f71:	48 8b 5d f8          	mov    -0x8(%rbp),%rbx
  402f75:	c9                   	leave  
  402f76:	c3                   	ret    

0000000000402f77 <_ZNSt16allocator_traitsISaISt4pairIiiEEE7destroyIS1_EEvRS2_PT_>:
  402f77:	55                   	push   %rbp
  402f78:	48 89 e5             	mov    %rsp,%rbp
  402f7b:	48 83 ec 10          	sub    $0x10,%rsp
  402f7f:	48 89 7d f8          	mov    %rdi,-0x8(%rbp)
  402f83:	48 89 75 f0          	mov    %rsi,-0x10(%rbp)
  402f87:	48 8b 55 f0          	mov    -0x10(%rbp),%rdx
  402f8b:	48 8b 45 f8          	mov    -0x8(%rbp),%rax
  402f8f:	48 89 d6             	mov    %rdx,%rsi
  402f92:	48 89 c7             	mov    %rax,%rdi
  402f95:	e8 04 01 00 00       	call   40309e <_ZN9__gnu_cxx13new_allocatorISt4pairIiiEE7destroyIS2_EEvPT_>
  402f9a:	90                   	nop
  402f9b:	c9                   	leave  
  402f9c:	c3                   	ret    
  402f9d:	90                   	nop

0000000000402f9e <_ZNKSt6vectorISt4pairIiiESaIS1_EE8max_sizeEv>:
  402f9e:	55                   	push   %rbp
  402f9f:	48 89 e5             	mov    %rsp,%rbp
  402fa2:	48 83 ec 10          	sub    $0x10,%rsp
  402fa6:	48 89 7d f8          	mov    %rdi,-0x8(%rbp)
  402faa:	48 8b 45 f8          	mov    -0x8(%rbp),%rax
  402fae:	48 89 c7             	mov    %rax,%rdi
  402fb1:	e8 3a 01 00 00       	call   4030f0 <_ZNKSt12_Vector_baseISt4pairIiiESaIS1_EE19_M_get_Tp_allocatorEv>
  402fb6:	48 89 c7             	mov    %rax,%rdi
  402fb9:	e8 ef 00 00 00       	call   4030ad <_ZNSt6vectorISt4pairIiiESaIS1_EE11_S_max_sizeERKS2_>
  402fbe:	c9                   	leave  
  402fbf:	c3                   	ret    

0000000000402fc0 <_ZSt3maxImERKT_S2_S2_>:
  402fc0:	55                   	push   %rbp
  402fc1:	48 89 e5             	mov    %rsp,%rbp
  402fc4:	48 89 7d f8          	mov    %rdi,-0x8(%rbp)
  402fc8:	48 89 75 f0          	mov    %rsi,-0x10(%rbp)
  402fcc:	48 8b 45 f8          	mov    -0x8(%rbp),%rax
  402fd0:	48 8b 10             	mov    (%rax),%rdx
  402fd3:	48 8b 45 f0          	mov    -0x10(%rbp),%rax
  402fd7:	48 8b 00             	mov    (%rax),%rax
  402fda:	48 39 c2             	cmp    %rax,%rdx
  402fdd:	73 06                	jae    402fe5 <_ZSt3maxImERKT_S2_S2_+0x25>
  402fdf:	48 8b 45 f0          	mov    -0x10(%rbp),%rax
  402fe3:	eb 04                	jmp    402fe9 <_ZSt3maxImERKT_S2_S2_+0x29>
  402fe5:	48 8b 45 f8          	mov    -0x8(%rbp),%rax
  402fe9:	5d                   	pop    %rbp
  402fea:	c3                   	ret    

0000000000402feb <_ZNSt16allocator_traitsISaISt4pairIiiEEE8allocateERS2_m>:
  402feb:	55                   	push   %rbp
  402fec:	48 89 e5             	mov    %rsp,%rbp
  402fef:	48 83 ec 10          	sub    $0x10,%rsp
  402ff3:	48 89 7d f8          	mov    %rdi,-0x8(%rbp)
  402ff7:	48 89 75 f0          	mov    %rsi,-0x10(%rbp)
  402ffb:	48 8b 4d f0          	mov    -0x10(%rbp),%rcx
  402fff:	48 8b 45 f8          	mov    -0x8(%rbp),%rax
  403003:	ba 00 00 00 00       	mov    $0x0,%edx
  403008:	48 89 ce             	mov    %rcx,%rsi
  40300b:	48 89 c7             	mov    %rax,%rdi
  40300e:	e8 eb 00 00 00       	call   4030fe <_ZN9__gnu_cxx13new_allocatorISt4pairIiiEE8allocateEmPKv>
  403013:	c9                   	leave  
  403014:	c3                   	ret    

0000000000403015 <_ZNSt6vectorISt4pairIiiESaIS1_EE14_S_do_relocateEPS1_S4_S4_RS2_St17integral_constantIbLb1EE>:
  403015:	55                   	push   %rbp
  403016:	48 89 e5             	mov    %rsp,%rbp
  403019:	48 83 ec 20          	sub    $0x20,%rsp
  40301d:	48 89 7d f8          	mov    %rdi,-0x8(%rbp)
  403021:	48 89 75 f0          	mov    %rsi,-0x10(%rbp)
  403025:	48 89 55 e8          	mov    %rdx,-0x18(%rbp)
  403029:	48 89 4d e0          	mov    %rcx,-0x20(%rbp)
  40302d:	48 8b 4d e0          	mov    -0x20(%rbp),%rcx
  403031:	48 8b 55 e8          	mov    -0x18(%rbp),%rdx
  403035:	48 8b 75 f0          	mov    -0x10(%rbp),%rsi
  403039:	48 8b 45 f8          	mov    -0x8(%rbp),%rax
  40303d:	48 89 c7             	mov    %rax,%rdi
  403040:	e8 19 01 00 00       	call   40315e <_ZSt12__relocate_aIPSt4pairIiiES2_SaIS1_EET0_T_S5_S4_RT1_>
  403045:	c9                   	leave  
  403046:	c3                   	ret    

0000000000403047 <_ZSt32__make_move_if_noexcept_iteratorISt4pairIiiESt13move_iteratorIPS1_EET0_PT_>:
  403047:	55                   	push   %rbp
  403048:	48 89 e5             	mov    %rsp,%rbp
  40304b:	48 83 ec 20          	sub    $0x20,%rsp
  40304f:	48 89 7d e8          	mov    %rdi,-0x18(%rbp)
  403053:	48 8b 55 e8          	mov    -0x18(%rbp),%rdx
  403057:	48 8d 45 f8          	lea    -0x8(%rbp),%rax
  40305b:	48 89 d6             	mov    %rdx,%rsi
  40305e:	48 89 c7             	mov    %rax,%rdi
  403061:	e8 5c 01 00 00       	call   4031c2 <_ZNSt13move_iteratorIPSt4pairIiiEEC1ES2_>
  403066:	48 8b 45 f8          	mov    -0x8(%rbp),%rax
  40306a:	c9                   	leave  
  40306b:	c3                   	ret    

000000000040306c <_ZSt22__uninitialized_copy_aISt13move_iteratorIPSt4pairIiiEES3_S2_ET0_T_S6_S5_RSaIT1_E>:
  40306c:	55                   	push   %rbp
  40306d:	48 89 e5             	mov    %rsp,%rbp
  403070:	48 83 ec 20          	sub    $0x20,%rsp
  403074:	48 89 7d f8          	mov    %rdi,-0x8(%rbp)
  403078:	48 89 75 f0          	mov    %rsi,-0x10(%rbp)
  40307c:	48 89 55 e8          	mov    %rdx,-0x18(%rbp)
  403080:	48 89 4d e0          	mov    %rcx,-0x20(%rbp)
  403084:	48 8b 55 e8          	mov    -0x18(%rbp),%rdx
  403088:	48 8b 4d f0          	mov    -0x10(%rbp),%rcx
  40308c:	48 8b 45 f8          	mov    -0x8(%rbp),%rax
  403090:	48 89 ce             	mov    %rcx,%rsi
  403093:	48 89 c7             	mov    %rax,%rdi
  403096:	e8 50 01 00 00       	call   4031eb <_ZSt18uninitialized_copyISt13move_iteratorIPSt4pairIiiEES3_ET0_T_S6_S5_>
  40309b:	c9                   	leave  
  40309c:	c3                   	ret    
  40309d:	90                   	nop

000000000040309e <_ZN9__gnu_cxx13new_allocatorISt4pairIiiEE7destroyIS2_EEvPT_>:
  40309e:	55                   	push   %rbp
  40309f:	48 89 e5             	mov    %rsp,%rbp
  4030a2:	48 89 7d f8          	mov    %rdi,-0x8(%rbp)
  4030a6:	48 89 75 f0          	mov    %rsi,-0x10(%rbp)
  4030aa:	90                   	nop
  4030ab:	5d                   	pop    %rbp
  4030ac:	c3                   	ret    

00000000004030ad <_ZNSt6vectorISt4pairIiiESaIS1_EE11_S_max_sizeERKS2_>:
  4030ad:	55                   	push   %rbp
  4030ae:	48 89 e5             	mov    %rsp,%rbp
  4030b1:	48 83 ec 20          	sub    $0x20,%rsp
  4030b5:	48 89 7d e8          	mov    %rdi,-0x18(%rbp)
  4030b9:	48 b8 ff ff ff ff ff 	movabs $0xfffffffffffffff,%rax
  4030c0:	ff ff 0f 
  4030c3:	48 89 45 f8          	mov    %rax,-0x8(%rbp)
  4030c7:	48 8b 45 e8          	mov    -0x18(%rbp),%rax
  4030cb:	48 89 c7             	mov    %rax,%rdi
  4030ce:	e8 49 01 00 00       	call   40321c <_ZNSt16allocator_traitsISaISt4pairIiiEEE8max_sizeERKS2_>
  4030d3:	48 89 45 f0          	mov    %rax,-0x10(%rbp)
  4030d7:	48 8d 55 f0          	lea    -0x10(%rbp),%rdx
  4030db:	48 8d 45 f8          	lea    -0x8(%rbp),%rax
  4030df:	48 89 d6             	mov    %rdx,%rsi
  4030e2:	48 89 c7             	mov    %rax,%rdi
  4030e5:	e8 4c 01 00 00       	call   403236 <_ZSt3minImERKT_S2_S2_>
  4030ea:	48 8b 00             	mov    (%rax),%rax
  4030ed:	c9                   	leave  
  4030ee:	c3                   	ret    
  4030ef:	90                   	nop

00000000004030f0 <_ZNKSt12_Vector_baseISt4pairIiiESaIS1_EE19_M_get_Tp_allocatorEv>:
  4030f0:	55                   	push   %rbp
  4030f1:	48 89 e5             	mov    %rsp,%rbp
  4030f4:	48 89 7d f8          	mov    %rdi,-0x8(%rbp)
  4030f8:	48 8b 45 f8          	mov    -0x8(%rbp),%rax
  4030fc:	5d                   	pop    %rbp
  4030fd:	c3                   	ret    

00000000004030fe <_ZN9__gnu_cxx13new_allocatorISt4pairIiiEE8allocateEmPKv>:
  4030fe:	55                   	push   %rbp
  4030ff:	48 89 e5             	mov    %rsp,%rbp
  403102:	48 83 ec 20          	sub    $0x20,%rsp
  403106:	48 89 7d f8          	mov    %rdi,-0x8(%rbp)
  40310a:	48 89 75 f0          	mov    %rsi,-0x10(%rbp)
  40310e:	48 89 55 e8          	mov    %rdx,-0x18(%rbp)
  403112:	48 8b 45 f8          	mov    -0x8(%rbp),%rax
  403116:	48 89 c7             	mov    %rax,%rdi
  403119:	e8 44 01 00 00       	call   403262 <_ZNK9__gnu_cxx13new_allocatorISt4pairIiiEE11_M_max_sizeEv>
  40311e:	48 39 45 f0          	cmp    %rax,-0x10(%rbp)
  403122:	0f 97 c0             	seta   %al
  403125:	0f b6 c0             	movzbl %al,%eax
  403128:	48 85 c0             	test   %rax,%rax
  40312b:	0f 95 c0             	setne  %al
  40312e:	84 c0                	test   %al,%al
  403130:	74 1a                	je     40314c <_ZN9__gnu_cxx13new_allocatorISt4pairIiiEE8allocateEmPKv+0x4e>
  403132:	48 b8 ff ff ff ff ff 	movabs $0x1fffffffffffffff,%rax
  403139:	ff ff 1f 
  40313c:	48 39 45 f0          	cmp    %rax,-0x10(%rbp)
  403140:	76 05                	jbe    403147 <_ZN9__gnu_cxx13new_allocatorISt4pairIiiEE8allocateEmPKv+0x49>
  403142:	e8 59 df ff ff       	call   4010a0 <_ZSt28__throw_bad_array_new_lengthv@plt>
  403147:	e8 14 df ff ff       	call   401060 <_ZSt17__throw_bad_allocv@plt>
  40314c:	48 8b 45 f0          	mov    -0x10(%rbp),%rax
  403150:	48 c1 e0 03          	shl    $0x3,%rax
  403154:	48 89 c7             	mov    %rax,%rdi
  403157:	e8 94 df ff ff       	call   4010f0 <_Znwm@plt>
  40315c:	c9                   	leave  
  40315d:	c3                   	ret    

000000000040315e <_ZSt12__relocate_aIPSt4pairIiiES2_SaIS1_EET0_T_S5_S4_RT1_>:
  40315e:	55                   	push   %rbp
  40315f:	48 89 e5             	mov    %rsp,%rbp
  403162:	41 54                	push   %r12
  403164:	53                   	push   %rbx
  403165:	48 83 ec 20          	sub    $0x20,%rsp
  403169:	48 89 7d e8          	mov    %rdi,-0x18(%rbp)
  40316d:	48 89 75 e0          	mov    %rsi,-0x20(%rbp)
  403171:	48 89 55 d8          	mov    %rdx,-0x28(%rbp)
  403175:	48 89 4d d0          	mov    %rcx,-0x30(%rbp)
  403179:	48 8b 45 d8          	mov    -0x28(%rbp),%rax
  40317d:	48 89 c7             	mov    %rax,%rdi
  403180:	e8 f1 00 00 00       	call   403276 <_ZSt12__niter_baseIPSt4pairIiiEET_S3_>
  403185:	49 89 c4             	mov    %rax,%r12
  403188:	48 8b 45 e0          	mov    -0x20(%rbp),%rax
  40318c:	48 89 c7             	mov    %rax,%rdi
  40318f:	e8 e2 00 00 00       	call   403276 <_ZSt12__niter_baseIPSt4pairIiiEET_S3_>
  403194:	48 89 c3             	mov    %rax,%rbx
  403197:	48 8b 45 e8          	mov    -0x18(%rbp),%rax
  40319b:	48 89 c7             	mov    %rax,%rdi
  40319e:	e8 d3 00 00 00       	call   403276 <_ZSt12__niter_baseIPSt4pairIiiEET_S3_>
  4031a3:	48 89 c7             	mov    %rax,%rdi
  4031a6:	48 8b 45 d0          	mov    -0x30(%rbp),%rax
  4031aa:	48 89 c1             	mov    %rax,%rcx
  4031ad:	4c 89 e2             	mov    %r12,%rdx
  4031b0:	48 89 de             	mov    %rbx,%rsi
  4031b3:	e8 cc 00 00 00       	call   403284 <_ZSt14__relocate_a_1IPSt4pairIiiES2_SaIS1_EET0_T_S5_S4_RT1_>
  4031b8:	48 83 c4 20          	add    $0x20,%rsp
  4031bc:	5b                   	pop    %rbx
  4031bd:	41 5c                	pop    %r12
  4031bf:	5d                   	pop    %rbp
  4031c0:	c3                   	ret    
  4031c1:	90                   	nop

00000000004031c2 <_ZNSt13move_iteratorIPSt4pairIiiEEC1ES2_>:
  4031c2:	55                   	push   %rbp
  4031c3:	48 89 e5             	mov    %rsp,%rbp
  4031c6:	48 83 ec 10          	sub    $0x10,%rsp
  4031ca:	48 89 7d f8          	mov    %rdi,-0x8(%rbp)
  4031ce:	48 89 75 f0          	mov    %rsi,-0x10(%rbp)
  4031d2:	48 8d 45 f0          	lea    -0x10(%rbp),%rax
  4031d6:	48 89 c7             	mov    %rax,%rdi
  4031d9:	e8 17 01 00 00       	call   4032f5 <_ZSt4moveIRPSt4pairIiiEEONSt16remove_referenceIT_E4typeEOS5_>
  4031de:	48 8b 10             	mov    (%rax),%rdx
  4031e1:	48 8b 45 f8          	mov    -0x8(%rbp),%rax
  4031e5:	48 89 10             	mov    %rdx,(%rax)
  4031e8:	90                   	nop
  4031e9:	c9                   	leave  
  4031ea:	c3                   	ret    

00000000004031eb <_ZSt18uninitialized_copyISt13move_iteratorIPSt4pairIiiEES3_ET0_T_S6_S5_>:
  4031eb:	55                   	push   %rbp
  4031ec:	48 89 e5             	mov    %rsp,%rbp
  4031ef:	48 83 ec 30          	sub    $0x30,%rsp
  4031f3:	48 89 7d e8          	mov    %rdi,-0x18(%rbp)
  4031f7:	48 89 75 e0          	mov    %rsi,-0x20(%rbp)
  4031fb:	48 89 55 d8          	mov    %rdx,-0x28(%rbp)
  4031ff:	c6 45 ff 01          	movb   $0x1,-0x1(%rbp)
  403203:	48 8b 55 d8          	mov    -0x28(%rbp),%rdx
  403207:	48 8b 4d e0          	mov    -0x20(%rbp),%rcx
  40320b:	48 8b 45 e8          	mov    -0x18(%rbp),%rax
  40320f:	48 89 ce             	mov    %rcx,%rsi
  403212:	48 89 c7             	mov    %rax,%rdi
  403215:	e8 e9 00 00 00       	call   403303 <_ZNSt20__uninitialized_copyILb0EE13__uninit_copyISt13move_iteratorIPSt4pairIiiEES5_EET0_T_S8_S7_>
  40321a:	c9                   	leave  
  40321b:	c3                   	ret    

000000000040321c <_ZNSt16allocator_traitsISaISt4pairIiiEEE8max_sizeERKS2_>:
  40321c:	55                   	push   %rbp
  40321d:	48 89 e5             	mov    %rsp,%rbp
  403220:	48 83 ec 10          	sub    $0x10,%rsp
  403224:	48 89 7d f8          	mov    %rdi,-0x8(%rbp)
  403228:	48 8b 45 f8          	mov    -0x8(%rbp),%rax
  40322c:	48 89 c7             	mov    %rax,%rdi
  40322f:	e8 7c 01 00 00       	call   4033b0 <_ZNK9__gnu_cxx13new_allocatorISt4pairIiiEE8max_sizeEv>
  403234:	c9                   	leave  
  403235:	c3                   	ret    

0000000000403236 <_ZSt3minImERKT_S2_S2_>:
  403236:	55                   	push   %rbp
  403237:	48 89 e5             	mov    %rsp,%rbp
  40323a:	48 89 7d f8          	mov    %rdi,-0x8(%rbp)
  40323e:	48 89 75 f0          	mov    %rsi,-0x10(%rbp)
  403242:	48 8b 45 f0          	mov    -0x10(%rbp),%rax
  403246:	48 8b 10             	mov    (%rax),%rdx
  403249:	48 8b 45 f8          	mov    -0x8(%rbp),%rax
  40324d:	48 8b 00             	mov    (%rax),%rax
  403250:	48 39 c2             	cmp    %rax,%rdx
  403253:	73 06                	jae    40325b <_ZSt3minImERKT_S2_S2_+0x25>
  403255:	48 8b 45 f0          	mov    -0x10(%rbp),%rax
  403259:	eb 04                	jmp    40325f <_ZSt3minImERKT_S2_S2_+0x29>
  40325b:	48 8b 45 f8          	mov    -0x8(%rbp),%rax
  40325f:	5d                   	pop    %rbp
  403260:	c3                   	ret    
  403261:	90                   	nop

0000000000403262 <_ZNK9__gnu_cxx13new_allocatorISt4pairIiiEE11_M_max_sizeEv>:
  403262:	55                   	push   %rbp
  403263:	48 89 e5             	mov    %rsp,%rbp
  403266:	48 89 7d f8          	mov    %rdi,-0x8(%rbp)
  40326a:	48 b8 ff ff ff ff ff 	movabs $0xfffffffffffffff,%rax
  403271:	ff ff 0f 
  403274:	5d                   	pop    %rbp
  403275:	c3                   	ret    

0000000000403276 <_ZSt12__niter_baseIPSt4pairIiiEET_S3_>:
  403276:	55                   	push   %rbp
  403277:	48 89 e5             	mov    %rsp,%rbp
  40327a:	48 89 7d f8          	mov    %rdi,-0x8(%rbp)
  40327e:	48 8b 45 f8          	mov    -0x8(%rbp),%rax
  403282:	5d                   	pop    %rbp
  403283:	c3                   	ret    

0000000000403284 <_ZSt14__relocate_a_1IPSt4pairIiiES2_SaIS1_EET0_T_S5_S4_RT1_>:
  403284:	55                   	push   %rbp
  403285:	48 89 e5             	mov    %rsp,%rbp
  403288:	53                   	push   %rbx
  403289:	48 83 ec 38          	sub    $0x38,%rsp
  40328d:	48 89 7d d8          	mov    %rdi,-0x28(%rbp)
  403291:	48 89 75 d0          	mov    %rsi,-0x30(%rbp)
  403295:	48 89 55 c8          	mov    %rdx,-0x38(%rbp)
  403299:	48 89 4d c0          	mov    %rcx,-0x40(%rbp)
  40329d:	48 8b 45 c8          	mov    -0x38(%rbp),%rax
  4032a1:	48 89 45 e8          	mov    %rax,-0x18(%rbp)
  4032a5:	eb 3a                	jmp    4032e1 <_ZSt14__relocate_a_1IPSt4pairIiiES2_SaIS1_EET0_T_S5_S4_RT1_+0x5d>
  4032a7:	48 8b 45 d8          	mov    -0x28(%rbp),%rax
  4032ab:	48 89 c7             	mov    %rax,%rdi
  4032ae:	e8 17 01 00 00       	call   4033ca <_ZSt11__addressofISt4pairIiiEEPT_RS2_>
  4032b3:	48 89 c3             	mov    %rax,%rbx
  4032b6:	48 8b 45 e8          	mov    -0x18(%rbp),%rax
  4032ba:	48 89 c7             	mov    %rax,%rdi
  4032bd:	e8 08 01 00 00       	call   4033ca <_ZSt11__addressofISt4pairIiiEEPT_RS2_>
  4032c2:	48 89 c1             	mov    %rax,%rcx
  4032c5:	48 8b 45 c0          	mov    -0x40(%rbp),%rax
  4032c9:	48 89 c2             	mov    %rax,%rdx
  4032cc:	48 89 de             	mov    %rbx,%rsi
  4032cf:	48 89 cf             	mov    %rcx,%rdi
  4032d2:	e8 01 01 00 00       	call   4033d8 <_ZSt19__relocate_object_aISt4pairIiiES1_SaIS1_EEvPT_PT0_RT1_>
  4032d7:	48 83 45 d8 08       	addq   $0x8,-0x28(%rbp)
  4032dc:	48 83 45 e8 08       	addq   $0x8,-0x18(%rbp)
  4032e1:	48 8b 45 d8          	mov    -0x28(%rbp),%rax
  4032e5:	48 3b 45 d0          	cmp    -0x30(%rbp),%rax
  4032e9:	75 bc                	jne    4032a7 <_ZSt14__relocate_a_1IPSt4pairIiiES2_SaIS1_EET0_T_S5_S4_RT1_+0x23>
  4032eb:	48 8b 45 e8          	mov    -0x18(%rbp),%rax
  4032ef:	48 8b 5d f8          	mov    -0x8(%rbp),%rbx
  4032f3:	c9                   	leave  
  4032f4:	c3                   	ret    

00000000004032f5 <_ZSt4moveIRPSt4pairIiiEEONSt16remove_referenceIT_E4typeEOS5_>:
  4032f5:	55                   	push   %rbp
  4032f6:	48 89 e5             	mov    %rsp,%rbp
  4032f9:	48 89 7d f8          	mov    %rdi,-0x8(%rbp)
  4032fd:	48 8b 45 f8          	mov    -0x8(%rbp),%rax
  403301:	5d                   	pop    %rbp
  403302:	c3                   	ret    

0000000000403303 <_ZNSt20__uninitialized_copyILb0EE13__uninit_copyISt13move_iteratorIPSt4pairIiiEES5_EET0_T_S8_S7_>:
  403303:	55                   	push   %rbp
  403304:	48 89 e5             	mov    %rsp,%rbp
  403307:	53                   	push   %rbx
  403308:	48 83 ec 38          	sub    $0x38,%rsp
  40330c:	48 89 7d d8          	mov    %rdi,-0x28(%rbp)
  403310:	48 89 75 d0          	mov    %rsi,-0x30(%rbp)
  403314:	48 89 55 c8          	mov    %rdx,-0x38(%rbp)
  403318:	48 8b 45 c8          	mov    -0x38(%rbp),%rax
  40331c:	48 89 45 e8          	mov    %rax,-0x18(%rbp)
  403320:	eb 37                	jmp    403359 <_ZNSt20__uninitialized_copyILb0EE13__uninit_copyISt13move_iteratorIPSt4pairIiiEES5_EET0_T_S8_S7_+0x56>
  403322:	48 8d 45 d8          	lea    -0x28(%rbp),%rax
  403326:	48 89 c7             	mov    %rax,%rdi
  403329:	e8 4a 01 00 00       	call   403478 <_ZNKSt13move_iteratorIPSt4pairIiiEEdeEv>
  40332e:	48 89 c3             	mov    %rax,%rbx
  403331:	48 8b 45 e8          	mov    -0x18(%rbp),%rax
  403335:	48 89 c7             	mov    %rax,%rdi
  403338:	e8 8d 00 00 00       	call   4033ca <_ZSt11__addressofISt4pairIiiEEPT_RS2_>
  40333d:	48 89 de             	mov    %rbx,%rsi
  403340:	48 89 c7             	mov    %rax,%rdi
  403343:	e8 41 01 00 00       	call   403489 <_ZSt10_ConstructISt4pairIiiEJS1_EEvPT_DpOT0_>
  403348:	48 8d 45 d8          	lea    -0x28(%rbp),%rax
  40334c:	48 89 c7             	mov    %rax,%rdi
  40334f:	e8 04 01 00 00       	call   403458 <_ZNSt13move_iteratorIPSt4pairIiiEEppEv>
  403354:	48 83 45 e8 08       	addq   $0x8,-0x18(%rbp)
  403359:	48 8d 55 d0          	lea    -0x30(%rbp),%rdx
  40335d:	48 8d 45 d8          	lea    -0x28(%rbp),%rax
  403361:	48 89 d6             	mov    %rdx,%rsi
  403364:	48 89 c7             	mov    %rax,%rdi
  403367:	e8 c3 00 00 00       	call   40342f <_ZStneIPSt4pairIiiEEbRKSt13move_iteratorIT_ES7_>
  40336c:	84 c0                	test   %al,%al
  40336e:	75 b2                	jne    403322 <_ZNSt20__uninitialized_copyILb0EE13__uninit_copyISt13move_iteratorIPSt4pairIiiEES5_EET0_T_S8_S7_+0x1f>
  403370:	48 8b 45 e8          	mov    -0x18(%rbp),%rax
  403374:	eb 33                	jmp    4033a9 <_ZNSt20__uninitialized_copyILb0EE13__uninit_copyISt13move_iteratorIPSt4pairIiiEES5_EET0_T_S8_S7_+0xa6>
  403376:	48 89 c7             	mov    %rax,%rdi
  403379:	e8 f2 dc ff ff       	call   401070 <__cxa_begin_catch@plt>
  40337e:	48 8b 55 e8          	mov    -0x18(%rbp),%rdx
  403382:	48 8b 45 c8          	mov    -0x38(%rbp),%rax
  403386:	48 89 d6             	mov    %rdx,%rsi
  403389:	48 89 c7             	mov    %rax,%rdi
  40338c:	e8 c4 f5 ff ff       	call   402955 <_ZSt8_DestroyIPSt4pairIiiEEvT_S3_>
  403391:	e8 9a dd ff ff       	call   401130 <__cxa_rethrow@plt>
  403396:	48 89 c3             	mov    %rax,%rbx
  403399:	e8 c2 dd ff ff       	call   401160 <__cxa_end_catch@plt>
  40339e:	48 89 d8             	mov    %rbx,%rax
  4033a1:	48 89 c7             	mov    %rax,%rdi
  4033a4:	e8 d7 dd ff ff       	call   401180 <_Unwind_Resume@plt>
  4033a9:	48 8b 5d f8          	mov    -0x8(%rbp),%rbx
  4033ad:	c9                   	leave  
  4033ae:	c3                   	ret    
  4033af:	90                   	nop

00000000004033b0 <_ZNK9__gnu_cxx13new_allocatorISt4pairIiiEE8max_sizeEv>:
  4033b0:	55                   	push   %rbp
  4033b1:	48 89 e5             	mov    %rsp,%rbp
  4033b4:	48 83 ec 10          	sub    $0x10,%rsp
  4033b8:	48 89 7d f8          	mov    %rdi,-0x8(%rbp)
  4033bc:	48 8b 45 f8          	mov    -0x8(%rbp),%rax
  4033c0:	48 89 c7             	mov    %rax,%rdi
  4033c3:	e8 9a fe ff ff       	call   403262 <_ZNK9__gnu_cxx13new_allocatorISt4pairIiiEE11_M_max_sizeEv>
  4033c8:	c9                   	leave  
  4033c9:	c3                   	ret    

00000000004033ca <_ZSt11__addressofISt4pairIiiEEPT_RS2_>:
  4033ca:	55                   	push   %rbp
  4033cb:	48 89 e5             	mov    %rsp,%rbp
  4033ce:	48 89 7d f8          	mov    %rdi,-0x8(%rbp)
  4033d2:	48 8b 45 f8          	mov    -0x8(%rbp),%rax
  4033d6:	5d                   	pop    %rbp
  4033d7:	c3                   	ret    

00000000004033d8 <_ZSt19__relocate_object_aISt4pairIiiES1_SaIS1_EEvPT_PT0_RT1_>:
  4033d8:	55                   	push   %rbp
  4033d9:	48 89 e5             	mov    %rsp,%rbp
  4033dc:	48 83 ec 20          	sub    $0x20,%rsp
  4033e0:	48 89 7d f8          	mov    %rdi,-0x8(%rbp)
  4033e4:	48 89 75 f0          	mov    %rsi,-0x10(%rbp)
  4033e8:	48 89 55 e8          	mov    %rdx,-0x18(%rbp)
  4033ec:	48 8b 45 f0          	mov    -0x10(%rbp),%rax
  4033f0:	48 89 c7             	mov    %rax,%rdi
  4033f3:	e8 f2 f3 ff ff       	call   4027ea <_ZSt4moveIRSt4pairIiiEEONSt16remove_referenceIT_E4typeEOS4_>
  4033f8:	48 89 c2             	mov    %rax,%rdx
  4033fb:	48 8b 4d f8          	mov    -0x8(%rbp),%rcx
  4033ff:	48 8b 45 e8          	mov    -0x18(%rbp),%rax
  403403:	48 89 ce             	mov    %rcx,%rsi
  403406:	48 89 c7             	mov    %rax,%rdi
  403409:	e8 7b f5 ff ff       	call   402989 <_ZNSt16allocator_traitsISaISt4pairIiiEEE9constructIS1_JS1_EEEvRS2_PT_DpOT0_>
  40340e:	48 8b 45 f0          	mov    -0x10(%rbp),%rax
  403412:	48 89 c7             	mov    %rax,%rdi
  403415:	e8 b0 ff ff ff       	call   4033ca <_ZSt11__addressofISt4pairIiiEEPT_RS2_>
  40341a:	48 89 c2             	mov    %rax,%rdx
  40341d:	48 8b 45 e8          	mov    -0x18(%rbp),%rax
  403421:	48 89 d6             	mov    %rdx,%rsi
  403424:	48 89 c7             	mov    %rax,%rdi
  403427:	e8 4b fb ff ff       	call   402f77 <_ZNSt16allocator_traitsISaISt4pairIiiEEE7destroyIS1_EEvRS2_PT_>
  40342c:	90                   	nop
  40342d:	c9                   	leave  
  40342e:	c3                   	ret    

000000000040342f <_ZStneIPSt4pairIiiEEbRKSt13move_iteratorIT_ES7_>:
  40342f:	55                   	push   %rbp
  403430:	48 89 e5             	mov    %rsp,%rbp
  403433:	48 83 ec 10          	sub    $0x10,%rsp
  403437:	48 89 7d f8          	mov    %rdi,-0x8(%rbp)
  40343b:	48 89 75 f0          	mov    %rsi,-0x10(%rbp)
  40343f:	48 8b 55 f0          	mov    -0x10(%rbp),%rdx
  403443:	48 8b 45 f8          	mov    -0x8(%rbp),%rax
  403447:	48 89 d6             	mov    %rdx,%rsi
  40344a:	48 89 c7             	mov    %rax,%rdi
  40344d:	e8 75 00 00 00       	call   4034c7 <_ZSteqIPSt4pairIiiEEbRKSt13move_iteratorIT_ES7_>
  403452:	83 f0 01             	xor    $0x1,%eax
  403455:	c9                   	leave  
  403456:	c3                   	ret    
  403457:	90                   	nop

0000000000403458 <_ZNSt13move_iteratorIPSt4pairIiiEEppEv>:
  403458:	55                   	push   %rbp
  403459:	48 89 e5             	mov    %rsp,%rbp
  40345c:	48 89 7d f8          	mov    %rdi,-0x8(%rbp)
  403460:	48 8b 45 f8          	mov    -0x8(%rbp),%rax
  403464:	48 8b 00             	mov    (%rax),%rax
  403467:	48 8d 50 08          	lea    0x8(%rax),%rdx
  40346b:	48 8b 45 f8          	mov    -0x8(%rbp),%rax
  40346f:	48 89 10             	mov    %rdx,(%rax)
  403472:	48 8b 45 f8          	mov    -0x8(%rbp),%rax
  403476:	5d                   	pop    %rbp
  403477:	c3                   	ret    

0000000000403478 <_ZNKSt13move_iteratorIPSt4pairIiiEEdeEv>:
  403478:	55                   	push   %rbp
  403479:	48 89 e5             	mov    %rsp,%rbp
  40347c:	48 89 7d f8          	mov    %rdi,-0x8(%rbp)
  403480:	48 8b 45 f8          	mov    -0x8(%rbp),%rax
  403484:	48 8b 00             	mov    (%rax),%rax
  403487:	5d                   	pop    %rbp
  403488:	c3                   	ret    

0000000000403489 <_ZSt10_ConstructISt4pairIiiEJS1_EEvPT_DpOT0_>:
  403489:	55                   	push   %rbp
  40348a:	48 89 e5             	mov    %rsp,%rbp
  40348d:	53                   	push   %rbx
  40348e:	48 83 ec 18          	sub    $0x18,%rsp
  403492:	48 89 7d e8          	mov    %rdi,-0x18(%rbp)
  403496:	48 89 75 e0          	mov    %rsi,-0x20(%rbp)
  40349a:	48 8b 45 e0          	mov    -0x20(%rbp),%rax
  40349e:	48 89 c7             	mov    %rax,%rdi
  4034a1:	e8 d5 f4 ff ff       	call   40297b <_ZSt7forwardISt4pairIiiEEOT_RNSt16remove_referenceIS2_E4typeE>
  4034a6:	48 89 c3             	mov    %rax,%rbx
  4034a9:	48 8b 45 e8          	mov    -0x18(%rbp),%rax
  4034ad:	48 89 c6             	mov    %rax,%rsi
  4034b0:	bf 08 00 00 00       	mov    $0x8,%edi
  4034b5:	e8 66 e1 ff ff       	call   401620 <_ZnwmPv>
  4034ba:	48 8b 13             	mov    (%rbx),%rdx
  4034bd:	48 89 10             	mov    %rdx,(%rax)
  4034c0:	90                   	nop
  4034c1:	48 8b 5d f8          	mov    -0x8(%rbp),%rbx
  4034c5:	c9                   	leave  
  4034c6:	c3                   	ret    

00000000004034c7 <_ZSteqIPSt4pairIiiEEbRKSt13move_iteratorIT_ES7_>:
  4034c7:	55                   	push   %rbp
  4034c8:	48 89 e5             	mov    %rsp,%rbp
  4034cb:	53                   	push   %rbx
  4034cc:	48 83 ec 18          	sub    $0x18,%rsp
  4034d0:	48 89 7d e8          	mov    %rdi,-0x18(%rbp)
  4034d4:	48 89 75 e0          	mov    %rsi,-0x20(%rbp)
  4034d8:	48 8b 45 e8          	mov    -0x18(%rbp),%rax
  4034dc:	48 89 c7             	mov    %rax,%rdi
  4034df:	e8 1c 00 00 00       	call   403500 <_ZNKSt13move_iteratorIPSt4pairIiiEE4baseEv>
  4034e4:	48 89 c3             	mov    %rax,%rbx
  4034e7:	48 8b 45 e0          	mov    -0x20(%rbp),%rax
  4034eb:	48 89 c7             	mov    %rax,%rdi
  4034ee:	e8 0d 00 00 00       	call   403500 <_ZNKSt13move_iteratorIPSt4pairIiiEE4baseEv>
  4034f3:	48 39 c3             	cmp    %rax,%rbx
  4034f6:	0f 94 c0             	sete   %al
  4034f9:	48 8b 5d f8          	mov    -0x8(%rbp),%rbx
  4034fd:	c9                   	leave  
  4034fe:	c3                   	ret    
  4034ff:	90                   	nop

0000000000403500 <_ZNKSt13move_iteratorIPSt4pairIiiEE4baseEv>:
  403500:	55                   	push   %rbp
  403501:	48 89 e5             	mov    %rsp,%rbp
  403504:	48 89 7d f8          	mov    %rdi,-0x8(%rbp)
  403508:	48 8b 45 f8          	mov    -0x8(%rbp),%rax
  40350c:	48 8b 00             	mov    (%rax),%rax
  40350f:	5d                   	pop    %rbp
  403510:	c3                   	ret    

Disassembly of section .fini:

0000000000403514 <_fini>:
  403514:	f3 0f 1e fa          	endbr64 
  403518:	48 83 ec 08          	sub    $0x8,%rsp
  40351c:	48 83 c4 08          	add    $0x8,%rsp
  403520:	c3                   	ret    
